                                      1 ;--------------------------------------------------------
                                      2 ; File Created by SDCC : free open source ISO C Compiler 
                                      3 ; Version 4.2.6 #13647 (MINGW32)
                                      4 ;--------------------------------------------------------
                                      5 	.module main
                                      6 	.optsdcc -mmcs51 --model-large
                                      7 	
                                      8 ;--------------------------------------------------------
                                      9 ; Public variables in this module
                                     10 ;--------------------------------------------------------
                                     11 	.globl _main
                                     12 	.globl _Timer0_ISR
                                     13 	.globl _UART1_ISR
                                     14 	.globl _READ_CONFIG
                                     15 	.globl _READ_ID
                                     16 	.globl _Send_64byte_To_UART1
                                     17 	.globl _Package_checksum
                                     18 	.globl _UART1_ini_115200_24MHz
                                     19 	.globl _TM0_ini
                                     20 	.globl _MODIFY_HIRC_16
                                     21 	.globl _MODIFY_HIRC_24
                                     22 	.globl _MOSI
                                     23 	.globl _P00
                                     24 	.globl _MISO
                                     25 	.globl _P01
                                     26 	.globl _RXD_1
                                     27 	.globl _P02
                                     28 	.globl _P03
                                     29 	.globl _STADC
                                     30 	.globl _P04
                                     31 	.globl _P05
                                     32 	.globl _TXD
                                     33 	.globl _P06
                                     34 	.globl _RXD
                                     35 	.globl _P07
                                     36 	.globl _IT0
                                     37 	.globl _IE0
                                     38 	.globl _IT1
                                     39 	.globl _IE1
                                     40 	.globl _TR0
                                     41 	.globl _TF0
                                     42 	.globl _TR1
                                     43 	.globl _TF1
                                     44 	.globl _P10
                                     45 	.globl _P11
                                     46 	.globl _P12
                                     47 	.globl _SCL
                                     48 	.globl _P13
                                     49 	.globl _SDA
                                     50 	.globl _P14
                                     51 	.globl _P15
                                     52 	.globl _TXD_1
                                     53 	.globl _P16
                                     54 	.globl _P17
                                     55 	.globl _RI
                                     56 	.globl _TI
                                     57 	.globl _RB8
                                     58 	.globl _TB8
                                     59 	.globl _REN
                                     60 	.globl _SM2
                                     61 	.globl _SM1
                                     62 	.globl _FE
                                     63 	.globl _SM0
                                     64 	.globl _P20
                                     65 	.globl _EX0
                                     66 	.globl _ET0
                                     67 	.globl _EX1
                                     68 	.globl _ET1
                                     69 	.globl _ES
                                     70 	.globl _EBOD
                                     71 	.globl _EADC
                                     72 	.globl _EA
                                     73 	.globl _P30
                                     74 	.globl _PX0
                                     75 	.globl _PT0
                                     76 	.globl _PX1
                                     77 	.globl _PT1
                                     78 	.globl _PS
                                     79 	.globl _PBOD
                                     80 	.globl _PADC
                                     81 	.globl _I2CPX
                                     82 	.globl _AA
                                     83 	.globl _SI
                                     84 	.globl _STO
                                     85 	.globl _STA
                                     86 	.globl _I2CEN
                                     87 	.globl _CM_RL2
                                     88 	.globl _TR2
                                     89 	.globl _TF2
                                     90 	.globl _P
                                     91 	.globl _OV
                                     92 	.globl _RS0
                                     93 	.globl _RS1
                                     94 	.globl _F0
                                     95 	.globl _AC
                                     96 	.globl _CY
                                     97 	.globl _CLRPWM
                                     98 	.globl _PWMF
                                     99 	.globl _LOAD
                                    100 	.globl _PWMRUN
                                    101 	.globl _ADCHS0
                                    102 	.globl _ADCHS1
                                    103 	.globl _ADCHS2
                                    104 	.globl _ADCHS3
                                    105 	.globl _ETGSEL0
                                    106 	.globl _ETGSEL1
                                    107 	.globl _ADCS
                                    108 	.globl _ADCF
                                    109 	.globl _RI_1
                                    110 	.globl _TI_1
                                    111 	.globl _RB8_1
                                    112 	.globl _TB8_1
                                    113 	.globl _REN_1
                                    114 	.globl _SM2_1
                                    115 	.globl _SM1_1
                                    116 	.globl _FE_1
                                    117 	.globl _SM0_1
                                    118 	.globl _EIPH1
                                    119 	.globl _EIP1
                                    120 	.globl _PMD
                                    121 	.globl _PMEN
                                    122 	.globl _PDTCNT
                                    123 	.globl _PDTEN
                                    124 	.globl _SCON_1
                                    125 	.globl _EIPH
                                    126 	.globl _AINDIDS
                                    127 	.globl _SPDR
                                    128 	.globl _SPSR
                                    129 	.globl _SPCR2
                                    130 	.globl _SPCR
                                    131 	.globl _CAPCON4
                                    132 	.globl _CAPCON3
                                    133 	.globl _B
                                    134 	.globl _EIP
                                    135 	.globl _C2H
                                    136 	.globl _C2L
                                    137 	.globl _PIF
                                    138 	.globl _PIPEN
                                    139 	.globl _PINEN
                                    140 	.globl _PICON
                                    141 	.globl _ADCCON0
                                    142 	.globl _C1H
                                    143 	.globl _C1L
                                    144 	.globl _C0H
                                    145 	.globl _C0L
                                    146 	.globl _ADCDLY
                                    147 	.globl _ADCCON2
                                    148 	.globl _ADCCON1
                                    149 	.globl _ACC
                                    150 	.globl _PWMCON1
                                    151 	.globl _PIOCON0
                                    152 	.globl _PWM3L
                                    153 	.globl _PWM2L
                                    154 	.globl _PWM1L
                                    155 	.globl _PWM0L
                                    156 	.globl _PWMPL
                                    157 	.globl _PWMCON0
                                    158 	.globl _FBD
                                    159 	.globl _PNP
                                    160 	.globl _PWM3H
                                    161 	.globl _PWM2H
                                    162 	.globl _PWM1H
                                    163 	.globl _PWM0H
                                    164 	.globl _PWMPH
                                    165 	.globl _PSW
                                    166 	.globl _ADCMPH
                                    167 	.globl _ADCMPL
                                    168 	.globl _PWM5L
                                    169 	.globl _TH2
                                    170 	.globl _PWM4L
                                    171 	.globl _TL2
                                    172 	.globl _RCMP2H
                                    173 	.globl _RCMP2L
                                    174 	.globl _T2MOD
                                    175 	.globl _T2CON
                                    176 	.globl _TA
                                    177 	.globl _PIOCON1
                                    178 	.globl _RH3
                                    179 	.globl _PWM5H
                                    180 	.globl _RL3
                                    181 	.globl _PWM4H
                                    182 	.globl _T3CON
                                    183 	.globl _ADCRH
                                    184 	.globl _ADCRL
                                    185 	.globl _I2ADDR
                                    186 	.globl _I2CON
                                    187 	.globl _I2TOC
                                    188 	.globl _I2CLK
                                    189 	.globl _I2STAT
                                    190 	.globl _I2DAT
                                    191 	.globl _SADDR_1
                                    192 	.globl _SADEN_1
                                    193 	.globl _SADEN
                                    194 	.globl _IP
                                    195 	.globl _PWMINTC
                                    196 	.globl _IPH
                                    197 	.globl _P2S
                                    198 	.globl _P1SR
                                    199 	.globl _P1M2
                                    200 	.globl _P1S
                                    201 	.globl _P1M1
                                    202 	.globl _P0SR
                                    203 	.globl _P0M2
                                    204 	.globl _P0S
                                    205 	.globl _P0M1
                                    206 	.globl _P3
                                    207 	.globl _IAPCN
                                    208 	.globl _IAPFD
                                    209 	.globl _P3SR
                                    210 	.globl _P3M2
                                    211 	.globl _P3S
                                    212 	.globl _P3M1
                                    213 	.globl _BODCON1
                                    214 	.globl _WDCON
                                    215 	.globl _SADDR
                                    216 	.globl _IE
                                    217 	.globl _IAPAH
                                    218 	.globl _IAPAL
                                    219 	.globl _IAPUEN
                                    220 	.globl _IAPTRG
                                    221 	.globl _BODCON0
                                    222 	.globl _AUXR1
                                    223 	.globl _P2
                                    224 	.globl _CHPCON
                                    225 	.globl _EIE1
                                    226 	.globl _EIE
                                    227 	.globl _SBUF_1
                                    228 	.globl _SBUF
                                    229 	.globl _SCON
                                    230 	.globl _CKEN
                                    231 	.globl _CKSWT
                                    232 	.globl _CKDIV
                                    233 	.globl _CAPCON2
                                    234 	.globl _CAPCON1
                                    235 	.globl _CAPCON0
                                    236 	.globl _SFRS
                                    237 	.globl _P1
                                    238 	.globl _WKCON
                                    239 	.globl _CKCON
                                    240 	.globl _TH1
                                    241 	.globl _TH0
                                    242 	.globl _TL1
                                    243 	.globl _TL0
                                    244 	.globl _TMOD
                                    245 	.globl _TCON
                                    246 	.globl _PCON
                                    247 	.globl _RWK
                                    248 	.globl _RCTRIM1
                                    249 	.globl _RCTRIM0
                                    250 	.globl _DPH
                                    251 	.globl _DPL
                                    252 	.globl _SP
                                    253 	.globl _P0
                                    254 ;--------------------------------------------------------
                                    255 ; special function registers
                                    256 ;--------------------------------------------------------
                                    257 	.area RSEG    (ABS,DATA)
      000000                        258 	.org 0x0000
                           000080   259 G$P0$0_0$0 == 0x0080
                           000080   260 _P0	=	0x0080
                           000081   261 G$SP$0_0$0 == 0x0081
                           000081   262 _SP	=	0x0081
                           000082   263 G$DPL$0_0$0 == 0x0082
                           000082   264 _DPL	=	0x0082
                           000083   265 G$DPH$0_0$0 == 0x0083
                           000083   266 _DPH	=	0x0083
                           000084   267 G$RCTRIM0$0_0$0 == 0x0084
                           000084   268 _RCTRIM0	=	0x0084
                           000085   269 G$RCTRIM1$0_0$0 == 0x0085
                           000085   270 _RCTRIM1	=	0x0085
                           000086   271 G$RWK$0_0$0 == 0x0086
                           000086   272 _RWK	=	0x0086
                           000087   273 G$PCON$0_0$0 == 0x0087
                           000087   274 _PCON	=	0x0087
                           000088   275 G$TCON$0_0$0 == 0x0088
                           000088   276 _TCON	=	0x0088
                           000089   277 G$TMOD$0_0$0 == 0x0089
                           000089   278 _TMOD	=	0x0089
                           00008A   279 G$TL0$0_0$0 == 0x008a
                           00008A   280 _TL0	=	0x008a
                           00008B   281 G$TL1$0_0$0 == 0x008b
                           00008B   282 _TL1	=	0x008b
                           00008C   283 G$TH0$0_0$0 == 0x008c
                           00008C   284 _TH0	=	0x008c
                           00008D   285 G$TH1$0_0$0 == 0x008d
                           00008D   286 _TH1	=	0x008d
                           00008E   287 G$CKCON$0_0$0 == 0x008e
                           00008E   288 _CKCON	=	0x008e
                           00008F   289 G$WKCON$0_0$0 == 0x008f
                           00008F   290 _WKCON	=	0x008f
                           000090   291 G$P1$0_0$0 == 0x0090
                           000090   292 _P1	=	0x0090
                           000091   293 G$SFRS$0_0$0 == 0x0091
                           000091   294 _SFRS	=	0x0091
                           000092   295 G$CAPCON0$0_0$0 == 0x0092
                           000092   296 _CAPCON0	=	0x0092
                           000093   297 G$CAPCON1$0_0$0 == 0x0093
                           000093   298 _CAPCON1	=	0x0093
                           000094   299 G$CAPCON2$0_0$0 == 0x0094
                           000094   300 _CAPCON2	=	0x0094
                           000095   301 G$CKDIV$0_0$0 == 0x0095
                           000095   302 _CKDIV	=	0x0095
                           000096   303 G$CKSWT$0_0$0 == 0x0096
                           000096   304 _CKSWT	=	0x0096
                           000097   305 G$CKEN$0_0$0 == 0x0097
                           000097   306 _CKEN	=	0x0097
                           000098   307 G$SCON$0_0$0 == 0x0098
                           000098   308 _SCON	=	0x0098
                           000099   309 G$SBUF$0_0$0 == 0x0099
                           000099   310 _SBUF	=	0x0099
                           00009A   311 G$SBUF_1$0_0$0 == 0x009a
                           00009A   312 _SBUF_1	=	0x009a
                           00009B   313 G$EIE$0_0$0 == 0x009b
                           00009B   314 _EIE	=	0x009b
                           00009C   315 G$EIE1$0_0$0 == 0x009c
                           00009C   316 _EIE1	=	0x009c
                           00009F   317 G$CHPCON$0_0$0 == 0x009f
                           00009F   318 _CHPCON	=	0x009f
                           0000A0   319 G$P2$0_0$0 == 0x00a0
                           0000A0   320 _P2	=	0x00a0
                           0000A2   321 G$AUXR1$0_0$0 == 0x00a2
                           0000A2   322 _AUXR1	=	0x00a2
                           0000A3   323 G$BODCON0$0_0$0 == 0x00a3
                           0000A3   324 _BODCON0	=	0x00a3
                           0000A4   325 G$IAPTRG$0_0$0 == 0x00a4
                           0000A4   326 _IAPTRG	=	0x00a4
                           0000A5   327 G$IAPUEN$0_0$0 == 0x00a5
                           0000A5   328 _IAPUEN	=	0x00a5
                           0000A6   329 G$IAPAL$0_0$0 == 0x00a6
                           0000A6   330 _IAPAL	=	0x00a6
                           0000A7   331 G$IAPAH$0_0$0 == 0x00a7
                           0000A7   332 _IAPAH	=	0x00a7
                           0000A8   333 G$IE$0_0$0 == 0x00a8
                           0000A8   334 _IE	=	0x00a8
                           0000A9   335 G$SADDR$0_0$0 == 0x00a9
                           0000A9   336 _SADDR	=	0x00a9
                           0000AA   337 G$WDCON$0_0$0 == 0x00aa
                           0000AA   338 _WDCON	=	0x00aa
                           0000AB   339 G$BODCON1$0_0$0 == 0x00ab
                           0000AB   340 _BODCON1	=	0x00ab
                           0000AC   341 G$P3M1$0_0$0 == 0x00ac
                           0000AC   342 _P3M1	=	0x00ac
                           0000AC   343 G$P3S$0_0$0 == 0x00ac
                           0000AC   344 _P3S	=	0x00ac
                           0000AD   345 G$P3M2$0_0$0 == 0x00ad
                           0000AD   346 _P3M2	=	0x00ad
                           0000AD   347 G$P3SR$0_0$0 == 0x00ad
                           0000AD   348 _P3SR	=	0x00ad
                           0000AE   349 G$IAPFD$0_0$0 == 0x00ae
                           0000AE   350 _IAPFD	=	0x00ae
                           0000AF   351 G$IAPCN$0_0$0 == 0x00af
                           0000AF   352 _IAPCN	=	0x00af
                           0000B0   353 G$P3$0_0$0 == 0x00b0
                           0000B0   354 _P3	=	0x00b0
                           0000B1   355 G$P0M1$0_0$0 == 0x00b1
                           0000B1   356 _P0M1	=	0x00b1
                           0000B1   357 G$P0S$0_0$0 == 0x00b1
                           0000B1   358 _P0S	=	0x00b1
                           0000B2   359 G$P0M2$0_0$0 == 0x00b2
                           0000B2   360 _P0M2	=	0x00b2
                           0000B2   361 G$P0SR$0_0$0 == 0x00b2
                           0000B2   362 _P0SR	=	0x00b2
                           0000B3   363 G$P1M1$0_0$0 == 0x00b3
                           0000B3   364 _P1M1	=	0x00b3
                           0000B3   365 G$P1S$0_0$0 == 0x00b3
                           0000B3   366 _P1S	=	0x00b3
                           0000B4   367 G$P1M2$0_0$0 == 0x00b4
                           0000B4   368 _P1M2	=	0x00b4
                           0000B4   369 G$P1SR$0_0$0 == 0x00b4
                           0000B4   370 _P1SR	=	0x00b4
                           0000B5   371 G$P2S$0_0$0 == 0x00b5
                           0000B5   372 _P2S	=	0x00b5
                           0000B7   373 G$IPH$0_0$0 == 0x00b7
                           0000B7   374 _IPH	=	0x00b7
                           0000B7   375 G$PWMINTC$0_0$0 == 0x00b7
                           0000B7   376 _PWMINTC	=	0x00b7
                           0000B8   377 G$IP$0_0$0 == 0x00b8
                           0000B8   378 _IP	=	0x00b8
                           0000B9   379 G$SADEN$0_0$0 == 0x00b9
                           0000B9   380 _SADEN	=	0x00b9
                           0000BA   381 G$SADEN_1$0_0$0 == 0x00ba
                           0000BA   382 _SADEN_1	=	0x00ba
                           0000BB   383 G$SADDR_1$0_0$0 == 0x00bb
                           0000BB   384 _SADDR_1	=	0x00bb
                           0000BC   385 G$I2DAT$0_0$0 == 0x00bc
                           0000BC   386 _I2DAT	=	0x00bc
                           0000BD   387 G$I2STAT$0_0$0 == 0x00bd
                           0000BD   388 _I2STAT	=	0x00bd
                           0000BE   389 G$I2CLK$0_0$0 == 0x00be
                           0000BE   390 _I2CLK	=	0x00be
                           0000BF   391 G$I2TOC$0_0$0 == 0x00bf
                           0000BF   392 _I2TOC	=	0x00bf
                           0000C0   393 G$I2CON$0_0$0 == 0x00c0
                           0000C0   394 _I2CON	=	0x00c0
                           0000C1   395 G$I2ADDR$0_0$0 == 0x00c1
                           0000C1   396 _I2ADDR	=	0x00c1
                           0000C2   397 G$ADCRL$0_0$0 == 0x00c2
                           0000C2   398 _ADCRL	=	0x00c2
                           0000C3   399 G$ADCRH$0_0$0 == 0x00c3
                           0000C3   400 _ADCRH	=	0x00c3
                           0000C4   401 G$T3CON$0_0$0 == 0x00c4
                           0000C4   402 _T3CON	=	0x00c4
                           0000C4   403 G$PWM4H$0_0$0 == 0x00c4
                           0000C4   404 _PWM4H	=	0x00c4
                           0000C5   405 G$RL3$0_0$0 == 0x00c5
                           0000C5   406 _RL3	=	0x00c5
                           0000C5   407 G$PWM5H$0_0$0 == 0x00c5
                           0000C5   408 _PWM5H	=	0x00c5
                           0000C6   409 G$RH3$0_0$0 == 0x00c6
                           0000C6   410 _RH3	=	0x00c6
                           0000C6   411 G$PIOCON1$0_0$0 == 0x00c6
                           0000C6   412 _PIOCON1	=	0x00c6
                           0000C7   413 G$TA$0_0$0 == 0x00c7
                           0000C7   414 _TA	=	0x00c7
                           0000C8   415 G$T2CON$0_0$0 == 0x00c8
                           0000C8   416 _T2CON	=	0x00c8
                           0000C9   417 G$T2MOD$0_0$0 == 0x00c9
                           0000C9   418 _T2MOD	=	0x00c9
                           0000CA   419 G$RCMP2L$0_0$0 == 0x00ca
                           0000CA   420 _RCMP2L	=	0x00ca
                           0000CB   421 G$RCMP2H$0_0$0 == 0x00cb
                           0000CB   422 _RCMP2H	=	0x00cb
                           0000CC   423 G$TL2$0_0$0 == 0x00cc
                           0000CC   424 _TL2	=	0x00cc
                           0000CC   425 G$PWM4L$0_0$0 == 0x00cc
                           0000CC   426 _PWM4L	=	0x00cc
                           0000CD   427 G$TH2$0_0$0 == 0x00cd
                           0000CD   428 _TH2	=	0x00cd
                           0000CD   429 G$PWM5L$0_0$0 == 0x00cd
                           0000CD   430 _PWM5L	=	0x00cd
                           0000CE   431 G$ADCMPL$0_0$0 == 0x00ce
                           0000CE   432 _ADCMPL	=	0x00ce
                           0000CF   433 G$ADCMPH$0_0$0 == 0x00cf
                           0000CF   434 _ADCMPH	=	0x00cf
                           0000D0   435 G$PSW$0_0$0 == 0x00d0
                           0000D0   436 _PSW	=	0x00d0
                           0000D1   437 G$PWMPH$0_0$0 == 0x00d1
                           0000D1   438 _PWMPH	=	0x00d1
                           0000D2   439 G$PWM0H$0_0$0 == 0x00d2
                           0000D2   440 _PWM0H	=	0x00d2
                           0000D3   441 G$PWM1H$0_0$0 == 0x00d3
                           0000D3   442 _PWM1H	=	0x00d3
                           0000D4   443 G$PWM2H$0_0$0 == 0x00d4
                           0000D4   444 _PWM2H	=	0x00d4
                           0000D5   445 G$PWM3H$0_0$0 == 0x00d5
                           0000D5   446 _PWM3H	=	0x00d5
                           0000D6   447 G$PNP$0_0$0 == 0x00d6
                           0000D6   448 _PNP	=	0x00d6
                           0000D7   449 G$FBD$0_0$0 == 0x00d7
                           0000D7   450 _FBD	=	0x00d7
                           0000D8   451 G$PWMCON0$0_0$0 == 0x00d8
                           0000D8   452 _PWMCON0	=	0x00d8
                           0000D9   453 G$PWMPL$0_0$0 == 0x00d9
                           0000D9   454 _PWMPL	=	0x00d9
                           0000DA   455 G$PWM0L$0_0$0 == 0x00da
                           0000DA   456 _PWM0L	=	0x00da
                           0000DB   457 G$PWM1L$0_0$0 == 0x00db
                           0000DB   458 _PWM1L	=	0x00db
                           0000DC   459 G$PWM2L$0_0$0 == 0x00dc
                           0000DC   460 _PWM2L	=	0x00dc
                           0000DD   461 G$PWM3L$0_0$0 == 0x00dd
                           0000DD   462 _PWM3L	=	0x00dd
                           0000DE   463 G$PIOCON0$0_0$0 == 0x00de
                           0000DE   464 _PIOCON0	=	0x00de
                           0000DF   465 G$PWMCON1$0_0$0 == 0x00df
                           0000DF   466 _PWMCON1	=	0x00df
                           0000E0   467 G$ACC$0_0$0 == 0x00e0
                           0000E0   468 _ACC	=	0x00e0
                           0000E1   469 G$ADCCON1$0_0$0 == 0x00e1
                           0000E1   470 _ADCCON1	=	0x00e1
                           0000E2   471 G$ADCCON2$0_0$0 == 0x00e2
                           0000E2   472 _ADCCON2	=	0x00e2
                           0000E3   473 G$ADCDLY$0_0$0 == 0x00e3
                           0000E3   474 _ADCDLY	=	0x00e3
                           0000E4   475 G$C0L$0_0$0 == 0x00e4
                           0000E4   476 _C0L	=	0x00e4
                           0000E5   477 G$C0H$0_0$0 == 0x00e5
                           0000E5   478 _C0H	=	0x00e5
                           0000E6   479 G$C1L$0_0$0 == 0x00e6
                           0000E6   480 _C1L	=	0x00e6
                           0000E7   481 G$C1H$0_0$0 == 0x00e7
                           0000E7   482 _C1H	=	0x00e7
                           0000E8   483 G$ADCCON0$0_0$0 == 0x00e8
                           0000E8   484 _ADCCON0	=	0x00e8
                           0000E9   485 G$PICON$0_0$0 == 0x00e9
                           0000E9   486 _PICON	=	0x00e9
                           0000EA   487 G$PINEN$0_0$0 == 0x00ea
                           0000EA   488 _PINEN	=	0x00ea
                           0000EB   489 G$PIPEN$0_0$0 == 0x00eb
                           0000EB   490 _PIPEN	=	0x00eb
                           0000EC   491 G$PIF$0_0$0 == 0x00ec
                           0000EC   492 _PIF	=	0x00ec
                           0000ED   493 G$C2L$0_0$0 == 0x00ed
                           0000ED   494 _C2L	=	0x00ed
                           0000EE   495 G$C2H$0_0$0 == 0x00ee
                           0000EE   496 _C2H	=	0x00ee
                           0000EF   497 G$EIP$0_0$0 == 0x00ef
                           0000EF   498 _EIP	=	0x00ef
                           0000F0   499 G$B$0_0$0 == 0x00f0
                           0000F0   500 _B	=	0x00f0
                           0000F1   501 G$CAPCON3$0_0$0 == 0x00f1
                           0000F1   502 _CAPCON3	=	0x00f1
                           0000F2   503 G$CAPCON4$0_0$0 == 0x00f2
                           0000F2   504 _CAPCON4	=	0x00f2
                           0000F3   505 G$SPCR$0_0$0 == 0x00f3
                           0000F3   506 _SPCR	=	0x00f3
                           0000F3   507 G$SPCR2$0_0$0 == 0x00f3
                           0000F3   508 _SPCR2	=	0x00f3
                           0000F4   509 G$SPSR$0_0$0 == 0x00f4
                           0000F4   510 _SPSR	=	0x00f4
                           0000F5   511 G$SPDR$0_0$0 == 0x00f5
                           0000F5   512 _SPDR	=	0x00f5
                           0000F6   513 G$AINDIDS$0_0$0 == 0x00f6
                           0000F6   514 _AINDIDS	=	0x00f6
                           0000F7   515 G$EIPH$0_0$0 == 0x00f7
                           0000F7   516 _EIPH	=	0x00f7
                           0000F8   517 G$SCON_1$0_0$0 == 0x00f8
                           0000F8   518 _SCON_1	=	0x00f8
                           0000F9   519 G$PDTEN$0_0$0 == 0x00f9
                           0000F9   520 _PDTEN	=	0x00f9
                           0000FA   521 G$PDTCNT$0_0$0 == 0x00fa
                           0000FA   522 _PDTCNT	=	0x00fa
                           0000FB   523 G$PMEN$0_0$0 == 0x00fb
                           0000FB   524 _PMEN	=	0x00fb
                           0000FC   525 G$PMD$0_0$0 == 0x00fc
                           0000FC   526 _PMD	=	0x00fc
                           0000FE   527 G$EIP1$0_0$0 == 0x00fe
                           0000FE   528 _EIP1	=	0x00fe
                           0000FF   529 G$EIPH1$0_0$0 == 0x00ff
                           0000FF   530 _EIPH1	=	0x00ff
                                    531 ;--------------------------------------------------------
                                    532 ; special function bits
                                    533 ;--------------------------------------------------------
                                    534 	.area RSEG    (ABS,DATA)
      000000                        535 	.org 0x0000
                           0000FF   536 G$SM0_1$0_0$0 == 0x00ff
                           0000FF   537 _SM0_1	=	0x00ff
                           0000FF   538 G$FE_1$0_0$0 == 0x00ff
                           0000FF   539 _FE_1	=	0x00ff
                           0000FE   540 G$SM1_1$0_0$0 == 0x00fe
                           0000FE   541 _SM1_1	=	0x00fe
                           0000FD   542 G$SM2_1$0_0$0 == 0x00fd
                           0000FD   543 _SM2_1	=	0x00fd
                           0000FC   544 G$REN_1$0_0$0 == 0x00fc
                           0000FC   545 _REN_1	=	0x00fc
                           0000FB   546 G$TB8_1$0_0$0 == 0x00fb
                           0000FB   547 _TB8_1	=	0x00fb
                           0000FA   548 G$RB8_1$0_0$0 == 0x00fa
                           0000FA   549 _RB8_1	=	0x00fa
                           0000F9   550 G$TI_1$0_0$0 == 0x00f9
                           0000F9   551 _TI_1	=	0x00f9
                           0000F8   552 G$RI_1$0_0$0 == 0x00f8
                           0000F8   553 _RI_1	=	0x00f8
                           0000EF   554 G$ADCF$0_0$0 == 0x00ef
                           0000EF   555 _ADCF	=	0x00ef
                           0000EE   556 G$ADCS$0_0$0 == 0x00ee
                           0000EE   557 _ADCS	=	0x00ee
                           0000ED   558 G$ETGSEL1$0_0$0 == 0x00ed
                           0000ED   559 _ETGSEL1	=	0x00ed
                           0000EC   560 G$ETGSEL0$0_0$0 == 0x00ec
                           0000EC   561 _ETGSEL0	=	0x00ec
                           0000EB   562 G$ADCHS3$0_0$0 == 0x00eb
                           0000EB   563 _ADCHS3	=	0x00eb
                           0000EA   564 G$ADCHS2$0_0$0 == 0x00ea
                           0000EA   565 _ADCHS2	=	0x00ea
                           0000E9   566 G$ADCHS1$0_0$0 == 0x00e9
                           0000E9   567 _ADCHS1	=	0x00e9
                           0000E8   568 G$ADCHS0$0_0$0 == 0x00e8
                           0000E8   569 _ADCHS0	=	0x00e8
                           0000DF   570 G$PWMRUN$0_0$0 == 0x00df
                           0000DF   571 _PWMRUN	=	0x00df
                           0000DE   572 G$LOAD$0_0$0 == 0x00de
                           0000DE   573 _LOAD	=	0x00de
                           0000DD   574 G$PWMF$0_0$0 == 0x00dd
                           0000DD   575 _PWMF	=	0x00dd
                           0000DC   576 G$CLRPWM$0_0$0 == 0x00dc
                           0000DC   577 _CLRPWM	=	0x00dc
                           0000D7   578 G$CY$0_0$0 == 0x00d7
                           0000D7   579 _CY	=	0x00d7
                           0000D6   580 G$AC$0_0$0 == 0x00d6
                           0000D6   581 _AC	=	0x00d6
                           0000D5   582 G$F0$0_0$0 == 0x00d5
                           0000D5   583 _F0	=	0x00d5
                           0000D4   584 G$RS1$0_0$0 == 0x00d4
                           0000D4   585 _RS1	=	0x00d4
                           0000D3   586 G$RS0$0_0$0 == 0x00d3
                           0000D3   587 _RS0	=	0x00d3
                           0000D2   588 G$OV$0_0$0 == 0x00d2
                           0000D2   589 _OV	=	0x00d2
                           0000D0   590 G$P$0_0$0 == 0x00d0
                           0000D0   591 _P	=	0x00d0
                           0000CF   592 G$TF2$0_0$0 == 0x00cf
                           0000CF   593 _TF2	=	0x00cf
                           0000CA   594 G$TR2$0_0$0 == 0x00ca
                           0000CA   595 _TR2	=	0x00ca
                           0000C8   596 G$CM_RL2$0_0$0 == 0x00c8
                           0000C8   597 _CM_RL2	=	0x00c8
                           0000C6   598 G$I2CEN$0_0$0 == 0x00c6
                           0000C6   599 _I2CEN	=	0x00c6
                           0000C5   600 G$STA$0_0$0 == 0x00c5
                           0000C5   601 _STA	=	0x00c5
                           0000C4   602 G$STO$0_0$0 == 0x00c4
                           0000C4   603 _STO	=	0x00c4
                           0000C3   604 G$SI$0_0$0 == 0x00c3
                           0000C3   605 _SI	=	0x00c3
                           0000C2   606 G$AA$0_0$0 == 0x00c2
                           0000C2   607 _AA	=	0x00c2
                           0000C0   608 G$I2CPX$0_0$0 == 0x00c0
                           0000C0   609 _I2CPX	=	0x00c0
                           0000BE   610 G$PADC$0_0$0 == 0x00be
                           0000BE   611 _PADC	=	0x00be
                           0000BD   612 G$PBOD$0_0$0 == 0x00bd
                           0000BD   613 _PBOD	=	0x00bd
                           0000BC   614 G$PS$0_0$0 == 0x00bc
                           0000BC   615 _PS	=	0x00bc
                           0000BB   616 G$PT1$0_0$0 == 0x00bb
                           0000BB   617 _PT1	=	0x00bb
                           0000BA   618 G$PX1$0_0$0 == 0x00ba
                           0000BA   619 _PX1	=	0x00ba
                           0000B9   620 G$PT0$0_0$0 == 0x00b9
                           0000B9   621 _PT0	=	0x00b9
                           0000B8   622 G$PX0$0_0$0 == 0x00b8
                           0000B8   623 _PX0	=	0x00b8
                           0000B0   624 G$P30$0_0$0 == 0x00b0
                           0000B0   625 _P30	=	0x00b0
                           0000AF   626 G$EA$0_0$0 == 0x00af
                           0000AF   627 _EA	=	0x00af
                           0000AE   628 G$EADC$0_0$0 == 0x00ae
                           0000AE   629 _EADC	=	0x00ae
                           0000AD   630 G$EBOD$0_0$0 == 0x00ad
                           0000AD   631 _EBOD	=	0x00ad
                           0000AC   632 G$ES$0_0$0 == 0x00ac
                           0000AC   633 _ES	=	0x00ac
                           0000AB   634 G$ET1$0_0$0 == 0x00ab
                           0000AB   635 _ET1	=	0x00ab
                           0000AA   636 G$EX1$0_0$0 == 0x00aa
                           0000AA   637 _EX1	=	0x00aa
                           0000A9   638 G$ET0$0_0$0 == 0x00a9
                           0000A9   639 _ET0	=	0x00a9
                           0000A8   640 G$EX0$0_0$0 == 0x00a8
                           0000A8   641 _EX0	=	0x00a8
                           0000A0   642 G$P20$0_0$0 == 0x00a0
                           0000A0   643 _P20	=	0x00a0
                           00009F   644 G$SM0$0_0$0 == 0x009f
                           00009F   645 _SM0	=	0x009f
                           00009F   646 G$FE$0_0$0 == 0x009f
                           00009F   647 _FE	=	0x009f
                           00009E   648 G$SM1$0_0$0 == 0x009e
                           00009E   649 _SM1	=	0x009e
                           00009D   650 G$SM2$0_0$0 == 0x009d
                           00009D   651 _SM2	=	0x009d
                           00009C   652 G$REN$0_0$0 == 0x009c
                           00009C   653 _REN	=	0x009c
                           00009B   654 G$TB8$0_0$0 == 0x009b
                           00009B   655 _TB8	=	0x009b
                           00009A   656 G$RB8$0_0$0 == 0x009a
                           00009A   657 _RB8	=	0x009a
                           000099   658 G$TI$0_0$0 == 0x0099
                           000099   659 _TI	=	0x0099
                           000098   660 G$RI$0_0$0 == 0x0098
                           000098   661 _RI	=	0x0098
                           000097   662 G$P17$0_0$0 == 0x0097
                           000097   663 _P17	=	0x0097
                           000096   664 G$P16$0_0$0 == 0x0096
                           000096   665 _P16	=	0x0096
                           000096   666 G$TXD_1$0_0$0 == 0x0096
                           000096   667 _TXD_1	=	0x0096
                           000095   668 G$P15$0_0$0 == 0x0095
                           000095   669 _P15	=	0x0095
                           000094   670 G$P14$0_0$0 == 0x0094
                           000094   671 _P14	=	0x0094
                           000094   672 G$SDA$0_0$0 == 0x0094
                           000094   673 _SDA	=	0x0094
                           000093   674 G$P13$0_0$0 == 0x0093
                           000093   675 _P13	=	0x0093
                           000093   676 G$SCL$0_0$0 == 0x0093
                           000093   677 _SCL	=	0x0093
                           000092   678 G$P12$0_0$0 == 0x0092
                           000092   679 _P12	=	0x0092
                           000091   680 G$P11$0_0$0 == 0x0091
                           000091   681 _P11	=	0x0091
                           000090   682 G$P10$0_0$0 == 0x0090
                           000090   683 _P10	=	0x0090
                           00008F   684 G$TF1$0_0$0 == 0x008f
                           00008F   685 _TF1	=	0x008f
                           00008E   686 G$TR1$0_0$0 == 0x008e
                           00008E   687 _TR1	=	0x008e
                           00008D   688 G$TF0$0_0$0 == 0x008d
                           00008D   689 _TF0	=	0x008d
                           00008C   690 G$TR0$0_0$0 == 0x008c
                           00008C   691 _TR0	=	0x008c
                           00008B   692 G$IE1$0_0$0 == 0x008b
                           00008B   693 _IE1	=	0x008b
                           00008A   694 G$IT1$0_0$0 == 0x008a
                           00008A   695 _IT1	=	0x008a
                           000089   696 G$IE0$0_0$0 == 0x0089
                           000089   697 _IE0	=	0x0089
                           000088   698 G$IT0$0_0$0 == 0x0088
                           000088   699 _IT0	=	0x0088
                           000087   700 G$P07$0_0$0 == 0x0087
                           000087   701 _P07	=	0x0087
                           000087   702 G$RXD$0_0$0 == 0x0087
                           000087   703 _RXD	=	0x0087
                           000086   704 G$P06$0_0$0 == 0x0086
                           000086   705 _P06	=	0x0086
                           000086   706 G$TXD$0_0$0 == 0x0086
                           000086   707 _TXD	=	0x0086
                           000085   708 G$P05$0_0$0 == 0x0085
                           000085   709 _P05	=	0x0085
                           000084   710 G$P04$0_0$0 == 0x0084
                           000084   711 _P04	=	0x0084
                           000084   712 G$STADC$0_0$0 == 0x0084
                           000084   713 _STADC	=	0x0084
                           000083   714 G$P03$0_0$0 == 0x0083
                           000083   715 _P03	=	0x0083
                           000082   716 G$P02$0_0$0 == 0x0082
                           000082   717 _P02	=	0x0082
                           000082   718 G$RXD_1$0_0$0 == 0x0082
                           000082   719 _RXD_1	=	0x0082
                           000081   720 G$P01$0_0$0 == 0x0081
                           000081   721 _P01	=	0x0081
                           000081   722 G$MISO$0_0$0 == 0x0081
                           000081   723 _MISO	=	0x0081
                           000080   724 G$P00$0_0$0 == 0x0080
                           000080   725 _P00	=	0x0080
                           000080   726 G$MOSI$0_0$0 == 0x0080
                           000080   727 _MOSI	=	0x0080
                                    728 ;--------------------------------------------------------
                                    729 ; overlayable register banks
                                    730 ;--------------------------------------------------------
                                    731 	.area REG_BANK_0	(REL,OVR,DATA)
      000000                        732 	.ds 8
                                    733 ;--------------------------------------------------------
                                    734 ; internal ram data
                                    735 ;--------------------------------------------------------
                                    736 	.area DSEG    (DATA)
                                    737 ;--------------------------------------------------------
                                    738 ; internal ram data
                                    739 ;--------------------------------------------------------
                                    740 	.area INITIALIZED
                                    741 ;--------------------------------------------------------
                                    742 ; overlayable items in internal ram
                                    743 ;--------------------------------------------------------
                                    744 ;--------------------------------------------------------
                                    745 ; Stack segment in internal ram
                                    746 ;--------------------------------------------------------
                                    747 	.area SSEG
      000040                        748 __start__stack:
      000040                        749 	.ds	1
                                    750 
                                    751 ;--------------------------------------------------------
                                    752 ; indirectly addressable internal ram data
                                    753 ;--------------------------------------------------------
                                    754 	.area ISEG    (DATA)
                                    755 ;--------------------------------------------------------
                                    756 ; absolute internal ram data
                                    757 ;--------------------------------------------------------
                                    758 	.area IABS    (ABS,DATA)
                                    759 	.area IABS    (ABS,DATA)
                                    760 ;--------------------------------------------------------
                                    761 ; bit data
                                    762 ;--------------------------------------------------------
                                    763 	.area BSEG    (BIT)
                                    764 ;--------------------------------------------------------
                                    765 ; paged external ram data
                                    766 ;--------------------------------------------------------
                                    767 	.area PSEG    (PAG,XDATA)
                                    768 ;--------------------------------------------------------
                                    769 ; uninitialized external ram data
                                    770 ;--------------------------------------------------------
                                    771 	.area XSEG    (XDATA)
                           000000   772 Lmain.UART1_ISR$vo8temp$1_0$162==.
      000081                        773 _UART1_ISR_vo8temp_65536_162:
      000081                        774 	.ds 1
                           000001   775 Lmain.main$vo16temp$1_0$174==.
      000082                        776 _main_vo16temp_65536_174:
      000082                        777 	.ds 2
                                    778 ;--------------------------------------------------------
                                    779 ; absolute external ram data
                                    780 ;--------------------------------------------------------
                                    781 	.area XABS    (ABS,XDATA)
                                    782 ;--------------------------------------------------------
                                    783 ; initialized external ram data
                                    784 ;--------------------------------------------------------
                                    785 	.area XISEG   (XDATA)
                                    786 	.area HOME    (CODE)
                                    787 	.area GSINIT0 (CODE)
                                    788 	.area GSINIT1 (CODE)
                                    789 	.area GSINIT2 (CODE)
                                    790 	.area GSINIT3 (CODE)
                                    791 	.area GSINIT4 (CODE)
                                    792 	.area GSINIT5 (CODE)
                                    793 	.area GSINIT  (CODE)
                                    794 	.area GSFINAL (CODE)
                                    795 	.area CSEG    (CODE)
                                    796 ;--------------------------------------------------------
                                    797 ; interrupt vector
                                    798 ;--------------------------------------------------------
                                    799 	.area HOME    (CODE)
      000000                        800 __interrupt_vect:
      000000 02 00 81         [24]  801 	ljmp	__sdcc_gsinit_startup
      000003 32               [24]  802 	reti
      000004                        803 	.ds	7
      00000B 02 03 B2         [24]  804 	ljmp	_Timer0_ISR
      00000E                        805 	.ds	5
      000013 32               [24]  806 	reti
      000014                        807 	.ds	7
      00001B 32               [24]  808 	reti
      00001C                        809 	.ds	7
      000023 32               [24]  810 	reti
      000024                        811 	.ds	7
      00002B 32               [24]  812 	reti
      00002C                        813 	.ds	7
      000033 32               [24]  814 	reti
      000034                        815 	.ds	7
      00003B 32               [24]  816 	reti
      00003C                        817 	.ds	7
      000043 32               [24]  818 	reti
      000044                        819 	.ds	7
      00004B 32               [24]  820 	reti
      00004C                        821 	.ds	7
      000053 32               [24]  822 	reti
      000054                        823 	.ds	7
      00005B 32               [24]  824 	reti
      00005C                        825 	.ds	7
      000063 32               [24]  826 	reti
      000064                        827 	.ds	7
      00006B 32               [24]  828 	reti
      00006C                        829 	.ds	7
      000073 32               [24]  830 	reti
      000074                        831 	.ds	7
      00007B 02 03 51         [24]  832 	ljmp	_UART1_ISR
                                    833 ;--------------------------------------------------------
                                    834 ; global & static initialisations
                                    835 ;--------------------------------------------------------
                                    836 	.area HOME    (CODE)
                                    837 	.area GSINIT  (CODE)
                                    838 	.area GSFINAL (CODE)
                                    839 	.area GSINIT  (CODE)
                                    840 	.globl __sdcc_gsinit_startup
                                    841 	.globl __sdcc_program_startup
                                    842 	.globl __start__stack
                                    843 	.globl __mcs51_genXINIT
                                    844 	.globl __mcs51_genXRAMCLEAR
                                    845 	.globl __mcs51_genRAMCLEAR
                                    846 	.area GSFINAL (CODE)
      0000DA 02 00 7E         [24]  847 	ljmp	__sdcc_program_startup
                                    848 ;--------------------------------------------------------
                                    849 ; Home
                                    850 ;--------------------------------------------------------
                                    851 	.area HOME    (CODE)
                                    852 	.area HOME    (CODE)
      00007E                        853 __sdcc_program_startup:
      00007E 02 03 F1         [24]  854 	ljmp	_main
                                    855 ;	return from main will return to caller
                                    856 ;--------------------------------------------------------
                                    857 ; code
                                    858 ;--------------------------------------------------------
                                    859 	.area CSEG    (CODE)
                                    860 ;------------------------------------------------------------
                                    861 ;Allocation info for local variables in function 'UART1_ISR'
                                    862 ;------------------------------------------------------------
                                    863 ;vo8temp                   Allocated with name '_UART1_ISR_vo8temp_65536_162'
                                    864 ;------------------------------------------------------------
                           000000   865 	Smain$UART1_ISR$0 ==.
                                    866 ;	C:/BSP/MG51xC9AE_MG51xB9AE_Series/SampleCode/ISP/ISP_UART1/main.c:22: void UART1_ISR(void) __interrupt (15)
                                    867 ;	-----------------------------------------
                                    868 ;	 function UART1_ISR
                                    869 ;	-----------------------------------------
      000351                        870 _UART1_ISR:
                           000007   871 	ar7 = 0x07
                           000006   872 	ar6 = 0x06
                           000005   873 	ar5 = 0x05
                           000004   874 	ar4 = 0x04
                           000003   875 	ar3 = 0x03
                           000002   876 	ar2 = 0x02
                           000001   877 	ar1 = 0x01
                           000000   878 	ar0 = 0x00
      000351 C0 E0            [24]  879 	push	acc
      000353 C0 82            [24]  880 	push	dpl
      000355 C0 83            [24]  881 	push	dph
      000357 C0 07            [24]  882 	push	ar7
      000359 C0 06            [24]  883 	push	ar6
      00035B C0 05            [24]  884 	push	ar5
      00035D C0 D0            [24]  885 	push	psw
      00035F 75 D0 00         [24]  886 	mov	psw,#0x00
                           000011   887 	Smain$UART1_ISR$1 ==.
                           000011   888 	Smain$UART1_ISR$2 ==.
                                    889 ;	C:/BSP/MG51xC9AE_MG51xB9AE_Series/SampleCode/ISP/ISP_UART1/main.c:27: SFRS=0;
      000362 75 91 00         [24]  890 	mov	_SFRS,#0x00
                           000014   891 	Smain$UART1_ISR$3 ==.
                                    892 ;	C:/BSP/MG51xC9AE_MG51xB9AE_Series/SampleCode/ISP/ISP_UART1/main.c:28: if (RI_1 == 1)
      000365 30 F8 1D         [24]  893 	jnb	_RI_1,00102$
                           000017   894 	Smain$UART1_ISR$4 ==.
                           000017   895 	Smain$UART1_ISR$5 ==.
                                    896 ;	C:/BSP/MG51xC9AE_MG51xB9AE_Series/SampleCode/ISP/ISP_UART1/main.c:30: vo8temp =  SBUF_1; 
      000368 90 00 81         [24]  897 	mov	dptr,#_UART1_ISR_vo8temp_65536_162
      00036B E5 9A            [12]  898 	mov	a,_SBUF_1
      00036D F0               [24]  899 	movx	@dptr,a
                           00001D   900 	Smain$UART1_ISR$6 ==.
                                    901 ;	C:/BSP/MG51xC9AE_MG51xB9AE_Series/SampleCode/ISP/ISP_UART1/main.c:31: uart_rcvbuf[bufhead++] = vo8temp;
      00036E E5 21            [12]  902 	mov	a,_bufhead
      000370 FF               [12]  903 	mov	r7,a
      000371 04               [12]  904 	inc	a
      000372 F5 21            [12]  905 	mov	_bufhead,a
      000374 EF               [12]  906 	mov	a,r7
      000375 24 01            [12]  907 	add	a,#_uart_rcvbuf
      000377 FF               [12]  908 	mov	r7,a
      000378 E4               [12]  909 	clr	a
      000379 34 00            [12]  910 	addc	a,#(_uart_rcvbuf >> 8)
      00037B FE               [12]  911 	mov	r6,a
      00037C E0               [24]  912 	movx	a,@dptr
      00037D FD               [12]  913 	mov	r5,a
      00037E 8F 82            [24]  914 	mov	dpl,r7
      000380 8E 83            [24]  915 	mov	dph,r6
      000382 F0               [24]  916 	movx	@dptr,a
                           000032   917 	Smain$UART1_ISR$7 ==.
                                    918 ;	C:/BSP/MG51xC9AE_MG51xB9AE_Series/SampleCode/ISP/ISP_UART1/main.c:32: clr_SCON_1_RI_1;                                         // Clear RI (Receive Interrupt).
                                    919 ;	assignBit
      000383 C2 F8            [12]  920 	clr	_RI_1
                           000034   921 	Smain$UART1_ISR$8 ==.
      000385                        922 00102$:
                           000034   923 	Smain$UART1_ISR$9 ==.
                                    924 ;	C:/BSP/MG51xC9AE_MG51xB9AE_Series/SampleCode/ISP/ISP_UART1/main.c:34: if (TI_1 == 1)
                           000034   925 	Smain$UART1_ISR$10 ==.
                           000034   926 	Smain$UART1_ISR$11 ==.
                                    927 ;	C:/BSP/MG51xC9AE_MG51xB9AE_Series/SampleCode/ISP/ISP_UART1/main.c:36: clr_SCON_1_TI_1;                                         // Clear TI (Transmit Interrupt).
                                    928 ;	assignBit
      000385 10 F9 02         [24]  929 	jbc	_TI_1,00128$
      000388 80 00            [24]  930 	sjmp	00104$
      00038A                        931 00128$:
                           000039   932 	Smain$UART1_ISR$12 ==.
      00038A                        933 00104$:
                           000039   934 	Smain$UART1_ISR$13 ==.
                                    935 ;	C:/BSP/MG51xC9AE_MG51xB9AE_Series/SampleCode/ISP/ISP_UART1/main.c:38: if(bufhead ==1)
      00038A 74 01            [12]  936 	mov	a,#0x01
      00038C B5 21 05         [24]  937 	cjne	a,_bufhead,00106$
                           00003E   938 	Smain$UART1_ISR$14 ==.
                           00003E   939 	Smain$UART1_ISR$15 ==.
                                    940 ;	C:/BSP/MG51xC9AE_MG51xB9AE_Series/SampleCode/ISP/ISP_UART1/main.c:40: g_timer1Over=0;
                                    941 ;	assignBit
      00038F C2 02            [12]  942 	clr	_g_timer1Over
                           000040   943 	Smain$UART1_ISR$16 ==.
                                    944 ;	C:/BSP/MG51xC9AE_MG51xB9AE_Series/SampleCode/ISP/ISP_UART1/main.c:41: g_timer1Counter=90; //for check uart timeout using
      000391 75 26 5A         [24]  945 	mov	_g_timer1Counter,#0x5a
                           000043   946 	Smain$UART1_ISR$17 ==.
      000394                        947 00106$:
                           000043   948 	Smain$UART1_ISR$18 ==.
                                    949 ;	C:/BSP/MG51xC9AE_MG51xB9AE_Series/SampleCode/ISP/ISP_UART1/main.c:43: if(bufhead == 64)
      000394 74 40            [12]  950 	mov	a,#0x40
      000396 B5 21 0A         [24]  951 	cjne	a,_bufhead,00109$
                           000048   952 	Smain$UART1_ISR$19 ==.
                           000048   953 	Smain$UART1_ISR$20 ==.
                                    954 ;	C:/BSP/MG51xC9AE_MG51xB9AE_Series/SampleCode/ISP/ISP_UART1/main.c:45: bUartDataReady = TRUE;
                                    955 ;	assignBit
      000399 D2 00            [12]  956 	setb	_bUartDataReady
                           00004A   957 	Smain$UART1_ISR$21 ==.
                                    958 ;	C:/BSP/MG51xC9AE_MG51xB9AE_Series/SampleCode/ISP/ISP_UART1/main.c:46: g_timer1Counter=0;
      00039B 75 26 00         [24]  959 	mov	_g_timer1Counter,#0x00
                           00004D   960 	Smain$UART1_ISR$22 ==.
                                    961 ;	C:/BSP/MG51xC9AE_MG51xB9AE_Series/SampleCode/ISP/ISP_UART1/main.c:47: g_timer1Over=0;
                                    962 ;	assignBit
      00039E C2 02            [12]  963 	clr	_g_timer1Over
                           00004F   964 	Smain$UART1_ISR$23 ==.
                                    965 ;	C:/BSP/MG51xC9AE_MG51xB9AE_Series/SampleCode/ISP/ISP_UART1/main.c:48: bufhead = 0;
      0003A0 75 21 00         [24]  966 	mov	_bufhead,#0x00
                           000052   967 	Smain$UART1_ISR$24 ==.
      0003A3                        968 00109$:
                           000052   969 	Smain$UART1_ISR$25 ==.
                                    970 ;	C:/BSP/MG51xC9AE_MG51xB9AE_Series/SampleCode/ISP/ISP_UART1/main.c:50: }
      0003A3 D0 D0            [24]  971 	pop	psw
      0003A5 D0 05            [24]  972 	pop	ar5
      0003A7 D0 06            [24]  973 	pop	ar6
      0003A9 D0 07            [24]  974 	pop	ar7
      0003AB D0 83            [24]  975 	pop	dph
      0003AD D0 82            [24]  976 	pop	dpl
      0003AF D0 E0            [24]  977 	pop	acc
                           000060   978 	Smain$UART1_ISR$26 ==.
                           000060   979 	XG$UART1_ISR$0$0 ==.
      0003B1 32               [24]  980 	reti
                                    981 ;	eliminated unneeded push/pop b
                           000061   982 	Smain$UART1_ISR$27 ==.
                                    983 ;------------------------------------------------------------
                                    984 ;Allocation info for local variables in function 'Timer0_ISR'
                                    985 ;------------------------------------------------------------
                           000061   986 	Smain$Timer0_ISR$28 ==.
                                    987 ;	C:/BSP/MG51xC9AE_MG51xB9AE_Series/SampleCode/ISP/ISP_UART1/main.c:63: void Timer0_ISR (void) __interrupt (1)
                                    988 ;	-----------------------------------------
                                    989 ;	 function Timer0_ISR
                                    990 ;	-----------------------------------------
      0003B2                        991 _Timer0_ISR:
      0003B2 C0 E0            [24]  992 	push	acc
      0003B4 C0 07            [24]  993 	push	ar7
      0003B6 C0 06            [24]  994 	push	ar6
      0003B8 C0 D0            [24]  995 	push	psw
      0003BA 75 D0 00         [24]  996 	mov	psw,#0x00
                           00006C   997 	Smain$Timer0_ISR$29 ==.
                           00006C   998 	Smain$Timer0_ISR$30 ==.
                                    999 ;	C:/BSP/MG51xC9AE_MG51xB9AE_Series/SampleCode/ISP/ISP_UART1/main.c:67: if(g_timer0Counter)
      0003BD E5 28            [12] 1000 	mov	a,_g_timer0Counter
      0003BF 45 29            [12] 1001 	orl	a,(_g_timer0Counter + 1)
      0003C1 60 16            [24] 1002 	jz	00104$
                           000072  1003 	Smain$Timer0_ISR$31 ==.
                           000072  1004 	Smain$Timer0_ISR$32 ==.
                                   1005 ;	C:/BSP/MG51xC9AE_MG51xB9AE_Series/SampleCode/ISP/ISP_UART1/main.c:69: g_timer0Counter--;
      0003C3 AE 28            [24] 1006 	mov	r6,_g_timer0Counter
      0003C5 AF 29            [24] 1007 	mov	r7,(_g_timer0Counter + 1)
      0003C7 EE               [12] 1008 	mov	a,r6
      0003C8 24 FF            [12] 1009 	add	a,#0xff
      0003CA F5 28            [12] 1010 	mov	_g_timer0Counter,a
      0003CC EF               [12] 1011 	mov	a,r7
      0003CD 34 FF            [12] 1012 	addc	a,#0xff
      0003CF F5 29            [12] 1013 	mov	(_g_timer0Counter + 1),a
                           000080  1014 	Smain$Timer0_ISR$33 ==.
                                   1015 ;	C:/BSP/MG51xC9AE_MG51xB9AE_Series/SampleCode/ISP/ISP_UART1/main.c:70: if(!g_timer0Counter)
      0003D1 E5 28            [12] 1016 	mov	a,_g_timer0Counter
      0003D3 45 29            [12] 1017 	orl	a,(_g_timer0Counter + 1)
      0003D5 70 02            [24] 1018 	jnz	00104$
                           000086  1019 	Smain$Timer0_ISR$34 ==.
                           000086  1020 	Smain$Timer0_ISR$35 ==.
                                   1021 ;	C:/BSP/MG51xC9AE_MG51xB9AE_Series/SampleCode/ISP/ISP_UART1/main.c:72: g_timer0Over=1;
                                   1022 ;	assignBit
      0003D7 D2 01            [12] 1023 	setb	_g_timer0Over
                           000088  1024 	Smain$Timer0_ISR$36 ==.
      0003D9                       1025 00104$:
                           000088  1026 	Smain$Timer0_ISR$37 ==.
                                   1027 ;	C:/BSP/MG51xC9AE_MG51xB9AE_Series/SampleCode/ISP/ISP_UART1/main.c:76: if(g_timer1Counter)
      0003D9 E5 26            [12] 1028 	mov	a,_g_timer1Counter
      0003DB 60 0B            [24] 1029 	jz	00109$
                           00008C  1030 	Smain$Timer0_ISR$38 ==.
                           00008C  1031 	Smain$Timer0_ISR$39 ==.
                                   1032 ;	C:/BSP/MG51xC9AE_MG51xB9AE_Series/SampleCode/ISP/ISP_UART1/main.c:78: g_timer1Counter--;
      0003DD E5 26            [12] 1033 	mov	a,_g_timer1Counter
      0003DF 14               [12] 1034 	dec	a
      0003E0 F5 26            [12] 1035 	mov	_g_timer1Counter,a
                           000091  1036 	Smain$Timer0_ISR$40 ==.
                                   1037 ;	C:/BSP/MG51xC9AE_MG51xB9AE_Series/SampleCode/ISP/ISP_UART1/main.c:79: if(!g_timer1Counter)
      0003E2 E5 26            [12] 1038 	mov	a,_g_timer1Counter
      0003E4 70 02            [24] 1039 	jnz	00109$
                           000095  1040 	Smain$Timer0_ISR$41 ==.
                           000095  1041 	Smain$Timer0_ISR$42 ==.
                                   1042 ;	C:/BSP/MG51xC9AE_MG51xB9AE_Series/SampleCode/ISP/ISP_UART1/main.c:81: g_timer1Over=1;
                                   1043 ;	assignBit
      0003E6 D2 02            [12] 1044 	setb	_g_timer1Over
                           000097  1045 	Smain$Timer0_ISR$43 ==.
      0003E8                       1046 00109$:
                           000097  1047 	Smain$Timer0_ISR$44 ==.
                                   1048 ;	C:/BSP/MG51xC9AE_MG51xB9AE_Series/SampleCode/ISP/ISP_UART1/main.c:84: }
      0003E8 D0 D0            [24] 1049 	pop	psw
      0003EA D0 06            [24] 1050 	pop	ar6
      0003EC D0 07            [24] 1051 	pop	ar7
      0003EE D0 E0            [24] 1052 	pop	acc
                           00009F  1053 	Smain$Timer0_ISR$45 ==.
                           00009F  1054 	XG$Timer0_ISR$0$0 ==.
      0003F0 32               [24] 1055 	reti
                                   1056 ;	eliminated unneeded push/pop dpl
                                   1057 ;	eliminated unneeded push/pop dph
                                   1058 ;	eliminated unneeded push/pop b
                           0000A0  1059 	Smain$Timer0_ISR$46 ==.
                                   1060 ;------------------------------------------------------------
                                   1061 ;Allocation info for local variables in function 'main'
                                   1062 ;------------------------------------------------------------
                                   1063 ;vo8temp                   Allocated with name '_main_vo8temp_65536_174'
                                   1064 ;vo16temp                  Allocated with name '_main_vo16temp_65536_174'
                                   1065 ;------------------------------------------------------------
                           0000A0  1066 	Smain$main$47 ==.
                                   1067 ;	C:/BSP/MG51xC9AE_MG51xB9AE_Series/SampleCode/ISP/ISP_UART1/main.c:91: void main (void)
                                   1068 ;	-----------------------------------------
                                   1069 ;	 function main
                                   1070 ;	-----------------------------------------
      0003F1                       1071 _main:
                           0000A0  1072 	Smain$main$48 ==.
                           0000A0  1073 	Smain$main$49 ==.
                                   1074 ;	C:/BSP/MG51xC9AE_MG51xB9AE_Series/SampleCode/ISP/ISP_UART1/main.c:95: set_CHPCON_IAPEN;
                                   1075 ;	assignBit
      0003F1 A2 AF            [12] 1076 	mov	c,_EA
      0003F3 92 04            [24] 1077 	mov	_BIT_TMP,c
                                   1078 ;	assignBit
      0003F5 C2 AF            [12] 1079 	clr	_EA
      0003F7 75 C7 AA         [24] 1080 	mov	_TA,#0xaa
      0003FA 75 C7 55         [24] 1081 	mov	_TA,#0x55
      0003FD 43 9F 01         [24] 1082 	orl	_CHPCON,#0x01
                                   1083 ;	assignBit
      000400 A2 04            [12] 1084 	mov	c,_BIT_TMP
      000402 92 AF            [24] 1085 	mov	_EA,c
                           0000B3  1086 	Smain$main$50 ==.
                                   1087 ;	C:/BSP/MG51xC9AE_MG51xB9AE_Series/SampleCode/ISP/ISP_UART1/main.c:96: MODIFY_HIRC_24();
      000404 12 00 DD         [24] 1088 	lcall	_MODIFY_HIRC_24
                           0000B6  1089 	Smain$main$51 ==.
                                   1090 ;	C:/BSP/MG51xC9AE_MG51xB9AE_Series/SampleCode/ISP/ISP_UART1/main.c:97: UART1_ini_115200_24MHz();
      000407 12 02 70         [24] 1091 	lcall	_UART1_ini_115200_24MHz
                           0000B9  1092 	Smain$main$52 ==.
                                   1093 ;	C:/BSP/MG51xC9AE_MG51xB9AE_Series/SampleCode/ISP/ISP_UART1/main.c:99: TM0_ini();
      00040A 12 02 4F         [24] 1094 	lcall	_TM0_ini
                           0000BC  1095 	Smain$main$53 ==.
                                   1096 ;	C:/BSP/MG51xC9AE_MG51xB9AE_Series/SampleCode/ISP/ISP_UART1/main.c:101: g_timer0Over=0;
                                   1097 ;	assignBit
      00040D C2 01            [12] 1098 	clr	_g_timer0Over
                           0000BE  1099 	Smain$main$54 ==.
                                   1100 ;	C:/BSP/MG51xC9AE_MG51xB9AE_Series/SampleCode/ISP/ISP_UART1/main.c:102: g_timer0Counter=5000;
      00040F 75 28 88         [24] 1101 	mov	_g_timer0Counter,#0x88
      000412 75 29 13         [24] 1102 	mov	(_g_timer0Counter + 1),#0x13
                           0000C4  1103 	Smain$main$55 ==.
                                   1104 ;	C:/BSP/MG51xC9AE_MG51xB9AE_Series/SampleCode/ISP/ISP_UART1/main.c:103: g_progarmflag=0;
                                   1105 ;	assignBit
      000415 C2 03            [12] 1106 	clr	_g_progarmflag
                           0000C6  1107 	Smain$main$56 ==.
                                   1108 ;	C:/BSP/MG51xC9AE_MG51xB9AE_Series/SampleCode/ISP/ISP_UART1/main.c:105: while(1)
      000417                       1109 00154$:
                           0000C6  1110 	Smain$main$57 ==.
                           0000C6  1111 	Smain$main$58 ==.
                                   1112 ;	C:/BSP/MG51xC9AE_MG51xB9AE_Series/SampleCode/ISP/ISP_UART1/main.c:107: if(bUartDataReady == TRUE)
      000417 20 00 03         [24] 1113 	jb	_bUartDataReady,00294$
      00041A 02 08 15         [24] 1114 	ljmp	00144$
      00041D                       1115 00294$:
                           0000CC  1116 	Smain$main$59 ==.
                           0000CC  1117 	Smain$main$60 ==.
                                   1118 ;	C:/BSP/MG51xC9AE_MG51xB9AE_Series/SampleCode/ISP/ISP_UART1/main.c:109: EA=0; //DISABLE ALL INTERRUPT
                                   1119 ;	assignBit
      00041D C2 AF            [12] 1120 	clr	_EA
                           0000CE  1121 	Smain$main$61 ==.
                                   1122 ;	C:/BSP/MG51xC9AE_MG51xB9AE_Series/SampleCode/ISP/ISP_UART1/main.c:110: if(g_progarmflag==1)
      00041F 20 03 03         [24] 1123 	jb	_g_progarmflag,00295$
      000422 02 04 D9         [24] 1124 	ljmp	00116$
      000425                       1125 00295$:
                           0000D4  1126 	Smain$main$62 ==.
                                   1127 ;	C:/BSP/MG51xC9AE_MG51xB9AE_Series/SampleCode/ISP/ISP_UART1/main.c:112: for(count=8;count<64;count++)
      000425 75 27 08         [24] 1128 	mov	_count,#0x08
      000428                       1129 00161$:
      000428 74 C0            [12] 1130 	mov	a,#0x100 - 0x40
      00042A 25 27            [12] 1131 	add	a,_count
      00042C 50 03            [24] 1132 	jnc	00296$
      00042E 02 04 C5         [24] 1133 	ljmp	00114$
      000431                       1134 00296$:
                           0000E0  1135 	Smain$main$63 ==.
                           0000E0  1136 	Smain$main$64 ==.
                                   1137 ;	C:/BSP/MG51xC9AE_MG51xB9AE_Series/SampleCode/ISP/ISP_UART1/main.c:114: IAPCN = BYTE_PROGRAM_AP;          //program byte
      000431 75 AF 21         [24] 1138 	mov	_IAPCN,#0x21
                           0000E3  1139 	Smain$main$65 ==.
                                   1140 ;	C:/BSP/MG51xC9AE_MG51xB9AE_Series/SampleCode/ISP/ISP_UART1/main.c:115: IAPAL = flash_address&0xff;
      000434 85 22 A6         [24] 1141 	mov	_IAPAL,_flash_address
                           0000E6  1142 	Smain$main$66 ==.
                                   1143 ;	C:/BSP/MG51xC9AE_MG51xB9AE_Series/SampleCode/ISP/ISP_UART1/main.c:116: IAPAH = (flash_address>>8)&0xff;
      000437 85 23 A7         [24] 1144 	mov	_IAPAH,(_flash_address + 1)
                           0000E9  1145 	Smain$main$67 ==.
                                   1146 ;	C:/BSP/MG51xC9AE_MG51xB9AE_Series/SampleCode/ISP/ISP_UART1/main.c:117: IAPFD=uart_rcvbuf[count];
      00043A E5 27            [12] 1147 	mov	a,_count
      00043C 24 01            [12] 1148 	add	a,#_uart_rcvbuf
      00043E F5 82            [12] 1149 	mov	dpl,a
      000440 E4               [12] 1150 	clr	a
      000441 34 00            [12] 1151 	addc	a,#(_uart_rcvbuf >> 8)
      000443 F5 83            [12] 1152 	mov	dph,a
      000445 E0               [24] 1153 	movx	a,@dptr
      000446 F5 AE            [12] 1154 	mov	_IAPFD,a
                           0000F7  1155 	Smain$main$68 ==.
                                   1156 ;	C:/BSP/MG51xC9AE_MG51xB9AE_Series/SampleCode/ISP/ISP_UART1/main.c:118: trig_IAPGO;
      000448 75 C7 AA         [24] 1157 	mov	_TA,#0xaa
      00044B 75 C7 55         [24] 1158 	mov	_TA,#0x55
      00044E 43 A4 01         [24] 1159 	orl	_IAPTRG,#0x01
                           000100  1160 	Smain$main$69 ==.
                                   1161 ;	C:/BSP/MG51xC9AE_MG51xB9AE_Series/SampleCode/ISP/ISP_UART1/main.c:120: IAPCN = BYTE_READ_AP;              //program byte verify
      000451 75 AF 00         [24] 1162 	mov	_IAPCN,#0x00
                           000103  1163 	Smain$main$70 ==.
                                   1164 ;	C:/BSP/MG51xC9AE_MG51xB9AE_Series/SampleCode/ISP/ISP_UART1/main.c:121: trig_IAPGO;
      000454 75 C7 AA         [24] 1165 	mov	_TA,#0xaa
      000457 75 C7 55         [24] 1166 	mov	_TA,#0x55
      00045A 43 A4 01         [24] 1167 	orl	_IAPTRG,#0x01
                           00010C  1168 	Smain$main$71 ==.
                                   1169 ;	C:/BSP/MG51xC9AE_MG51xB9AE_Series/SampleCode/ISP/ISP_UART1/main.c:122: vo8temp = uart_rcvbuf[count];
      00045D E5 27            [12] 1170 	mov	a,_count
      00045F 24 01            [12] 1171 	add	a,#_uart_rcvbuf
      000461 F5 82            [12] 1172 	mov	dpl,a
      000463 E4               [12] 1173 	clr	a
      000464 34 00            [12] 1174 	addc	a,#(_uart_rcvbuf >> 8)
      000466 F5 83            [12] 1175 	mov	dph,a
      000468 E0               [24] 1176 	movx	a,@dptr
                           000118  1177 	Smain$main$72 ==.
                                   1178 ;	C:/BSP/MG51xC9AE_MG51xB9AE_Series/SampleCode/ISP/ISP_UART1/main.c:123: if(IAPFD!=vo8temp)
      000469 FF               [12] 1179 	mov	r7,a
      00046A B5 AE 02         [24] 1180 	cjne	a,_IAPFD,00297$
      00046D 80 02            [24] 1181 	sjmp	00105$
      00046F                       1182 00297$:
                           00011E  1183 	Smain$main$73 ==.
                                   1184 ;	C:/BSP/MG51xC9AE_MG51xB9AE_Series/SampleCode/ISP/ISP_UART1/main.c:124: while(1);                          
      00046F                       1185 00102$:
      00046F 80 FE            [24] 1186 	sjmp	00102$
      000471                       1187 00105$:
                           000120  1188 	Smain$main$74 ==.
                                   1189 ;	C:/BSP/MG51xC9AE_MG51xB9AE_Series/SampleCode/ISP/ISP_UART1/main.c:125: if (CHPCON==0x43)              //if error flag set, program error stop ISP
      000471 74 43            [12] 1190 	mov	a,#0x43
      000473 B5 9F 02         [24] 1191 	cjne	a,_CHPCON,00110$
                           000125  1192 	Smain$main$75 ==.
                                   1193 ;	C:/BSP/MG51xC9AE_MG51xB9AE_Series/SampleCode/ISP/ISP_UART1/main.c:126: while(1);
      000476                       1194 00107$:
      000476 80 FE            [24] 1195 	sjmp	00107$
      000478                       1196 00110$:
                           000127  1197 	Smain$main$76 ==.
                                   1198 ;	C:/BSP/MG51xC9AE_MG51xB9AE_Series/SampleCode/ISP/ISP_UART1/main.c:128: g_totalchecksum += vo8temp;
      000478 E4               [12] 1199 	clr	a
      000479 FE               [12] 1200 	mov	r6,a
      00047A FD               [12] 1201 	mov	r5,a
      00047B FC               [12] 1202 	mov	r4,a
      00047C EF               [12] 1203 	mov	a,r7
      00047D 25 2E            [12] 1204 	add	a,_g_totalchecksum
      00047F F5 2E            [12] 1205 	mov	_g_totalchecksum,a
      000481 EE               [12] 1206 	mov	a,r6
      000482 35 2F            [12] 1207 	addc	a,(_g_totalchecksum + 1)
      000484 F5 2F            [12] 1208 	mov	(_g_totalchecksum + 1),a
      000486 ED               [12] 1209 	mov	a,r5
      000487 35 30            [12] 1210 	addc	a,(_g_totalchecksum + 2)
      000489 F5 30            [12] 1211 	mov	(_g_totalchecksum + 2),a
      00048B EC               [12] 1212 	mov	a,r4
      00048C 35 31            [12] 1213 	addc	a,(_g_totalchecksum + 3)
      00048E F5 31            [12] 1214 	mov	(_g_totalchecksum + 3),a
                           00013F  1215 	Smain$main$77 ==.
                                   1216 ;	C:/BSP/MG51xC9AE_MG51xB9AE_Series/SampleCode/ISP/ISP_UART1/main.c:129: flash_address++;
      000490 AE 22            [24] 1217 	mov	r6,_flash_address
      000492 AF 23            [24] 1218 	mov	r7,(_flash_address + 1)
      000494 74 01            [12] 1219 	mov	a,#0x01
      000496 2E               [12] 1220 	add	a,r6
      000497 F5 22            [12] 1221 	mov	_flash_address,a
      000499 E4               [12] 1222 	clr	a
      00049A 3F               [12] 1223 	addc	a,r7
      00049B F5 23            [12] 1224 	mov	(_flash_address + 1),a
                           00014C  1225 	Smain$main$78 ==.
                                   1226 ;	C:/BSP/MG51xC9AE_MG51xB9AE_Series/SampleCode/ISP/ISP_UART1/main.c:130: vo16temp = AP_size;
      00049D 90 00 82         [24] 1227 	mov	dptr,#_main_vo16temp_65536_174
      0004A0 E5 24            [12] 1228 	mov	a,_AP_size
      0004A2 F0               [24] 1229 	movx	@dptr,a
      0004A3 E5 25            [12] 1230 	mov	a,(_AP_size + 1)
      0004A5 A3               [24] 1231 	inc	dptr
      0004A6 F0               [24] 1232 	movx	@dptr,a
                           000156  1233 	Smain$main$79 ==.
                                   1234 ;	C:/BSP/MG51xC9AE_MG51xB9AE_Series/SampleCode/ISP/ISP_UART1/main.c:131: if(flash_address==vo16temp)
      0004A7 90 00 82         [24] 1235 	mov	dptr,#_main_vo16temp_65536_174
      0004AA E0               [24] 1236 	movx	a,@dptr
      0004AB FE               [12] 1237 	mov	r6,a
      0004AC A3               [24] 1238 	inc	dptr
      0004AD E0               [24] 1239 	movx	a,@dptr
      0004AE FF               [12] 1240 	mov	r7,a
      0004AF EE               [12] 1241 	mov	a,r6
      0004B0 B5 22 0A         [24] 1242 	cjne	a,_flash_address,00162$
      0004B3 EF               [12] 1243 	mov	a,r7
      0004B4 B5 23 06         [24] 1244 	cjne	a,(_flash_address + 1),00162$
                           000166  1245 	Smain$main$80 ==.
                           000166  1246 	Smain$main$81 ==.
                                   1247 ;	C:/BSP/MG51xC9AE_MG51xB9AE_Series/SampleCode/ISP/ISP_UART1/main.c:133: g_progarmflag=0;
                                   1248 ;	assignBit
      0004B7 C2 03            [12] 1249 	clr	_g_progarmflag
                           000168  1250 	Smain$main$82 ==.
                                   1251 ;	C:/BSP/MG51xC9AE_MG51xB9AE_Series/SampleCode/ISP/ISP_UART1/main.c:134: g_timer0Over =1;
                                   1252 ;	assignBit
      0004B9 D2 01            [12] 1253 	setb	_g_timer0Over
                           00016A  1254 	Smain$main$83 ==.
                                   1255 ;	C:/BSP/MG51xC9AE_MG51xB9AE_Series/SampleCode/ISP/ISP_UART1/main.c:135: goto END_2;
                           00016A  1256 	Smain$main$84 ==.
      0004BB 80 08            [24] 1257 	sjmp	00114$
      0004BD                       1258 00162$:
                           00016C  1259 	Smain$main$85 ==.
                           00016C  1260 	Smain$main$86 ==.
                                   1261 ;	C:/BSP/MG51xC9AE_MG51xB9AE_Series/SampleCode/ISP/ISP_UART1/main.c:112: for(count=8;count<64;count++)
      0004BD E5 27            [12] 1262 	mov	a,_count
      0004BF 04               [12] 1263 	inc	a
      0004C0 F5 27            [12] 1264 	mov	_count,a
      0004C2 02 04 28         [24] 1265 	ljmp	00161$
                           000174  1266 	Smain$main$87 ==.
                           000174  1267 	Smain$main$88 ==.
                                   1268 ;	C:/BSP/MG51xC9AE_MG51xB9AE_Series/SampleCode/ISP/ISP_UART1/main.c:138: END_2:                
      0004C5                       1269 00114$:
                           000174  1270 	Smain$main$89 ==.
                                   1271 ;	C:/BSP/MG51xC9AE_MG51xB9AE_Series/SampleCode/ISP/ISP_UART1/main.c:139: Package_checksum();
      0004C5 12 02 BA         [24] 1272 	lcall	_Package_checksum
                           000177  1273 	Smain$main$90 ==.
                                   1274 ;	C:/BSP/MG51xC9AE_MG51xB9AE_Series/SampleCode/ISP/ISP_UART1/main.c:140: uart_txbuf[8]=g_totalchecksum&0xff;
                           000177  1275 	Smain$main$91 ==.
      0004C8 AF 2E            [24] 1276 	mov	r7,_g_totalchecksum
      0004CA 90 00 49         [24] 1277 	mov	dptr,#(_uart_txbuf + 0x0008)
      0004CD EF               [12] 1278 	mov	a,r7
      0004CE F0               [24] 1279 	movx	@dptr,a
                           00017E  1280 	Smain$main$92 ==.
                                   1281 ;	C:/BSP/MG51xC9AE_MG51xB9AE_Series/SampleCode/ISP/ISP_UART1/main.c:141: uart_txbuf[9]=(g_totalchecksum>>8)&0xff;
      0004CF AF 2F            [24] 1282 	mov	r7,(_g_totalchecksum + 1)
      0004D1 90 00 4A         [24] 1283 	mov	dptr,#(_uart_txbuf + 0x0009)
      0004D4 EF               [12] 1284 	mov	a,r7
      0004D5 F0               [24] 1285 	movx	@dptr,a
                           000185  1286 	Smain$main$93 ==.
                                   1287 ;	C:/BSP/MG51xC9AE_MG51xB9AE_Series/SampleCode/ISP/ISP_UART1/main.c:142: Send_64byte_To_UART1();
      0004D6 12 03 2A         [24] 1288 	lcall	_Send_64byte_To_UART1
      0004D9                       1289 00116$:
                           000188  1290 	Smain$main$94 ==.
                                   1291 ;	C:/BSP/MG51xC9AE_MG51xB9AE_Series/SampleCode/ISP/ISP_UART1/main.c:146: switch(uart_rcvbuf[0])
      0004D9 90 00 01         [24] 1292 	mov	dptr,#_uart_rcvbuf
      0004DC E0               [24] 1293 	movx	a,@dptr
      0004DD FF               [12] 1294 	mov	r7,a
      0004DE BF A0 03         [24] 1295 	cjne	r7,#0xa0,00302$
      0004E1 02 06 BD         [24] 1296 	ljmp	00126$
      0004E4                       1297 00302$:
      0004E4 BF A1 03         [24] 1298 	cjne	r7,#0xa1,00303$
      0004E7 02 05 F0         [24] 1299 	ljmp	00125$
      0004EA                       1300 00303$:
      0004EA BF A2 03         [24] 1301 	cjne	r7,#0xa2,00304$
      0004ED 02 05 B8         [24] 1302 	ljmp	00124$
      0004F0                       1303 00304$:
      0004F0 BF A3 02         [24] 1304 	cjne	r7,#0xa3,00305$
      0004F3 80 60            [24] 1305 	sjmp	00122$
      0004F5                       1306 00305$:
      0004F5 BF A4 02         [24] 1307 	cjne	r7,#0xa4,00306$
      0004F8 80 18            [24] 1308 	sjmp	00118$
      0004FA                       1309 00306$:
      0004FA BF A6 02         [24] 1310 	cjne	r7,#0xa6,00307$
      0004FD 80 23            [24] 1311 	sjmp	00119$
      0004FF                       1312 00307$:
      0004FF BF AB 03         [24] 1313 	cjne	r7,#0xab,00308$
      000502 02 08 37         [24] 1314 	ljmp	00156$
      000505                       1315 00308$:
      000505 BF AE 02         [24] 1316 	cjne	r7,#0xae,00309$
      000508 80 08            [24] 1317 	sjmp	00118$
      00050A                       1318 00309$:
      00050A BF B1 02         [24] 1319 	cjne	r7,#0xb1,00310$
      00050D 80 22            [24] 1320 	sjmp	00121$
      00050F                       1321 00310$:
      00050F 02 08 0E         [24] 1322 	ljmp	00142$
                           0001C1  1323 	Smain$main$95 ==.
                           0001C1  1324 	Smain$main$96 ==.
                                   1325 ;	C:/BSP/MG51xC9AE_MG51xB9AE_Series/SampleCode/ISP/ISP_UART1/main.c:149: case CMD_SYNC_PACKNO:
      000512                       1326 00118$:
                           0001C1  1327 	Smain$main$97 ==.
                           0001C1  1328 	Smain$main$98 ==.
                                   1329 ;	C:/BSP/MG51xC9AE_MG51xB9AE_Series/SampleCode/ISP/ISP_UART1/main.c:151: Package_checksum();
      000512 12 02 BA         [24] 1330 	lcall	_Package_checksum
                           0001C4  1331 	Smain$main$99 ==.
                                   1332 ;	C:/BSP/MG51xC9AE_MG51xB9AE_Series/SampleCode/ISP/ISP_UART1/main.c:152: Send_64byte_To_UART1();    
      000515 12 03 2A         [24] 1333 	lcall	_Send_64byte_To_UART1
                           0001C7  1334 	Smain$main$100 ==.
                                   1335 ;	C:/BSP/MG51xC9AE_MG51xB9AE_Series/SampleCode/ISP/ISP_UART1/main.c:153: g_timer0Counter=0; //clear timer 0 for no reset
      000518 E4               [12] 1336 	clr	a
      000519 F5 28            [12] 1337 	mov	_g_timer0Counter,a
      00051B F5 29            [12] 1338 	mov	(_g_timer0Counter + 1),a
                           0001CC  1339 	Smain$main$101 ==.
                                   1340 ;	C:/BSP/MG51xC9AE_MG51xB9AE_Series/SampleCode/ISP/ISP_UART1/main.c:154: g_timer0Over=0;
                                   1341 ;	assignBit
      00051D C2 01            [12] 1342 	clr	_g_timer0Over
                           0001CE  1343 	Smain$main$102 ==.
                                   1344 ;	C:/BSP/MG51xC9AE_MG51xB9AE_Series/SampleCode/ISP/ISP_UART1/main.c:155: break;
      00051F 02 08 0E         [24] 1345 	ljmp	00142$
                           0001D1  1346 	Smain$main$103 ==.
                           0001D1  1347 	Smain$main$104 ==.
                                   1348 ;	C:/BSP/MG51xC9AE_MG51xB9AE_Series/SampleCode/ISP/ISP_UART1/main.c:158: case CMD_GET_FWVER:
      000522                       1349 00119$:
                           0001D1  1350 	Smain$main$105 ==.
                           0001D1  1351 	Smain$main$106 ==.
                                   1352 ;	C:/BSP/MG51xC9AE_MG51xB9AE_Series/SampleCode/ISP/ISP_UART1/main.c:160: Package_checksum();
      000522 12 02 BA         [24] 1353 	lcall	_Package_checksum
                           0001D4  1354 	Smain$main$107 ==.
                                   1355 ;	C:/BSP/MG51xC9AE_MG51xB9AE_Series/SampleCode/ISP/ISP_UART1/main.c:161: uart_txbuf[8]=FW_VERSION;
      000525 90 00 49         [24] 1356 	mov	dptr,#(_uart_txbuf + 0x0008)
      000528 74 28            [12] 1357 	mov	a,#0x28
      00052A F0               [24] 1358 	movx	@dptr,a
                           0001DA  1359 	Smain$main$108 ==.
                                   1360 ;	C:/BSP/MG51xC9AE_MG51xB9AE_Series/SampleCode/ISP/ISP_UART1/main.c:162: Send_64byte_To_UART1();  
      00052B 12 03 2A         [24] 1361 	lcall	_Send_64byte_To_UART1
                           0001DD  1362 	Smain$main$109 ==.
                                   1363 ;	C:/BSP/MG51xC9AE_MG51xB9AE_Series/SampleCode/ISP/ISP_UART1/main.c:163: break;
      00052E 02 08 0E         [24] 1364 	ljmp	00142$
                           0001E0  1365 	Smain$main$110 ==.
                           0001E0  1366 	Smain$main$111 ==.
                                   1367 ;	C:/BSP/MG51xC9AE_MG51xB9AE_Series/SampleCode/ISP/ISP_UART1/main.c:172: case CMD_GET_DEVICEID:            
      000531                       1368 00121$:
                           0001E0  1369 	Smain$main$112 ==.
                           0001E0  1370 	Smain$main$113 ==.
                                   1371 ;	C:/BSP/MG51xC9AE_MG51xB9AE_Series/SampleCode/ISP/ISP_UART1/main.c:174: READ_ID();
      000531 12 01 79         [24] 1372 	lcall	_READ_ID
                           0001E3  1373 	Smain$main$114 ==.
                                   1374 ;	C:/BSP/MG51xC9AE_MG51xB9AE_Series/SampleCode/ISP/ISP_UART1/main.c:175: Package_checksum();
      000534 12 02 BA         [24] 1375 	lcall	_Package_checksum
                           0001E6  1376 	Smain$main$115 ==.
                                   1377 ;	C:/BSP/MG51xC9AE_MG51xB9AE_Series/SampleCode/ISP/ISP_UART1/main.c:176: uart_txbuf[8]=DID_lowB;  
      000537 90 00 49         [24] 1378 	mov	dptr,#(_uart_txbuf + 0x0008)
      00053A E5 35            [12] 1379 	mov	a,_DID_lowB
      00053C F0               [24] 1380 	movx	@dptr,a
                           0001EC  1381 	Smain$main$116 ==.
                                   1382 ;	C:/BSP/MG51xC9AE_MG51xB9AE_Series/SampleCode/ISP/ISP_UART1/main.c:177: uart_txbuf[9]=DID_highB;  
      00053D 90 00 4A         [24] 1383 	mov	dptr,#(_uart_txbuf + 0x0009)
      000540 E5 34            [12] 1384 	mov	a,_DID_highB
      000542 F0               [24] 1385 	movx	@dptr,a
                           0001F2  1386 	Smain$main$117 ==.
                                   1387 ;	C:/BSP/MG51xC9AE_MG51xB9AE_Series/SampleCode/ISP/ISP_UART1/main.c:178: uart_txbuf[10]=PID_lowB;  
      000543 90 00 4B         [24] 1388 	mov	dptr,#(_uart_txbuf + 0x000a)
      000546 E5 33            [12] 1389 	mov	a,_PID_lowB
      000548 F0               [24] 1390 	movx	@dptr,a
                           0001F8  1391 	Smain$main$118 ==.
                                   1392 ;	C:/BSP/MG51xC9AE_MG51xB9AE_Series/SampleCode/ISP/ISP_UART1/main.c:179: uart_txbuf[11]=PID_highB;  
      000549 90 00 4C         [24] 1393 	mov	dptr,#(_uart_txbuf + 0x000b)
      00054C E5 32            [12] 1394 	mov	a,_PID_highB
      00054E F0               [24] 1395 	movx	@dptr,a
                           0001FE  1396 	Smain$main$119 ==.
                                   1397 ;	C:/BSP/MG51xC9AE_MG51xB9AE_Series/SampleCode/ISP/ISP_UART1/main.c:180: Send_64byte_To_UART1();  
      00054F 12 03 2A         [24] 1398 	lcall	_Send_64byte_To_UART1
                           000201  1399 	Smain$main$120 ==.
                                   1400 ;	C:/BSP/MG51xC9AE_MG51xB9AE_Series/SampleCode/ISP/ISP_UART1/main.c:181: break;
      000552 02 08 0E         [24] 1401 	ljmp	00142$
                           000204  1402 	Smain$main$121 ==.
                           000204  1403 	Smain$main$122 ==.
                                   1404 ;	C:/BSP/MG51xC9AE_MG51xB9AE_Series/SampleCode/ISP/ISP_UART1/main.c:183: case CMD_ERASE_ALL:
      000555                       1405 00122$:
                           000204  1406 	Smain$main$123 ==.
                           000204  1407 	Smain$main$124 ==.
                                   1408 ;	C:/BSP/MG51xC9AE_MG51xB9AE_Series/SampleCode/ISP/ISP_UART1/main.c:185: set_IAPUEN_APUEN;
                                   1409 ;	assignBit
      000555 A2 AF            [12] 1410 	mov	c,_EA
      000557 92 04            [24] 1411 	mov	_BIT_TMP,c
                                   1412 ;	assignBit
      000559 C2 AF            [12] 1413 	clr	_EA
      00055B 75 C7 AA         [24] 1414 	mov	_TA,#0xaa
      00055E 75 C7 55         [24] 1415 	mov	_TA,#0x55
      000561 43 A5 01         [24] 1416 	orl	_IAPUEN,#0x01
                                   1417 ;	assignBit
      000564 A2 04            [12] 1418 	mov	c,_BIT_TMP
      000566 92 AF            [24] 1419 	mov	_EA,c
                           000217  1420 	Smain$main$125 ==.
                                   1421 ;	C:/BSP/MG51xC9AE_MG51xB9AE_Series/SampleCode/ISP/ISP_UART1/main.c:186: IAPFD = 0xFF;          //Erase must set IAPFD = 0xFF
      000568 75 AE FF         [24] 1422 	mov	_IAPFD,#0xff
                           00021A  1423 	Smain$main$126 ==.
                                   1424 ;	C:/BSP/MG51xC9AE_MG51xB9AE_Series/SampleCode/ISP/ISP_UART1/main.c:187: IAPCN = PAGE_ERASE_AP;
      00056B 75 AF 22         [24] 1425 	mov	_IAPCN,#0x22
                           00021D  1426 	Smain$main$127 ==.
                                   1427 ;	C:/BSP/MG51xC9AE_MG51xB9AE_Series/SampleCode/ISP/ISP_UART1/main.c:189: for(flash_address=0x0000;flash_address<APROM_SIZE/PAGE_SIZE;flash_address++)
      00056E E4               [12] 1428 	clr	a
      00056F F5 22            [12] 1429 	mov	_flash_address,a
      000571 F5 23            [12] 1430 	mov	(_flash_address + 1),a
      000573                       1431 00164$:
      000573 C3               [12] 1432 	clr	c
      000574 E5 22            [12] 1433 	mov	a,_flash_address
      000576 94 70            [12] 1434 	subb	a,#0x70
      000578 E5 23            [12] 1435 	mov	a,(_flash_address + 1)
      00057A 94 00            [12] 1436 	subb	a,#0x00
      00057C 50 31            [24] 1437 	jnc	00123$
                           00022D  1438 	Smain$main$128 ==.
                           00022D  1439 	Smain$main$129 ==.
                                   1440 ;	C:/BSP/MG51xC9AE_MG51xB9AE_Series/SampleCode/ISP/ISP_UART1/main.c:191: IAPAL = LOBYTE(flash_address*PAGE_SIZE);
      00057E E5 22            [12] 1441 	mov	a,_flash_address
      000580 75 F0 80         [24] 1442 	mov	b,#0x80
      000583 A4               [48] 1443 	mul	ab
      000584 FF               [12] 1444 	mov	r7,a
      000585 8F A6            [24] 1445 	mov	_IAPAL,r7
                           000236  1446 	Smain$main$130 ==.
                                   1447 ;	C:/BSP/MG51xC9AE_MG51xB9AE_Series/SampleCode/ISP/ISP_UART1/main.c:192: IAPAH = HIBYTE(flash_address*PAGE_SIZE);
      000587 AE 22            [24] 1448 	mov	r6,_flash_address
      000589 E5 23            [12] 1449 	mov	a,(_flash_address + 1)
      00058B 54 01            [12] 1450 	anl	a,#0x01
      00058D A2 E0            [12] 1451 	mov	c,acc.0
      00058F CE               [12] 1452 	xch	a,r6
      000590 13               [12] 1453 	rrc	a
      000591 CE               [12] 1454 	xch	a,r6
      000592 13               [12] 1455 	rrc	a
      000593 CE               [12] 1456 	xch	a,r6
      000594 FF               [12] 1457 	mov	r7,a
      000595 8F A7            [24] 1458 	mov	_IAPAH,r7
                           000246  1459 	Smain$main$131 ==.
                                   1460 ;	C:/BSP/MG51xC9AE_MG51xB9AE_Series/SampleCode/ISP/ISP_UART1/main.c:193: trig_IAPGO;
      000597 75 C7 AA         [24] 1461 	mov	_TA,#0xaa
      00059A 75 C7 55         [24] 1462 	mov	_TA,#0x55
      00059D 43 A4 01         [24] 1463 	orl	_IAPTRG,#0x01
                           00024F  1464 	Smain$main$132 ==.
                           00024F  1465 	Smain$main$133 ==.
                                   1466 ;	C:/BSP/MG51xC9AE_MG51xB9AE_Series/SampleCode/ISP/ISP_UART1/main.c:189: for(flash_address=0x0000;flash_address<APROM_SIZE/PAGE_SIZE;flash_address++)
      0005A0 AE 22            [24] 1467 	mov	r6,_flash_address
      0005A2 AF 23            [24] 1468 	mov	r7,(_flash_address + 1)
      0005A4 74 01            [12] 1469 	mov	a,#0x01
      0005A6 2E               [12] 1470 	add	a,r6
      0005A7 F5 22            [12] 1471 	mov	_flash_address,a
      0005A9 E4               [12] 1472 	clr	a
      0005AA 3F               [12] 1473 	addc	a,r7
      0005AB F5 23            [12] 1474 	mov	(_flash_address + 1),a
      0005AD 80 C4            [24] 1475 	sjmp	00164$
      0005AF                       1476 00123$:
                           00025E  1477 	Smain$main$134 ==.
                                   1478 ;	C:/BSP/MG51xC9AE_MG51xB9AE_Series/SampleCode/ISP/ISP_UART1/main.c:196: Package_checksum();
      0005AF 12 02 BA         [24] 1479 	lcall	_Package_checksum
                           000261  1480 	Smain$main$135 ==.
                                   1481 ;	C:/BSP/MG51xC9AE_MG51xB9AE_Series/SampleCode/ISP/ISP_UART1/main.c:197: Send_64byte_To_UART1();  
      0005B2 12 03 2A         [24] 1482 	lcall	_Send_64byte_To_UART1
                           000264  1483 	Smain$main$136 ==.
                                   1484 ;	C:/BSP/MG51xC9AE_MG51xB9AE_Series/SampleCode/ISP/ISP_UART1/main.c:198: break;
      0005B5 02 08 0E         [24] 1485 	ljmp	00142$
                           000267  1486 	Smain$main$137 ==.
                                   1487 ;	C:/BSP/MG51xC9AE_MG51xB9AE_Series/SampleCode/ISP/ISP_UART1/main.c:200: case CMD_READ_CONFIG:
      0005B8                       1488 00124$:
                           000267  1489 	Smain$main$138 ==.
                           000267  1490 	Smain$main$139 ==.
                                   1491 ;	C:/BSP/MG51xC9AE_MG51xB9AE_Series/SampleCode/ISP/ISP_UART1/main.c:202: READ_CONFIG();
      0005B8 12 01 E4         [24] 1492 	lcall	_READ_CONFIG
                           00026A  1493 	Smain$main$140 ==.
                                   1494 ;	C:/BSP/MG51xC9AE_MG51xB9AE_Series/SampleCode/ISP/ISP_UART1/main.c:203: Package_checksum();
      0005BB 12 02 BA         [24] 1495 	lcall	_Package_checksum
                           00026D  1496 	Smain$main$141 ==.
                                   1497 ;	C:/BSP/MG51xC9AE_MG51xB9AE_Series/SampleCode/ISP/ISP_UART1/main.c:204: uart_txbuf[8]=CONF0;  
      0005BE 90 00 49         [24] 1498 	mov	dptr,#(_uart_txbuf + 0x0008)
      0005C1 E5 36            [12] 1499 	mov	a,_CONF0
      0005C3 F0               [24] 1500 	movx	@dptr,a
                           000273  1501 	Smain$main$142 ==.
                                   1502 ;	C:/BSP/MG51xC9AE_MG51xB9AE_Series/SampleCode/ISP/ISP_UART1/main.c:205: uart_txbuf[9]=CONF1;  
      0005C4 90 00 4A         [24] 1503 	mov	dptr,#(_uart_txbuf + 0x0009)
      0005C7 E5 37            [12] 1504 	mov	a,_CONF1
      0005C9 F0               [24] 1505 	movx	@dptr,a
                           000279  1506 	Smain$main$143 ==.
                                   1507 ;	C:/BSP/MG51xC9AE_MG51xB9AE_Series/SampleCode/ISP/ISP_UART1/main.c:206: uart_txbuf[10]=CONF2;  
      0005CA 90 00 4B         [24] 1508 	mov	dptr,#(_uart_txbuf + 0x000a)
      0005CD E5 38            [12] 1509 	mov	a,_CONF2
      0005CF F0               [24] 1510 	movx	@dptr,a
                           00027F  1511 	Smain$main$144 ==.
                                   1512 ;	C:/BSP/MG51xC9AE_MG51xB9AE_Series/SampleCode/ISP/ISP_UART1/main.c:207: uart_txbuf[11]=0xff;  
      0005D0 90 00 4C         [24] 1513 	mov	dptr,#(_uart_txbuf + 0x000b)
      0005D3 74 FF            [12] 1514 	mov	a,#0xff
      0005D5 F0               [24] 1515 	movx	@dptr,a
                           000285  1516 	Smain$main$145 ==.
                                   1517 ;	C:/BSP/MG51xC9AE_MG51xB9AE_Series/SampleCode/ISP/ISP_UART1/main.c:208: uart_txbuf[12]=CONF4;  
      0005D6 90 00 4D         [24] 1518 	mov	dptr,#(_uart_txbuf + 0x000c)
      0005D9 E5 39            [12] 1519 	mov	a,_CONF4
      0005DB F0               [24] 1520 	movx	@dptr,a
                           00028B  1521 	Smain$main$146 ==.
                                   1522 ;	C:/BSP/MG51xC9AE_MG51xB9AE_Series/SampleCode/ISP/ISP_UART1/main.c:209: uart_txbuf[13]=0xff;  
      0005DC 90 00 4E         [24] 1523 	mov	dptr,#(_uart_txbuf + 0x000d)
      0005DF 74 FF            [12] 1524 	mov	a,#0xff
      0005E1 F0               [24] 1525 	movx	@dptr,a
                           000291  1526 	Smain$main$147 ==.
                                   1527 ;	C:/BSP/MG51xC9AE_MG51xB9AE_Series/SampleCode/ISP/ISP_UART1/main.c:210: uart_txbuf[14]=0xff;            
      0005E2 90 00 4F         [24] 1528 	mov	dptr,#(_uart_txbuf + 0x000e)
      0005E5 F0               [24] 1529 	movx	@dptr,a
                           000295  1530 	Smain$main$148 ==.
                                   1531 ;	C:/BSP/MG51xC9AE_MG51xB9AE_Series/SampleCode/ISP/ISP_UART1/main.c:211: uart_txbuf[15]=0xff;
      0005E6 90 00 50         [24] 1532 	mov	dptr,#(_uart_txbuf + 0x000f)
      0005E9 F0               [24] 1533 	movx	@dptr,a
                           000299  1534 	Smain$main$149 ==.
                                   1535 ;	C:/BSP/MG51xC9AE_MG51xB9AE_Series/SampleCode/ISP/ISP_UART1/main.c:212: Send_64byte_To_UART1();  
      0005EA 12 03 2A         [24] 1536 	lcall	_Send_64byte_To_UART1
                           00029C  1537 	Smain$main$150 ==.
                                   1538 ;	C:/BSP/MG51xC9AE_MG51xB9AE_Series/SampleCode/ISP/ISP_UART1/main.c:213: break;
      0005ED 02 08 0E         [24] 1539 	ljmp	00142$
                           00029F  1540 	Smain$main$151 ==.
                           00029F  1541 	Smain$main$152 ==.
                                   1542 ;	C:/BSP/MG51xC9AE_MG51xB9AE_Series/SampleCode/ISP/ISP_UART1/main.c:216: case CMD_UPDATE_CONFIG:
      0005F0                       1543 00125$:
                           00029F  1544 	Smain$main$153 ==.
                           00029F  1545 	Smain$main$154 ==.
                                   1546 ;	C:/BSP/MG51xC9AE_MG51xB9AE_Series/SampleCode/ISP/ISP_UART1/main.c:218: recv_CONF0 = uart_rcvbuf[8];
      0005F0 90 00 09         [24] 1547 	mov	dptr,#(_uart_rcvbuf + 0x0008)
      0005F3 E0               [24] 1548 	movx	a,@dptr
      0005F4 F5 3A            [12] 1549 	mov	_recv_CONF0,a
                           0002A5  1550 	Smain$main$155 ==.
                                   1551 ;	C:/BSP/MG51xC9AE_MG51xB9AE_Series/SampleCode/ISP/ISP_UART1/main.c:219: recv_CONF1 = uart_rcvbuf[9];
      0005F6 90 00 0A         [24] 1552 	mov	dptr,#(_uart_rcvbuf + 0x0009)
      0005F9 E0               [24] 1553 	movx	a,@dptr
      0005FA F5 3B            [12] 1554 	mov	_recv_CONF1,a
                           0002AB  1555 	Smain$main$156 ==.
                                   1556 ;	C:/BSP/MG51xC9AE_MG51xB9AE_Series/SampleCode/ISP/ISP_UART1/main.c:220: recv_CONF2 = uart_rcvbuf[10];
      0005FC 90 00 0B         [24] 1557 	mov	dptr,#(_uart_rcvbuf + 0x000a)
      0005FF E0               [24] 1558 	movx	a,@dptr
      000600 F5 3C            [12] 1559 	mov	_recv_CONF2,a
                           0002B1  1560 	Smain$main$157 ==.
                                   1561 ;	C:/BSP/MG51xC9AE_MG51xB9AE_Series/SampleCode/ISP/ISP_UART1/main.c:221: recv_CONF4 = uart_rcvbuf[12];
      000602 90 00 0D         [24] 1562 	mov	dptr,#(_uart_rcvbuf + 0x000c)
      000605 E0               [24] 1563 	movx	a,@dptr
      000606 F5 3D            [12] 1564 	mov	_recv_CONF4,a
                           0002B7  1565 	Smain$main$158 ==.
                                   1566 ;	C:/BSP/MG51xC9AE_MG51xB9AE_Series/SampleCode/ISP/ISP_UART1/main.c:224: set_IAPUEN_CFUEN;
                                   1567 ;	assignBit
      000608 A2 AF            [12] 1568 	mov	c,_EA
      00060A 92 04            [24] 1569 	mov	_BIT_TMP,c
                                   1570 ;	assignBit
      00060C C2 AF            [12] 1571 	clr	_EA
      00060E 75 C7 AA         [24] 1572 	mov	_TA,#0xaa
      000611 75 C7 55         [24] 1573 	mov	_TA,#0x55
      000614 43 A5 04         [24] 1574 	orl	_IAPUEN,#0x04
                                   1575 ;	assignBit
      000617 A2 04            [12] 1576 	mov	c,_BIT_TMP
      000619 92 AF            [24] 1577 	mov	_EA,c
                           0002CA  1578 	Smain$main$159 ==.
                                   1579 ;	C:/BSP/MG51xC9AE_MG51xB9AE_Series/SampleCode/ISP/ISP_UART1/main.c:225: IAPCN = PAGE_ERASE_CONFIG;
      00061B 75 AF E2         [24] 1580 	mov	_IAPCN,#0xe2
                           0002CD  1581 	Smain$main$160 ==.
                                   1582 ;	C:/BSP/MG51xC9AE_MG51xB9AE_Series/SampleCode/ISP/ISP_UART1/main.c:226: IAPAL = 0x00;
      00061E 75 A6 00         [24] 1583 	mov	_IAPAL,#0x00
                           0002D0  1584 	Smain$main$161 ==.
                                   1585 ;	C:/BSP/MG51xC9AE_MG51xB9AE_Series/SampleCode/ISP/ISP_UART1/main.c:227: IAPAH = 0x00;
      000621 75 A7 00         [24] 1586 	mov	_IAPAH,#0x00
                           0002D3  1587 	Smain$main$162 ==.
                                   1588 ;	C:/BSP/MG51xC9AE_MG51xB9AE_Series/SampleCode/ISP/ISP_UART1/main.c:228: IAPFD = 0xFF;
      000624 75 AE FF         [24] 1589 	mov	_IAPFD,#0xff
                           0002D6  1590 	Smain$main$163 ==.
                                   1591 ;	C:/BSP/MG51xC9AE_MG51xB9AE_Series/SampleCode/ISP/ISP_UART1/main.c:229: trig_IAPGO;
      000627 75 C7 AA         [24] 1592 	mov	_TA,#0xaa
      00062A 75 C7 55         [24] 1593 	mov	_TA,#0x55
      00062D 43 A4 01         [24] 1594 	orl	_IAPTRG,#0x01
                           0002DF  1595 	Smain$main$164 ==.
                                   1596 ;	C:/BSP/MG51xC9AE_MG51xB9AE_Series/SampleCode/ISP/ISP_UART1/main.c:231: IAPCN = BYTE_PROGRAM_CONFIG;
      000630 75 AF E1         [24] 1597 	mov	_IAPCN,#0xe1
                           0002E2  1598 	Smain$main$165 ==.
                                   1599 ;	C:/BSP/MG51xC9AE_MG51xB9AE_Series/SampleCode/ISP/ISP_UART1/main.c:232: IAPAL = 0x00;
      000633 75 A6 00         [24] 1600 	mov	_IAPAL,#0x00
                           0002E5  1601 	Smain$main$166 ==.
                                   1602 ;	C:/BSP/MG51xC9AE_MG51xB9AE_Series/SampleCode/ISP/ISP_UART1/main.c:233: IAPAH = 0x00;
      000636 75 A7 00         [24] 1603 	mov	_IAPAH,#0x00
                           0002E8  1604 	Smain$main$167 ==.
                                   1605 ;	C:/BSP/MG51xC9AE_MG51xB9AE_Series/SampleCode/ISP/ISP_UART1/main.c:234: IAPFD = recv_CONF0;
      000639 85 3A AE         [24] 1606 	mov	_IAPFD,_recv_CONF0
                           0002EB  1607 	Smain$main$168 ==.
                                   1608 ;	C:/BSP/MG51xC9AE_MG51xB9AE_Series/SampleCode/ISP/ISP_UART1/main.c:235: trig_IAPGO;
      00063C 75 C7 AA         [24] 1609 	mov	_TA,#0xaa
      00063F 75 C7 55         [24] 1610 	mov	_TA,#0x55
      000642 43 A4 01         [24] 1611 	orl	_IAPTRG,#0x01
                           0002F4  1612 	Smain$main$169 ==.
                                   1613 ;	C:/BSP/MG51xC9AE_MG51xB9AE_Series/SampleCode/ISP/ISP_UART1/main.c:236: IAPFD = recv_CONF1;
      000645 85 3B AE         [24] 1614 	mov	_IAPFD,_recv_CONF1
                           0002F7  1615 	Smain$main$170 ==.
                                   1616 ;	C:/BSP/MG51xC9AE_MG51xB9AE_Series/SampleCode/ISP/ISP_UART1/main.c:237: IAPAL = 0x01;
      000648 75 A6 01         [24] 1617 	mov	_IAPAL,#0x01
                           0002FA  1618 	Smain$main$171 ==.
                                   1619 ;	C:/BSP/MG51xC9AE_MG51xB9AE_Series/SampleCode/ISP/ISP_UART1/main.c:238: trig_IAPGO;
      00064B 75 C7 AA         [24] 1620 	mov	_TA,#0xaa
      00064E 75 C7 55         [24] 1621 	mov	_TA,#0x55
      000651 43 A4 01         [24] 1622 	orl	_IAPTRG,#0x01
                           000303  1623 	Smain$main$172 ==.
                                   1624 ;	C:/BSP/MG51xC9AE_MG51xB9AE_Series/SampleCode/ISP/ISP_UART1/main.c:239: IAPAL = 0x02;
      000654 75 A6 02         [24] 1625 	mov	_IAPAL,#0x02
                           000306  1626 	Smain$main$173 ==.
                                   1627 ;	C:/BSP/MG51xC9AE_MG51xB9AE_Series/SampleCode/ISP/ISP_UART1/main.c:240: IAPFD = recv_CONF2;
      000657 85 3C AE         [24] 1628 	mov	_IAPFD,_recv_CONF2
                           000309  1629 	Smain$main$174 ==.
                                   1630 ;	C:/BSP/MG51xC9AE_MG51xB9AE_Series/SampleCode/ISP/ISP_UART1/main.c:241: trig_IAPGO;
      00065A 75 C7 AA         [24] 1631 	mov	_TA,#0xaa
      00065D 75 C7 55         [24] 1632 	mov	_TA,#0x55
      000660 43 A4 01         [24] 1633 	orl	_IAPTRG,#0x01
                           000312  1634 	Smain$main$175 ==.
                                   1635 ;	C:/BSP/MG51xC9AE_MG51xB9AE_Series/SampleCode/ISP/ISP_UART1/main.c:242: IAPAL = 0x04;
      000663 75 A6 04         [24] 1636 	mov	_IAPAL,#0x04
                           000315  1637 	Smain$main$176 ==.
                                   1638 ;	C:/BSP/MG51xC9AE_MG51xB9AE_Series/SampleCode/ISP/ISP_UART1/main.c:243: IAPFD = recv_CONF4;
      000666 85 3D AE         [24] 1639 	mov	_IAPFD,_recv_CONF4
                           000318  1640 	Smain$main$177 ==.
                                   1641 ;	C:/BSP/MG51xC9AE_MG51xB9AE_Series/SampleCode/ISP/ISP_UART1/main.c:244: trig_IAPGO;
      000669 75 C7 AA         [24] 1642 	mov	_TA,#0xaa
      00066C 75 C7 55         [24] 1643 	mov	_TA,#0x55
      00066F 43 A4 01         [24] 1644 	orl	_IAPTRG,#0x01
                           000321  1645 	Smain$main$178 ==.
                                   1646 ;	C:/BSP/MG51xC9AE_MG51xB9AE_Series/SampleCode/ISP/ISP_UART1/main.c:245: clr_IAPUEN_CFUEN;
                                   1647 ;	assignBit
      000672 A2 AF            [12] 1648 	mov	c,_EA
      000674 92 04            [24] 1649 	mov	_BIT_TMP,c
                                   1650 ;	assignBit
      000676 C2 AF            [12] 1651 	clr	_EA
      000678 75 C7 AA         [24] 1652 	mov	_TA,#0xaa
      00067B 75 C7 55         [24] 1653 	mov	_TA,#0x55
      00067E 53 A5 FB         [24] 1654 	anl	_IAPUEN,#0xfb
                                   1655 ;	assignBit
      000681 A2 04            [12] 1656 	mov	c,_BIT_TMP
      000683 92 AF            [24] 1657 	mov	_EA,c
                           000334  1658 	Smain$main$179 ==.
                                   1659 ;	C:/BSP/MG51xC9AE_MG51xB9AE_Series/SampleCode/ISP/ISP_UART1/main.c:247: READ_CONFIG();
      000685 12 01 E4         [24] 1660 	lcall	_READ_CONFIG
                           000337  1661 	Smain$main$180 ==.
                                   1662 ;	C:/BSP/MG51xC9AE_MG51xB9AE_Series/SampleCode/ISP/ISP_UART1/main.c:249: Package_checksum();
      000688 12 02 BA         [24] 1663 	lcall	_Package_checksum
                           00033A  1664 	Smain$main$181 ==.
                                   1665 ;	C:/BSP/MG51xC9AE_MG51xB9AE_Series/SampleCode/ISP/ISP_UART1/main.c:250: uart_txbuf[8]=CONF0;  
      00068B 90 00 49         [24] 1666 	mov	dptr,#(_uart_txbuf + 0x0008)
      00068E E5 36            [12] 1667 	mov	a,_CONF0
      000690 F0               [24] 1668 	movx	@dptr,a
                           000340  1669 	Smain$main$182 ==.
                                   1670 ;	C:/BSP/MG51xC9AE_MG51xB9AE_Series/SampleCode/ISP/ISP_UART1/main.c:251: uart_txbuf[9]=CONF1;  
      000691 90 00 4A         [24] 1671 	mov	dptr,#(_uart_txbuf + 0x0009)
      000694 E5 37            [12] 1672 	mov	a,_CONF1
      000696 F0               [24] 1673 	movx	@dptr,a
                           000346  1674 	Smain$main$183 ==.
                                   1675 ;	C:/BSP/MG51xC9AE_MG51xB9AE_Series/SampleCode/ISP/ISP_UART1/main.c:252: uart_txbuf[10]=CONF2;  
      000697 90 00 4B         [24] 1676 	mov	dptr,#(_uart_txbuf + 0x000a)
      00069A E5 38            [12] 1677 	mov	a,_CONF2
      00069C F0               [24] 1678 	movx	@dptr,a
                           00034C  1679 	Smain$main$184 ==.
                                   1680 ;	C:/BSP/MG51xC9AE_MG51xB9AE_Series/SampleCode/ISP/ISP_UART1/main.c:253: uart_txbuf[11]=0xff;  
      00069D 90 00 4C         [24] 1681 	mov	dptr,#(_uart_txbuf + 0x000b)
      0006A0 74 FF            [12] 1682 	mov	a,#0xff
      0006A2 F0               [24] 1683 	movx	@dptr,a
                           000352  1684 	Smain$main$185 ==.
                                   1685 ;	C:/BSP/MG51xC9AE_MG51xB9AE_Series/SampleCode/ISP/ISP_UART1/main.c:254: uart_txbuf[12]=CONF4;  
      0006A3 90 00 4D         [24] 1686 	mov	dptr,#(_uart_txbuf + 0x000c)
      0006A6 E5 39            [12] 1687 	mov	a,_CONF4
      0006A8 F0               [24] 1688 	movx	@dptr,a
                           000358  1689 	Smain$main$186 ==.
                                   1690 ;	C:/BSP/MG51xC9AE_MG51xB9AE_Series/SampleCode/ISP/ISP_UART1/main.c:255: uart_txbuf[13]=0xff;  
      0006A9 90 00 4E         [24] 1691 	mov	dptr,#(_uart_txbuf + 0x000d)
      0006AC 74 FF            [12] 1692 	mov	a,#0xff
      0006AE F0               [24] 1693 	movx	@dptr,a
                           00035E  1694 	Smain$main$187 ==.
                                   1695 ;	C:/BSP/MG51xC9AE_MG51xB9AE_Series/SampleCode/ISP/ISP_UART1/main.c:256: uart_txbuf[14]=0xff;            
      0006AF 90 00 4F         [24] 1696 	mov	dptr,#(_uart_txbuf + 0x000e)
      0006B2 F0               [24] 1697 	movx	@dptr,a
                           000362  1698 	Smain$main$188 ==.
                                   1699 ;	C:/BSP/MG51xC9AE_MG51xB9AE_Series/SampleCode/ISP/ISP_UART1/main.c:257: uart_txbuf[15]=0xff;
      0006B3 90 00 50         [24] 1700 	mov	dptr,#(_uart_txbuf + 0x000f)
      0006B6 F0               [24] 1701 	movx	@dptr,a
                           000366  1702 	Smain$main$189 ==.
                                   1703 ;	C:/BSP/MG51xC9AE_MG51xB9AE_Series/SampleCode/ISP/ISP_UART1/main.c:258: Send_64byte_To_UART1();  
      0006B7 12 03 2A         [24] 1704 	lcall	_Send_64byte_To_UART1
                           000369  1705 	Smain$main$190 ==.
                                   1706 ;	C:/BSP/MG51xC9AE_MG51xB9AE_Series/SampleCode/ISP/ISP_UART1/main.c:259: break;
      0006BA 02 08 0E         [24] 1707 	ljmp	00142$
                           00036C  1708 	Smain$main$191 ==.
                           00036C  1709 	Smain$main$192 ==.
                                   1710 ;	C:/BSP/MG51xC9AE_MG51xB9AE_Series/SampleCode/ISP/ISP_UART1/main.c:262: case CMD_UPDATE_APROM:            
      0006BD                       1711 00126$:
                           00036C  1712 	Smain$main$193 ==.
                           00036C  1713 	Smain$main$194 ==.
                                   1714 ;	C:/BSP/MG51xC9AE_MG51xB9AE_Series/SampleCode/ISP/ISP_UART1/main.c:265: set_IAPUEN_APUEN;
                                   1715 ;	assignBit
      0006BD A2 AF            [12] 1716 	mov	c,_EA
      0006BF 92 04            [24] 1717 	mov	_BIT_TMP,c
                                   1718 ;	assignBit
      0006C1 C2 AF            [12] 1719 	clr	_EA
      0006C3 75 C7 AA         [24] 1720 	mov	_TA,#0xaa
      0006C6 75 C7 55         [24] 1721 	mov	_TA,#0x55
      0006C9 43 A5 01         [24] 1722 	orl	_IAPUEN,#0x01
                                   1723 ;	assignBit
      0006CC A2 04            [12] 1724 	mov	c,_BIT_TMP
      0006CE 92 AF            [24] 1725 	mov	_EA,c
                           00037F  1726 	Smain$main$195 ==.
                                   1727 ;	C:/BSP/MG51xC9AE_MG51xB9AE_Series/SampleCode/ISP/ISP_UART1/main.c:266: IAPFD = 0xFF;          //Erase must set IAPFD = 0xFF
      0006D0 75 AE FF         [24] 1728 	mov	_IAPFD,#0xff
                           000382  1729 	Smain$main$196 ==.
                                   1730 ;	C:/BSP/MG51xC9AE_MG51xB9AE_Series/SampleCode/ISP/ISP_UART1/main.c:267: IAPCN = PAGE_ERASE_AP;
      0006D3 75 AF 22         [24] 1731 	mov	_IAPCN,#0x22
                           000385  1732 	Smain$main$197 ==.
                                   1733 ;	C:/BSP/MG51xC9AE_MG51xB9AE_Series/SampleCode/ISP/ISP_UART1/main.c:269: for(flash_address=0x0000;flash_address<APROM_SIZE/PAGE_SIZE;flash_address++)
      0006D6 E4               [12] 1734 	clr	a
      0006D7 F5 22            [12] 1735 	mov	_flash_address,a
      0006D9 F5 23            [12] 1736 	mov	(_flash_address + 1),a
      0006DB                       1737 00167$:
      0006DB C3               [12] 1738 	clr	c
      0006DC E5 22            [12] 1739 	mov	a,_flash_address
      0006DE 94 70            [12] 1740 	subb	a,#0x70
      0006E0 E5 23            [12] 1741 	mov	a,(_flash_address + 1)
      0006E2 94 00            [12] 1742 	subb	a,#0x00
      0006E4 50 31            [24] 1743 	jnc	00127$
                           000395  1744 	Smain$main$198 ==.
                           000395  1745 	Smain$main$199 ==.
                                   1746 ;	C:/BSP/MG51xC9AE_MG51xB9AE_Series/SampleCode/ISP/ISP_UART1/main.c:271: IAPAL = LOBYTE(flash_address*PAGE_SIZE);
      0006E6 E5 22            [12] 1747 	mov	a,_flash_address
      0006E8 75 F0 80         [24] 1748 	mov	b,#0x80
      0006EB A4               [48] 1749 	mul	ab
      0006EC FF               [12] 1750 	mov	r7,a
      0006ED 8F A6            [24] 1751 	mov	_IAPAL,r7
                           00039E  1752 	Smain$main$200 ==.
                                   1753 ;	C:/BSP/MG51xC9AE_MG51xB9AE_Series/SampleCode/ISP/ISP_UART1/main.c:272: IAPAH = HIBYTE(flash_address*PAGE_SIZE);
      0006EF AE 22            [24] 1754 	mov	r6,_flash_address
      0006F1 E5 23            [12] 1755 	mov	a,(_flash_address + 1)
      0006F3 54 01            [12] 1756 	anl	a,#0x01
      0006F5 A2 E0            [12] 1757 	mov	c,acc.0
      0006F7 CE               [12] 1758 	xch	a,r6
      0006F8 13               [12] 1759 	rrc	a
      0006F9 CE               [12] 1760 	xch	a,r6
      0006FA 13               [12] 1761 	rrc	a
      0006FB CE               [12] 1762 	xch	a,r6
      0006FC FF               [12] 1763 	mov	r7,a
      0006FD 8F A7            [24] 1764 	mov	_IAPAH,r7
                           0003AE  1765 	Smain$main$201 ==.
                                   1766 ;	C:/BSP/MG51xC9AE_MG51xB9AE_Series/SampleCode/ISP/ISP_UART1/main.c:273: trig_IAPGO;
      0006FF 75 C7 AA         [24] 1767 	mov	_TA,#0xaa
      000702 75 C7 55         [24] 1768 	mov	_TA,#0x55
      000705 43 A4 01         [24] 1769 	orl	_IAPTRG,#0x01
                           0003B7  1770 	Smain$main$202 ==.
                           0003B7  1771 	Smain$main$203 ==.
                                   1772 ;	C:/BSP/MG51xC9AE_MG51xB9AE_Series/SampleCode/ISP/ISP_UART1/main.c:269: for(flash_address=0x0000;flash_address<APROM_SIZE/PAGE_SIZE;flash_address++)
      000708 AE 22            [24] 1773 	mov	r6,_flash_address
      00070A AF 23            [24] 1774 	mov	r7,(_flash_address + 1)
      00070C 74 01            [12] 1775 	mov	a,#0x01
      00070E 2E               [12] 1776 	add	a,r6
      00070F F5 22            [12] 1777 	mov	_flash_address,a
      000711 E4               [12] 1778 	clr	a
      000712 3F               [12] 1779 	addc	a,r7
      000713 F5 23            [12] 1780 	mov	(_flash_address + 1),a
      000715 80 C4            [24] 1781 	sjmp	00167$
      000717                       1782 00127$:
                           0003C6  1783 	Smain$main$204 ==.
                                   1784 ;	C:/BSP/MG51xC9AE_MG51xB9AE_Series/SampleCode/ISP/ISP_UART1/main.c:276: g_totalchecksum=0;
      000717 E4               [12] 1785 	clr	a
      000718 F5 2E            [12] 1786 	mov	_g_totalchecksum,a
      00071A F5 2F            [12] 1787 	mov	(_g_totalchecksum + 1),a
      00071C F5 30            [12] 1788 	mov	(_g_totalchecksum + 2),a
      00071E F5 31            [12] 1789 	mov	(_g_totalchecksum + 3),a
                           0003CF  1790 	Smain$main$205 ==.
                                   1791 ;	C:/BSP/MG51xC9AE_MG51xB9AE_Series/SampleCode/ISP/ISP_UART1/main.c:277: flash_address=0;
      000720 F5 22            [12] 1792 	mov	_flash_address,a
      000722 F5 23            [12] 1793 	mov	(_flash_address + 1),a
                           0003D3  1794 	Smain$main$206 ==.
                                   1795 ;	C:/BSP/MG51xC9AE_MG51xB9AE_Series/SampleCode/ISP/ISP_UART1/main.c:278: AP_size=0;
      000724 F5 24            [12] 1796 	mov	_AP_size,a
      000726 F5 25            [12] 1797 	mov	(_AP_size + 1),a
                           0003D7  1798 	Smain$main$207 ==.
                                   1799 ;	C:/BSP/MG51xC9AE_MG51xB9AE_Series/SampleCode/ISP/ISP_UART1/main.c:279: AP_size=uart_rcvbuf[12];
      000728 90 00 0D         [24] 1800 	mov	dptr,#(_uart_rcvbuf + 0x000c)
      00072B E0               [24] 1801 	movx	a,@dptr
      00072C FF               [12] 1802 	mov	r7,a
      00072D 8F 24            [24] 1803 	mov	_AP_size,r7
      00072F 75 25 00         [24] 1804 	mov	(_AP_size + 1),#0x00
                           0003E1  1805 	Smain$main$208 ==.
                                   1806 ;	C:/BSP/MG51xC9AE_MG51xB9AE_Series/SampleCode/ISP/ISP_UART1/main.c:280: vo8temp = uart_rcvbuf[13]; 
      000732 90 00 0E         [24] 1807 	mov	dptr,#(_uart_rcvbuf + 0x000d)
      000735 E0               [24] 1808 	movx	a,@dptr
                           0003E5  1809 	Smain$main$209 ==.
                                   1810 ;	C:/BSP/MG51xC9AE_MG51xB9AE_Series/SampleCode/ISP/ISP_UART1/main.c:281: AP_size|=(vo8temp<<8);  
      000736 FE               [12] 1811 	mov	r6,a
      000737 7F 00            [12] 1812 	mov	r7,#0x00
      000739 AC 24            [24] 1813 	mov	r4,_AP_size
      00073B AD 25            [24] 1814 	mov	r5,(_AP_size + 1)
      00073D EC               [12] 1815 	mov	a,r4
      00073E 42 07            [12] 1816 	orl	ar7,a
      000740 ED               [12] 1817 	mov	a,r5
      000741 42 06            [12] 1818 	orl	ar6,a
      000743 8F 24            [24] 1819 	mov	_AP_size,r7
      000745 8E 25            [24] 1820 	mov	(_AP_size + 1),r6
                           0003F6  1821 	Smain$main$210 ==.
                                   1822 ;	C:/BSP/MG51xC9AE_MG51xB9AE_Series/SampleCode/ISP/ISP_UART1/main.c:282: g_progarmflag=1;
                                   1823 ;	assignBit
      000747 D2 03            [12] 1824 	setb	_g_progarmflag
                           0003F8  1825 	Smain$main$211 ==.
                                   1826 ;	C:/BSP/MG51xC9AE_MG51xB9AE_Series/SampleCode/ISP/ISP_UART1/main.c:284: for(count=16;count<64;count++)
      000749 75 27 10         [24] 1827 	mov	_count,#0x10
      00074C                       1828 00170$:
      00074C 74 C0            [12] 1829 	mov	a,#0x100 - 0x40
      00074E 25 27            [12] 1830 	add	a,_count
      000750 50 03            [24] 1831 	jnc	00313$
      000752 02 07 FA         [24] 1832 	ljmp	00141$
      000755                       1833 00313$:
                           000404  1834 	Smain$main$212 ==.
                           000404  1835 	Smain$main$213 ==.
                                   1836 ;	C:/BSP/MG51xC9AE_MG51xB9AE_Series/SampleCode/ISP/ISP_UART1/main.c:286: IAPCN = BYTE_PROGRAM_AP;
      000755 75 AF 21         [24] 1837 	mov	_IAPCN,#0x21
                           000407  1838 	Smain$main$214 ==.
                                   1839 ;	C:/BSP/MG51xC9AE_MG51xB9AE_Series/SampleCode/ISP/ISP_UART1/main.c:287: IAPAL = flash_address&0xff;
      000758 85 22 A6         [24] 1840 	mov	_IAPAL,_flash_address
                           00040A  1841 	Smain$main$215 ==.
                                   1842 ;	C:/BSP/MG51xC9AE_MG51xB9AE_Series/SampleCode/ISP/ISP_UART1/main.c:288: IAPAH = (flash_address>>8)&0xff;
      00075B 85 23 A7         [24] 1843 	mov	_IAPAH,(_flash_address + 1)
                           00040D  1844 	Smain$main$216 ==.
                                   1845 ;	C:/BSP/MG51xC9AE_MG51xB9AE_Series/SampleCode/ISP/ISP_UART1/main.c:289: IAPFD=uart_rcvbuf[count];
      00075E E5 27            [12] 1846 	mov	a,_count
      000760 24 01            [12] 1847 	add	a,#_uart_rcvbuf
      000762 F5 82            [12] 1848 	mov	dpl,a
      000764 E4               [12] 1849 	clr	a
      000765 34 00            [12] 1850 	addc	a,#(_uart_rcvbuf >> 8)
      000767 F5 83            [12] 1851 	mov	dph,a
      000769 E0               [24] 1852 	movx	a,@dptr
      00076A F5 AE            [12] 1853 	mov	_IAPFD,a
                           00041B  1854 	Smain$main$217 ==.
                                   1855 ;	C:/BSP/MG51xC9AE_MG51xB9AE_Series/SampleCode/ISP/ISP_UART1/main.c:290: clr_CHPCON_IAPFF;
                                   1856 ;	assignBit
      00076C A2 AF            [12] 1857 	mov	c,_EA
      00076E 92 04            [24] 1858 	mov	_BIT_TMP,c
                                   1859 ;	assignBit
      000770 C2 AF            [12] 1860 	clr	_EA
      000772 75 C7 AA         [24] 1861 	mov	_TA,#0xaa
      000775 75 C7 55         [24] 1862 	mov	_TA,#0x55
      000778 53 9F BF         [24] 1863 	anl	_CHPCON,#0xbf
                                   1864 ;	assignBit
      00077B A2 04            [12] 1865 	mov	c,_BIT_TMP
      00077D 92 AF            [24] 1866 	mov	_EA,c
                           00042E  1867 	Smain$main$218 ==.
                                   1868 ;	C:/BSP/MG51xC9AE_MG51xB9AE_Series/SampleCode/ISP/ISP_UART1/main.c:291: trig_IAPGO;                              
      00077F 75 C7 AA         [24] 1869 	mov	_TA,#0xaa
      000782 75 C7 55         [24] 1870 	mov	_TA,#0x55
      000785 43 A4 01         [24] 1871 	orl	_IAPTRG,#0x01
                           000437  1872 	Smain$main$219 ==.
                                   1873 ;	C:/BSP/MG51xC9AE_MG51xB9AE_Series/SampleCode/ISP/ISP_UART1/main.c:293: IAPCN = BYTE_READ_AP;                //program byte verify
      000788 75 AF 00         [24] 1874 	mov	_IAPCN,#0x00
                           00043A  1875 	Smain$main$220 ==.
                                   1876 ;	C:/BSP/MG51xC9AE_MG51xB9AE_Series/SampleCode/ISP/ISP_UART1/main.c:294: trig_IAPGO;
      00078B 75 C7 AA         [24] 1877 	mov	_TA,#0xaa
      00078E 75 C7 55         [24] 1878 	mov	_TA,#0x55
      000791 43 A4 01         [24] 1879 	orl	_IAPTRG,#0x01
                           000443  1880 	Smain$main$221 ==.
                                   1881 ;	C:/BSP/MG51xC9AE_MG51xB9AE_Series/SampleCode/ISP/ISP_UART1/main.c:295: vo8temp = uart_rcvbuf[count];
      000794 E5 27            [12] 1882 	mov	a,_count
      000796 24 01            [12] 1883 	add	a,#_uart_rcvbuf
      000798 F5 82            [12] 1884 	mov	dpl,a
      00079A E4               [12] 1885 	clr	a
      00079B 34 00            [12] 1886 	addc	a,#(_uart_rcvbuf >> 8)
      00079D F5 83            [12] 1887 	mov	dph,a
      00079F E0               [24] 1888 	movx	a,@dptr
                           00044F  1889 	Smain$main$222 ==.
                                   1890 ;	C:/BSP/MG51xC9AE_MG51xB9AE_Series/SampleCode/ISP/ISP_UART1/main.c:296: if(IAPFD!=vo8temp)
      0007A0 FF               [12] 1891 	mov	r7,a
      0007A1 B5 AE 02         [24] 1892 	cjne	a,_IAPFD,00314$
      0007A4 80 02            [24] 1893 	sjmp	00132$
      0007A6                       1894 00314$:
                           000455  1895 	Smain$main$223 ==.
                                   1896 ;	C:/BSP/MG51xC9AE_MG51xB9AE_Series/SampleCode/ISP/ISP_UART1/main.c:297: while(1);
      0007A6                       1897 00129$:
      0007A6 80 FE            [24] 1898 	sjmp	00129$
      0007A8                       1899 00132$:
                           000457  1900 	Smain$main$224 ==.
                                   1901 ;	C:/BSP/MG51xC9AE_MG51xB9AE_Series/SampleCode/ISP/ISP_UART1/main.c:298: if (CHPCON==0x43)                //if error flag set, program error stop ISP
      0007A8 74 43            [12] 1902 	mov	a,#0x43
      0007AA B5 9F 02         [24] 1903 	cjne	a,_CHPCON,00137$
                           00045C  1904 	Smain$main$225 ==.
                                   1905 ;	C:/BSP/MG51xC9AE_MG51xB9AE_Series/SampleCode/ISP/ISP_UART1/main.c:299: while(1);
      0007AD                       1906 00134$:
      0007AD 80 FE            [24] 1907 	sjmp	00134$
      0007AF                       1908 00137$:
                           00045E  1909 	Smain$main$226 ==.
                                   1910 ;	C:/BSP/MG51xC9AE_MG51xB9AE_Series/SampleCode/ISP/ISP_UART1/main.c:301: g_totalchecksum += vo8temp;
      0007AF E4               [12] 1911 	clr	a
      0007B0 FE               [12] 1912 	mov	r6,a
      0007B1 FD               [12] 1913 	mov	r5,a
      0007B2 FC               [12] 1914 	mov	r4,a
      0007B3 EF               [12] 1915 	mov	a,r7
      0007B4 25 2E            [12] 1916 	add	a,_g_totalchecksum
      0007B6 F5 2E            [12] 1917 	mov	_g_totalchecksum,a
      0007B8 EE               [12] 1918 	mov	a,r6
      0007B9 35 2F            [12] 1919 	addc	a,(_g_totalchecksum + 1)
      0007BB F5 2F            [12] 1920 	mov	(_g_totalchecksum + 1),a
      0007BD ED               [12] 1921 	mov	a,r5
      0007BE 35 30            [12] 1922 	addc	a,(_g_totalchecksum + 2)
      0007C0 F5 30            [12] 1923 	mov	(_g_totalchecksum + 2),a
      0007C2 EC               [12] 1924 	mov	a,r4
      0007C3 35 31            [12] 1925 	addc	a,(_g_totalchecksum + 3)
      0007C5 F5 31            [12] 1926 	mov	(_g_totalchecksum + 3),a
                           000476  1927 	Smain$main$227 ==.
                                   1928 ;	C:/BSP/MG51xC9AE_MG51xB9AE_Series/SampleCode/ISP/ISP_UART1/main.c:302: flash_address++;
      0007C7 AE 22            [24] 1929 	mov	r6,_flash_address
      0007C9 AF 23            [24] 1930 	mov	r7,(_flash_address + 1)
      0007CB 74 01            [12] 1931 	mov	a,#0x01
      0007CD 2E               [12] 1932 	add	a,r6
      0007CE F5 22            [12] 1933 	mov	_flash_address,a
      0007D0 E4               [12] 1934 	clr	a
      0007D1 3F               [12] 1935 	addc	a,r7
      0007D2 F5 23            [12] 1936 	mov	(_flash_address + 1),a
                           000483  1937 	Smain$main$228 ==.
                                   1938 ;	C:/BSP/MG51xC9AE_MG51xB9AE_Series/SampleCode/ISP/ISP_UART1/main.c:303: vo16temp = AP_size;
      0007D4 90 00 82         [24] 1939 	mov	dptr,#_main_vo16temp_65536_174
      0007D7 E5 24            [12] 1940 	mov	a,_AP_size
      0007D9 F0               [24] 1941 	movx	@dptr,a
      0007DA E5 25            [12] 1942 	mov	a,(_AP_size + 1)
      0007DC A3               [24] 1943 	inc	dptr
      0007DD F0               [24] 1944 	movx	@dptr,a
                           00048D  1945 	Smain$main$229 ==.
                                   1946 ;	C:/BSP/MG51xC9AE_MG51xB9AE_Series/SampleCode/ISP/ISP_UART1/main.c:304: if(flash_address==vo16temp)
      0007DE 90 00 82         [24] 1947 	mov	dptr,#_main_vo16temp_65536_174
      0007E1 E0               [24] 1948 	movx	a,@dptr
      0007E2 FE               [12] 1949 	mov	r6,a
      0007E3 A3               [24] 1950 	inc	dptr
      0007E4 E0               [24] 1951 	movx	a,@dptr
      0007E5 FF               [12] 1952 	mov	r7,a
      0007E6 EE               [12] 1953 	mov	a,r6
      0007E7 B5 22 08         [24] 1954 	cjne	a,_flash_address,00171$
      0007EA EF               [12] 1955 	mov	a,r7
      0007EB B5 23 04         [24] 1956 	cjne	a,(_flash_address + 1),00171$
                           00049D  1957 	Smain$main$230 ==.
                           00049D  1958 	Smain$main$231 ==.
                                   1959 ;	C:/BSP/MG51xC9AE_MG51xB9AE_Series/SampleCode/ISP/ISP_UART1/main.c:306: g_progarmflag=0;
                                   1960 ;	assignBit
      0007EE C2 03            [12] 1961 	clr	_g_progarmflag
                           00049F  1962 	Smain$main$232 ==.
                                   1963 ;	C:/BSP/MG51xC9AE_MG51xB9AE_Series/SampleCode/ISP/ISP_UART1/main.c:307: goto END_1;          
                           00049F  1964 	Smain$main$233 ==.
      0007F0 80 08            [24] 1965 	sjmp	00141$
      0007F2                       1966 00171$:
                           0004A1  1967 	Smain$main$234 ==.
                           0004A1  1968 	Smain$main$235 ==.
                                   1969 ;	C:/BSP/MG51xC9AE_MG51xB9AE_Series/SampleCode/ISP/ISP_UART1/main.c:284: for(count=16;count<64;count++)
      0007F2 E5 27            [12] 1970 	mov	a,_count
      0007F4 04               [12] 1971 	inc	a
      0007F5 F5 27            [12] 1972 	mov	_count,a
      0007F7 02 07 4C         [24] 1973 	ljmp	00170$
                           0004A9  1974 	Smain$main$236 ==.
                                   1975 ;	C:/BSP/MG51xC9AE_MG51xB9AE_Series/SampleCode/ISP/ISP_UART1/main.c:310: END_1:                
      0007FA                       1976 00141$:
                           0004A9  1977 	Smain$main$237 ==.
                                   1978 ;	C:/BSP/MG51xC9AE_MG51xB9AE_Series/SampleCode/ISP/ISP_UART1/main.c:311: Package_checksum();
      0007FA 12 02 BA         [24] 1979 	lcall	_Package_checksum
                           0004AC  1980 	Smain$main$238 ==.
                                   1981 ;	C:/BSP/MG51xC9AE_MG51xB9AE_Series/SampleCode/ISP/ISP_UART1/main.c:312: uart_txbuf[8]=g_totalchecksum&0xff;
      0007FD AF 2E            [24] 1982 	mov	r7,_g_totalchecksum
      0007FF 90 00 49         [24] 1983 	mov	dptr,#(_uart_txbuf + 0x0008)
      000802 EF               [12] 1984 	mov	a,r7
      000803 F0               [24] 1985 	movx	@dptr,a
                           0004B3  1986 	Smain$main$239 ==.
                                   1987 ;	C:/BSP/MG51xC9AE_MG51xB9AE_Series/SampleCode/ISP/ISP_UART1/main.c:313: uart_txbuf[9]=(g_totalchecksum>>8)&0xff;
      000804 AF 2F            [24] 1988 	mov	r7,(_g_totalchecksum + 1)
      000806 90 00 4A         [24] 1989 	mov	dptr,#(_uart_txbuf + 0x0009)
      000809 EF               [12] 1990 	mov	a,r7
      00080A F0               [24] 1991 	movx	@dptr,a
                           0004BA  1992 	Smain$main$240 ==.
                                   1993 ;	C:/BSP/MG51xC9AE_MG51xB9AE_Series/SampleCode/ISP/ISP_UART1/main.c:314: Send_64byte_To_UART1();  
      00080B 12 03 2A         [24] 1994 	lcall	_Send_64byte_To_UART1
                           0004BD  1995 	Smain$main$241 ==.
                                   1996 ;	C:/BSP/MG51xC9AE_MG51xB9AE_Series/SampleCode/ISP/ISP_UART1/main.c:317: }  
      00080E                       1997 00142$:
                           0004BD  1998 	Smain$main$242 ==.
                                   1999 ;	C:/BSP/MG51xC9AE_MG51xB9AE_Series/SampleCode/ISP/ISP_UART1/main.c:318: bUartDataReady = FALSE;
                                   2000 ;	assignBit
      00080E C2 00            [12] 2001 	clr	_bUartDataReady
                           0004BF  2002 	Smain$main$243 ==.
                                   2003 ;	C:/BSP/MG51xC9AE_MG51xB9AE_Series/SampleCode/ISP/ISP_UART1/main.c:319: bufhead = 0;            
      000810 75 21 00         [24] 2004 	mov	_bufhead,#0x00
                           0004C2  2005 	Smain$main$244 ==.
                                   2006 ;	C:/BSP/MG51xC9AE_MG51xB9AE_Series/SampleCode/ISP/ISP_UART1/main.c:320: EA=1;
                                   2007 ;	assignBit
      000813 D2 AF            [12] 2008 	setb	_EA
      000815                       2009 00144$:
                           0004C4  2010 	Smain$main$245 ==.
                                   2011 ;	C:/BSP/MG51xC9AE_MG51xB9AE_Series/SampleCode/ISP/ISP_UART1/main.c:323: if(g_timer0Over==1)
      000815 20 01 1F         [24] 2012 	jb	_g_timer0Over,00156$
                           0004C7  2013 	Smain$main$246 ==.
                                   2014 ;	C:/BSP/MG51xC9AE_MG51xB9AE_Series/SampleCode/ISP/ISP_UART1/main.c:329: if(g_timer1Over==1)
      000818 20 02 03         [24] 2015 	jb	_g_timer1Over,00320$
      00081B 02 04 17         [24] 2016 	ljmp	00154$
      00081E                       2017 00320$:
                           0004CD  2018 	Smain$main$247 ==.
                           0004CD  2019 	Smain$main$248 ==.
                                   2020 ;	C:/BSP/MG51xC9AE_MG51xB9AE_Series/SampleCode/ISP/ISP_UART1/main.c:331: if((bufhead<64)&&(bufhead>0)||(bufhead>64))
      00081E 74 C0            [12] 2021 	mov	a,#0x100 - 0x40
      000820 25 21            [12] 2022 	add	a,_bufhead
      000822 40 04            [24] 2023 	jc	00150$
      000824 E5 21            [12] 2024 	mov	a,_bufhead
      000826 70 09            [24] 2025 	jnz	00147$
      000828                       2026 00150$:
      000828 E5 21            [12] 2027 	mov	a,_bufhead
      00082A 24 BF            [12] 2028 	add	a,#0xff - 0x40
      00082C 40 03            [24] 2029 	jc	00323$
      00082E 02 04 17         [24] 2030 	ljmp	00154$
      000831                       2031 00323$:
      000831                       2032 00147$:
                           0004E0  2033 	Smain$main$249 ==.
                           0004E0  2034 	Smain$main$250 ==.
                                   2035 ;	C:/BSP/MG51xC9AE_MG51xB9AE_Series/SampleCode/ISP/ISP_UART1/main.c:333: bufhead=0;         
      000831 75 21 00         [24] 2036 	mov	_bufhead,#0x00
                           0004E3  2037 	Smain$main$251 ==.
      000834 02 04 17         [24] 2038 	ljmp	00154$
                           0004E6  2039 	Smain$main$252 ==.
                                   2040 ;	C:/BSP/MG51xC9AE_MG51xB9AE_Series/SampleCode/ISP/ISP_UART1/main.c:339: _APROM:
      000837                       2041 00156$:
                           0004E6  2042 	Smain$main$253 ==.
                                   2043 ;	C:/BSP/MG51xC9AE_MG51xB9AE_Series/SampleCode/ISP/ISP_UART1/main.c:340: MODIFY_HIRC_16();
      000837 12 01 2B         [24] 2044 	lcall	_MODIFY_HIRC_16
                           0004E9  2045 	Smain$main$254 ==.
                                   2046 ;	C:/BSP/MG51xC9AE_MG51xB9AE_Series/SampleCode/ISP/ISP_UART1/main.c:341: clr_CHPCON_IAPEN;
                                   2047 ;	assignBit
      00083A A2 AF            [12] 2048 	mov	c,_EA
      00083C 92 04            [24] 2049 	mov	_BIT_TMP,c
                                   2050 ;	assignBit
      00083E C2 AF            [12] 2051 	clr	_EA
      000840 75 C7 AA         [24] 2052 	mov	_TA,#0xaa
      000843 75 C7 55         [24] 2053 	mov	_TA,#0x55
      000846 53 9F FE         [24] 2054 	anl	_CHPCON,#0xfe
                                   2055 ;	assignBit
      000849 A2 04            [12] 2056 	mov	c,_BIT_TMP
      00084B 92 AF            [24] 2057 	mov	_EA,c
                           0004FC  2058 	Smain$main$255 ==.
                                   2059 ;	C:/BSP/MG51xC9AE_MG51xB9AE_Series/SampleCode/ISP/ISP_UART1/main.c:342: TA = 0xAA;
      00084D 75 C7 AA         [24] 2060 	mov	_TA,#0xaa
                           0004FF  2061 	Smain$main$256 ==.
                                   2062 ;	C:/BSP/MG51xC9AE_MG51xB9AE_Series/SampleCode/ISP/ISP_UART1/main.c:343: TA = 0x55;
      000850 75 C7 55         [24] 2063 	mov	_TA,#0x55
                           000502  2064 	Smain$main$257 ==.
                                   2065 ;	C:/BSP/MG51xC9AE_MG51xB9AE_Series/SampleCode/ISP/ISP_UART1/main.c:344: CHPCON = 0x00;                  //set boot from AP
      000853 75 9F 00         [24] 2066 	mov	_CHPCON,#0x00
                           000505  2067 	Smain$main$258 ==.
                                   2068 ;	C:/BSP/MG51xC9AE_MG51xB9AE_Series/SampleCode/ISP/ISP_UART1/main.c:345: TA = 0xAA;
      000856 75 C7 AA         [24] 2069 	mov	_TA,#0xaa
                           000508  2070 	Smain$main$259 ==.
                                   2071 ;	C:/BSP/MG51xC9AE_MG51xB9AE_Series/SampleCode/ISP/ISP_UART1/main.c:346: TA = 0x55;
      000859 75 C7 55         [24] 2072 	mov	_TA,#0x55
                           00050B  2073 	Smain$main$260 ==.
                                   2074 ;	C:/BSP/MG51xC9AE_MG51xB9AE_Series/SampleCode/ISP/ISP_UART1/main.c:347: CHPCON = 0x80;                   //software reset enable
      00085C 75 9F 80         [24] 2075 	mov	_CHPCON,#0x80
                           00050E  2076 	Smain$main$261 ==.
                                   2077 ;	C:/BSP/MG51xC9AE_MG51xB9AE_Series/SampleCode/ISP/ISP_UART1/main.c:350: while(1);  
      00085F                       2078 00158$:
      00085F 80 FE            [24] 2079 	sjmp	00158$
                           000510  2080 	Smain$main$262 ==.
                                   2081 ;	C:/BSP/MG51xC9AE_MG51xB9AE_Series/SampleCode/ISP/ISP_UART1/main.c:351: }
                           000510  2082 	Smain$main$263 ==.
                           000510  2083 	XG$main$0$0 ==.
      000861 22               [24] 2084 	ret
                           000511  2085 	Smain$main$264 ==.
                                   2086 	.area CSEG    (CODE)
                                   2087 	.area CONST   (CODE)
                                   2088 	.area XINIT   (CODE)
                                   2089 	.area INITIALIZER
                                   2090 	.area CABS    (ABS,CODE)
                                   2091 
                                   2092 	.area .debug_line (NOLOAD)
      00034F 00 00 05 84           2093 	.dw	0,Ldebug_line_end-Ldebug_line_start
      000353                       2094 Ldebug_line_start:
      000353 00 02                 2095 	.dw	2
      000355 00 00 00 73           2096 	.dw	0,Ldebug_line_stmt-6-Ldebug_line_start
      000359 01                    2097 	.db	1
      00035A 01                    2098 	.db	1
      00035B FB                    2099 	.db	-5
      00035C 0F                    2100 	.db	15
      00035D 0A                    2101 	.db	10
      00035E 00                    2102 	.db	0
      00035F 01                    2103 	.db	1
      000360 01                    2104 	.db	1
      000361 01                    2105 	.db	1
      000362 01                    2106 	.db	1
      000363 00                    2107 	.db	0
      000364 00                    2108 	.db	0
      000365 00                    2109 	.db	0
      000366 01                    2110 	.db	1
      000367 2F 2E 2E 2F 69 6E 63  2111 	.ascii "/../include/mcs51"
             6C 75 64 65 2F 6D 63
             73 35 31
      000378 00                    2112 	.db	0
      000379 2F 2E 2E 2F 69 6E 63  2113 	.ascii "/../include"
             6C 75 64 65
      000384 00                    2114 	.db	0
      000385 00                    2115 	.db	0
      000386 43 3A 2F 42 53 50 2F  2116 	.ascii "C:/BSP/MG51xC9AE_MG51xB9AE_Series/SampleCode/ISP/ISP_UART1/main.c"
             4D 47 35 31 78 43 39
             41 45 5F 4D 47 35 31
             78 42 39 41 45 5F 53
             65 72 69 65 73 2F 53
             61 6D 70 6C 65 43 6F
             64 65 2F 49 53 50 2F
             49 53 50 5F 55 41 52
             54 31 2F 6D 61 69 6E
             2E 63
      0003C7 00                    2117 	.db	0
      0003C8 00                    2118 	.uleb128	0
      0003C9 00                    2119 	.uleb128	0
      0003CA 00                    2120 	.uleb128	0
      0003CB 00                    2121 	.db	0
      0003CC                       2122 Ldebug_line_stmt:
      0003CC 00                    2123 	.db	0
      0003CD 05                    2124 	.uleb128	5
      0003CE 02                    2125 	.db	2
      0003CF 00 00 03 51           2126 	.dw	0,(Smain$UART1_ISR$0)
      0003D3 03                    2127 	.db	3
      0003D4 15                    2128 	.sleb128	21
      0003D5 01                    2129 	.db	1
      0003D6 09                    2130 	.db	9
      0003D7 00 11                 2131 	.dw	Smain$UART1_ISR$2-Smain$UART1_ISR$0
      0003D9 03                    2132 	.db	3
      0003DA 05                    2133 	.sleb128	5
      0003DB 01                    2134 	.db	1
      0003DC 09                    2135 	.db	9
      0003DD 00 03                 2136 	.dw	Smain$UART1_ISR$3-Smain$UART1_ISR$2
      0003DF 03                    2137 	.db	3
      0003E0 01                    2138 	.sleb128	1
      0003E1 01                    2139 	.db	1
      0003E2 09                    2140 	.db	9
      0003E3 00 03                 2141 	.dw	Smain$UART1_ISR$5-Smain$UART1_ISR$3
      0003E5 03                    2142 	.db	3
      0003E6 02                    2143 	.sleb128	2
      0003E7 01                    2144 	.db	1
      0003E8 09                    2145 	.db	9
      0003E9 00 06                 2146 	.dw	Smain$UART1_ISR$6-Smain$UART1_ISR$5
      0003EB 03                    2147 	.db	3
      0003EC 01                    2148 	.sleb128	1
      0003ED 01                    2149 	.db	1
      0003EE 09                    2150 	.db	9
      0003EF 00 15                 2151 	.dw	Smain$UART1_ISR$7-Smain$UART1_ISR$6
      0003F1 03                    2152 	.db	3
      0003F2 01                    2153 	.sleb128	1
      0003F3 01                    2154 	.db	1
      0003F4 09                    2155 	.db	9
      0003F5 00 02                 2156 	.dw	Smain$UART1_ISR$9-Smain$UART1_ISR$7
      0003F7 03                    2157 	.db	3
      0003F8 02                    2158 	.sleb128	2
      0003F9 01                    2159 	.db	1
      0003FA 09                    2160 	.db	9
      0003FB 00 00                 2161 	.dw	Smain$UART1_ISR$11-Smain$UART1_ISR$9
      0003FD 03                    2162 	.db	3
      0003FE 02                    2163 	.sleb128	2
      0003FF 01                    2164 	.db	1
      000400 09                    2165 	.db	9
      000401 00 05                 2166 	.dw	Smain$UART1_ISR$13-Smain$UART1_ISR$11
      000403 03                    2167 	.db	3
      000404 02                    2168 	.sleb128	2
      000405 01                    2169 	.db	1
      000406 09                    2170 	.db	9
      000407 00 05                 2171 	.dw	Smain$UART1_ISR$15-Smain$UART1_ISR$13
      000409 03                    2172 	.db	3
      00040A 02                    2173 	.sleb128	2
      00040B 01                    2174 	.db	1
      00040C 09                    2175 	.db	9
      00040D 00 02                 2176 	.dw	Smain$UART1_ISR$16-Smain$UART1_ISR$15
      00040F 03                    2177 	.db	3
      000410 01                    2178 	.sleb128	1
      000411 01                    2179 	.db	1
      000412 09                    2180 	.db	9
      000413 00 03                 2181 	.dw	Smain$UART1_ISR$18-Smain$UART1_ISR$16
      000415 03                    2182 	.db	3
      000416 02                    2183 	.sleb128	2
      000417 01                    2184 	.db	1
      000418 09                    2185 	.db	9
      000419 00 05                 2186 	.dw	Smain$UART1_ISR$20-Smain$UART1_ISR$18
      00041B 03                    2187 	.db	3
      00041C 02                    2188 	.sleb128	2
      00041D 01                    2189 	.db	1
      00041E 09                    2190 	.db	9
      00041F 00 02                 2191 	.dw	Smain$UART1_ISR$21-Smain$UART1_ISR$20
      000421 03                    2192 	.db	3
      000422 01                    2193 	.sleb128	1
      000423 01                    2194 	.db	1
      000424 09                    2195 	.db	9
      000425 00 03                 2196 	.dw	Smain$UART1_ISR$22-Smain$UART1_ISR$21
      000427 03                    2197 	.db	3
      000428 01                    2198 	.sleb128	1
      000429 01                    2199 	.db	1
      00042A 09                    2200 	.db	9
      00042B 00 02                 2201 	.dw	Smain$UART1_ISR$23-Smain$UART1_ISR$22
      00042D 03                    2202 	.db	3
      00042E 01                    2203 	.sleb128	1
      00042F 01                    2204 	.db	1
      000430 09                    2205 	.db	9
      000431 00 03                 2206 	.dw	Smain$UART1_ISR$25-Smain$UART1_ISR$23
      000433 03                    2207 	.db	3
      000434 02                    2208 	.sleb128	2
      000435 01                    2209 	.db	1
      000436 09                    2210 	.db	9
      000437 00 0F                 2211 	.dw	1+Smain$UART1_ISR$26-Smain$UART1_ISR$25
      000439 00                    2212 	.db	0
      00043A 01                    2213 	.uleb128	1
      00043B 01                    2214 	.db	1
      00043C 00                    2215 	.db	0
      00043D 05                    2216 	.uleb128	5
      00043E 02                    2217 	.db	2
      00043F 00 00 03 B2           2218 	.dw	0,(Smain$Timer0_ISR$28)
      000443 03                    2219 	.db	3
      000444 3E                    2220 	.sleb128	62
      000445 01                    2221 	.db	1
      000446 09                    2222 	.db	9
      000447 00 0B                 2223 	.dw	Smain$Timer0_ISR$30-Smain$Timer0_ISR$28
      000449 03                    2224 	.db	3
      00044A 04                    2225 	.sleb128	4
      00044B 01                    2226 	.db	1
      00044C 09                    2227 	.db	9
      00044D 00 06                 2228 	.dw	Smain$Timer0_ISR$32-Smain$Timer0_ISR$30
      00044F 03                    2229 	.db	3
      000450 02                    2230 	.sleb128	2
      000451 01                    2231 	.db	1
      000452 09                    2232 	.db	9
      000453 00 0E                 2233 	.dw	Smain$Timer0_ISR$33-Smain$Timer0_ISR$32
      000455 03                    2234 	.db	3
      000456 01                    2235 	.sleb128	1
      000457 01                    2236 	.db	1
      000458 09                    2237 	.db	9
      000459 00 06                 2238 	.dw	Smain$Timer0_ISR$35-Smain$Timer0_ISR$33
      00045B 03                    2239 	.db	3
      00045C 02                    2240 	.sleb128	2
      00045D 01                    2241 	.db	1
      00045E 09                    2242 	.db	9
      00045F 00 02                 2243 	.dw	Smain$Timer0_ISR$37-Smain$Timer0_ISR$35
      000461 03                    2244 	.db	3
      000462 04                    2245 	.sleb128	4
      000463 01                    2246 	.db	1
      000464 09                    2247 	.db	9
      000465 00 04                 2248 	.dw	Smain$Timer0_ISR$39-Smain$Timer0_ISR$37
      000467 03                    2249 	.db	3
      000468 02                    2250 	.sleb128	2
      000469 01                    2251 	.db	1
      00046A 09                    2252 	.db	9
      00046B 00 05                 2253 	.dw	Smain$Timer0_ISR$40-Smain$Timer0_ISR$39
      00046D 03                    2254 	.db	3
      00046E 01                    2255 	.sleb128	1
      00046F 01                    2256 	.db	1
      000470 09                    2257 	.db	9
      000471 00 04                 2258 	.dw	Smain$Timer0_ISR$42-Smain$Timer0_ISR$40
      000473 03                    2259 	.db	3
      000474 02                    2260 	.sleb128	2
      000475 01                    2261 	.db	1
      000476 09                    2262 	.db	9
      000477 00 02                 2263 	.dw	Smain$Timer0_ISR$44-Smain$Timer0_ISR$42
      000479 03                    2264 	.db	3
      00047A 03                    2265 	.sleb128	3
      00047B 01                    2266 	.db	1
      00047C 09                    2267 	.db	9
      00047D 00 09                 2268 	.dw	1+Smain$Timer0_ISR$45-Smain$Timer0_ISR$44
      00047F 00                    2269 	.db	0
      000480 01                    2270 	.uleb128	1
      000481 01                    2271 	.db	1
      000482 00                    2272 	.db	0
      000483 05                    2273 	.uleb128	5
      000484 02                    2274 	.db	2
      000485 00 00 03 F1           2275 	.dw	0,(Smain$main$47)
      000489 03                    2276 	.db	3
      00048A DA 00                 2277 	.sleb128	90
      00048C 01                    2278 	.db	1
      00048D 09                    2279 	.db	9
      00048E 00 00                 2280 	.dw	Smain$main$49-Smain$main$47
      000490 03                    2281 	.db	3
      000491 04                    2282 	.sleb128	4
      000492 01                    2283 	.db	1
      000493 09                    2284 	.db	9
      000494 00 13                 2285 	.dw	Smain$main$50-Smain$main$49
      000496 03                    2286 	.db	3
      000497 01                    2287 	.sleb128	1
      000498 01                    2288 	.db	1
      000499 09                    2289 	.db	9
      00049A 00 03                 2290 	.dw	Smain$main$51-Smain$main$50
      00049C 03                    2291 	.db	3
      00049D 01                    2292 	.sleb128	1
      00049E 01                    2293 	.db	1
      00049F 09                    2294 	.db	9
      0004A0 00 03                 2295 	.dw	Smain$main$52-Smain$main$51
      0004A2 03                    2296 	.db	3
      0004A3 02                    2297 	.sleb128	2
      0004A4 01                    2298 	.db	1
      0004A5 09                    2299 	.db	9
      0004A6 00 03                 2300 	.dw	Smain$main$53-Smain$main$52
      0004A8 03                    2301 	.db	3
      0004A9 02                    2302 	.sleb128	2
      0004AA 01                    2303 	.db	1
      0004AB 09                    2304 	.db	9
      0004AC 00 02                 2305 	.dw	Smain$main$54-Smain$main$53
      0004AE 03                    2306 	.db	3
      0004AF 01                    2307 	.sleb128	1
      0004B0 01                    2308 	.db	1
      0004B1 09                    2309 	.db	9
      0004B2 00 06                 2310 	.dw	Smain$main$55-Smain$main$54
      0004B4 03                    2311 	.db	3
      0004B5 01                    2312 	.sleb128	1
      0004B6 01                    2313 	.db	1
      0004B7 09                    2314 	.db	9
      0004B8 00 02                 2315 	.dw	Smain$main$56-Smain$main$55
      0004BA 03                    2316 	.db	3
      0004BB 02                    2317 	.sleb128	2
      0004BC 01                    2318 	.db	1
      0004BD 09                    2319 	.db	9
      0004BE 00 00                 2320 	.dw	Smain$main$58-Smain$main$56
      0004C0 03                    2321 	.db	3
      0004C1 02                    2322 	.sleb128	2
      0004C2 01                    2323 	.db	1
      0004C3 09                    2324 	.db	9
      0004C4 00 06                 2325 	.dw	Smain$main$60-Smain$main$58
      0004C6 03                    2326 	.db	3
      0004C7 02                    2327 	.sleb128	2
      0004C8 01                    2328 	.db	1
      0004C9 09                    2329 	.db	9
      0004CA 00 02                 2330 	.dw	Smain$main$61-Smain$main$60
      0004CC 03                    2331 	.db	3
      0004CD 01                    2332 	.sleb128	1
      0004CE 01                    2333 	.db	1
      0004CF 09                    2334 	.db	9
      0004D0 00 06                 2335 	.dw	Smain$main$62-Smain$main$61
      0004D2 03                    2336 	.db	3
      0004D3 02                    2337 	.sleb128	2
      0004D4 01                    2338 	.db	1
      0004D5 09                    2339 	.db	9
      0004D6 00 0C                 2340 	.dw	Smain$main$64-Smain$main$62
      0004D8 03                    2341 	.db	3
      0004D9 02                    2342 	.sleb128	2
      0004DA 01                    2343 	.db	1
      0004DB 09                    2344 	.db	9
      0004DC 00 03                 2345 	.dw	Smain$main$65-Smain$main$64
      0004DE 03                    2346 	.db	3
      0004DF 01                    2347 	.sleb128	1
      0004E0 01                    2348 	.db	1
      0004E1 09                    2349 	.db	9
      0004E2 00 03                 2350 	.dw	Smain$main$66-Smain$main$65
      0004E4 03                    2351 	.db	3
      0004E5 01                    2352 	.sleb128	1
      0004E6 01                    2353 	.db	1
      0004E7 09                    2354 	.db	9
      0004E8 00 03                 2355 	.dw	Smain$main$67-Smain$main$66
      0004EA 03                    2356 	.db	3
      0004EB 01                    2357 	.sleb128	1
      0004EC 01                    2358 	.db	1
      0004ED 09                    2359 	.db	9
      0004EE 00 0E                 2360 	.dw	Smain$main$68-Smain$main$67
      0004F0 03                    2361 	.db	3
      0004F1 01                    2362 	.sleb128	1
      0004F2 01                    2363 	.db	1
      0004F3 09                    2364 	.db	9
      0004F4 00 09                 2365 	.dw	Smain$main$69-Smain$main$68
      0004F6 03                    2366 	.db	3
      0004F7 02                    2367 	.sleb128	2
      0004F8 01                    2368 	.db	1
      0004F9 09                    2369 	.db	9
      0004FA 00 03                 2370 	.dw	Smain$main$70-Smain$main$69
      0004FC 03                    2371 	.db	3
      0004FD 01                    2372 	.sleb128	1
      0004FE 01                    2373 	.db	1
      0004FF 09                    2374 	.db	9
      000500 00 09                 2375 	.dw	Smain$main$71-Smain$main$70
      000502 03                    2376 	.db	3
      000503 01                    2377 	.sleb128	1
      000504 01                    2378 	.db	1
      000505 09                    2379 	.db	9
      000506 00 0C                 2380 	.dw	Smain$main$72-Smain$main$71
      000508 03                    2381 	.db	3
      000509 01                    2382 	.sleb128	1
      00050A 01                    2383 	.db	1
      00050B 09                    2384 	.db	9
      00050C 00 06                 2385 	.dw	Smain$main$73-Smain$main$72
      00050E 03                    2386 	.db	3
      00050F 01                    2387 	.sleb128	1
      000510 01                    2388 	.db	1
      000511 09                    2389 	.db	9
      000512 00 02                 2390 	.dw	Smain$main$74-Smain$main$73
      000514 03                    2391 	.db	3
      000515 01                    2392 	.sleb128	1
      000516 01                    2393 	.db	1
      000517 09                    2394 	.db	9
      000518 00 05                 2395 	.dw	Smain$main$75-Smain$main$74
      00051A 03                    2396 	.db	3
      00051B 01                    2397 	.sleb128	1
      00051C 01                    2398 	.db	1
      00051D 09                    2399 	.db	9
      00051E 00 02                 2400 	.dw	Smain$main$76-Smain$main$75
      000520 03                    2401 	.db	3
      000521 02                    2402 	.sleb128	2
      000522 01                    2403 	.db	1
      000523 09                    2404 	.db	9
      000524 00 18                 2405 	.dw	Smain$main$77-Smain$main$76
      000526 03                    2406 	.db	3
      000527 01                    2407 	.sleb128	1
      000528 01                    2408 	.db	1
      000529 09                    2409 	.db	9
      00052A 00 0D                 2410 	.dw	Smain$main$78-Smain$main$77
      00052C 03                    2411 	.db	3
      00052D 01                    2412 	.sleb128	1
      00052E 01                    2413 	.db	1
      00052F 09                    2414 	.db	9
      000530 00 0A                 2415 	.dw	Smain$main$79-Smain$main$78
      000532 03                    2416 	.db	3
      000533 01                    2417 	.sleb128	1
      000534 01                    2418 	.db	1
      000535 09                    2419 	.db	9
      000536 00 10                 2420 	.dw	Smain$main$81-Smain$main$79
      000538 03                    2421 	.db	3
      000539 02                    2422 	.sleb128	2
      00053A 01                    2423 	.db	1
      00053B 09                    2424 	.db	9
      00053C 00 02                 2425 	.dw	Smain$main$82-Smain$main$81
      00053E 03                    2426 	.db	3
      00053F 01                    2427 	.sleb128	1
      000540 01                    2428 	.db	1
      000541 09                    2429 	.db	9
      000542 00 02                 2430 	.dw	Smain$main$83-Smain$main$82
      000544 03                    2431 	.db	3
      000545 01                    2432 	.sleb128	1
      000546 01                    2433 	.db	1
      000547 09                    2434 	.db	9
      000548 00 02                 2435 	.dw	Smain$main$86-Smain$main$83
      00054A 03                    2436 	.db	3
      00054B 69                    2437 	.sleb128	-23
      00054C 01                    2438 	.db	1
      00054D 09                    2439 	.db	9
      00054E 00 08                 2440 	.dw	Smain$main$88-Smain$main$86
      000550 03                    2441 	.db	3
      000551 1A                    2442 	.sleb128	26
      000552 01                    2443 	.db	1
      000553 09                    2444 	.db	9
      000554 00 00                 2445 	.dw	Smain$main$89-Smain$main$88
      000556 03                    2446 	.db	3
      000557 01                    2447 	.sleb128	1
      000558 01                    2448 	.db	1
      000559 09                    2449 	.db	9
      00055A 00 03                 2450 	.dw	Smain$main$90-Smain$main$89
      00055C 03                    2451 	.db	3
      00055D 01                    2452 	.sleb128	1
      00055E 01                    2453 	.db	1
      00055F 09                    2454 	.db	9
      000560 00 07                 2455 	.dw	Smain$main$92-Smain$main$90
      000562 03                    2456 	.db	3
      000563 01                    2457 	.sleb128	1
      000564 01                    2458 	.db	1
      000565 09                    2459 	.db	9
      000566 00 07                 2460 	.dw	Smain$main$93-Smain$main$92
      000568 03                    2461 	.db	3
      000569 01                    2462 	.sleb128	1
      00056A 01                    2463 	.db	1
      00056B 09                    2464 	.db	9
      00056C 00 03                 2465 	.dw	Smain$main$94-Smain$main$93
      00056E 03                    2466 	.db	3
      00056F 04                    2467 	.sleb128	4
      000570 01                    2468 	.db	1
      000571 09                    2469 	.db	9
      000572 00 39                 2470 	.dw	Smain$main$96-Smain$main$94
      000574 03                    2471 	.db	3
      000575 03                    2472 	.sleb128	3
      000576 01                    2473 	.db	1
      000577 09                    2474 	.db	9
      000578 00 00                 2475 	.dw	Smain$main$98-Smain$main$96
      00057A 03                    2476 	.db	3
      00057B 02                    2477 	.sleb128	2
      00057C 01                    2478 	.db	1
      00057D 09                    2479 	.db	9
      00057E 00 03                 2480 	.dw	Smain$main$99-Smain$main$98
      000580 03                    2481 	.db	3
      000581 01                    2482 	.sleb128	1
      000582 01                    2483 	.db	1
      000583 09                    2484 	.db	9
      000584 00 03                 2485 	.dw	Smain$main$100-Smain$main$99
      000586 03                    2486 	.db	3
      000587 01                    2487 	.sleb128	1
      000588 01                    2488 	.db	1
      000589 09                    2489 	.db	9
      00058A 00 05                 2490 	.dw	Smain$main$101-Smain$main$100
      00058C 03                    2491 	.db	3
      00058D 01                    2492 	.sleb128	1
      00058E 01                    2493 	.db	1
      00058F 09                    2494 	.db	9
      000590 00 02                 2495 	.dw	Smain$main$102-Smain$main$101
      000592 03                    2496 	.db	3
      000593 01                    2497 	.sleb128	1
      000594 01                    2498 	.db	1
      000595 09                    2499 	.db	9
      000596 00 03                 2500 	.dw	Smain$main$104-Smain$main$102
      000598 03                    2501 	.db	3
      000599 03                    2502 	.sleb128	3
      00059A 01                    2503 	.db	1
      00059B 09                    2504 	.db	9
      00059C 00 00                 2505 	.dw	Smain$main$106-Smain$main$104
      00059E 03                    2506 	.db	3
      00059F 02                    2507 	.sleb128	2
      0005A0 01                    2508 	.db	1
      0005A1 09                    2509 	.db	9
      0005A2 00 03                 2510 	.dw	Smain$main$107-Smain$main$106
      0005A4 03                    2511 	.db	3
      0005A5 01                    2512 	.sleb128	1
      0005A6 01                    2513 	.db	1
      0005A7 09                    2514 	.db	9
      0005A8 00 06                 2515 	.dw	Smain$main$108-Smain$main$107
      0005AA 03                    2516 	.db	3
      0005AB 01                    2517 	.sleb128	1
      0005AC 01                    2518 	.db	1
      0005AD 09                    2519 	.db	9
      0005AE 00 03                 2520 	.dw	Smain$main$109-Smain$main$108
      0005B0 03                    2521 	.db	3
      0005B1 01                    2522 	.sleb128	1
      0005B2 01                    2523 	.db	1
      0005B3 09                    2524 	.db	9
      0005B4 00 03                 2525 	.dw	Smain$main$111-Smain$main$109
      0005B6 03                    2526 	.db	3
      0005B7 09                    2527 	.sleb128	9
      0005B8 01                    2528 	.db	1
      0005B9 09                    2529 	.db	9
      0005BA 00 00                 2530 	.dw	Smain$main$113-Smain$main$111
      0005BC 03                    2531 	.db	3
      0005BD 02                    2532 	.sleb128	2
      0005BE 01                    2533 	.db	1
      0005BF 09                    2534 	.db	9
      0005C0 00 03                 2535 	.dw	Smain$main$114-Smain$main$113
      0005C2 03                    2536 	.db	3
      0005C3 01                    2537 	.sleb128	1
      0005C4 01                    2538 	.db	1
      0005C5 09                    2539 	.db	9
      0005C6 00 03                 2540 	.dw	Smain$main$115-Smain$main$114
      0005C8 03                    2541 	.db	3
      0005C9 01                    2542 	.sleb128	1
      0005CA 01                    2543 	.db	1
      0005CB 09                    2544 	.db	9
      0005CC 00 06                 2545 	.dw	Smain$main$116-Smain$main$115
      0005CE 03                    2546 	.db	3
      0005CF 01                    2547 	.sleb128	1
      0005D0 01                    2548 	.db	1
      0005D1 09                    2549 	.db	9
      0005D2 00 06                 2550 	.dw	Smain$main$117-Smain$main$116
      0005D4 03                    2551 	.db	3
      0005D5 01                    2552 	.sleb128	1
      0005D6 01                    2553 	.db	1
      0005D7 09                    2554 	.db	9
      0005D8 00 06                 2555 	.dw	Smain$main$118-Smain$main$117
      0005DA 03                    2556 	.db	3
      0005DB 01                    2557 	.sleb128	1
      0005DC 01                    2558 	.db	1
      0005DD 09                    2559 	.db	9
      0005DE 00 06                 2560 	.dw	Smain$main$119-Smain$main$118
      0005E0 03                    2561 	.db	3
      0005E1 01                    2562 	.sleb128	1
      0005E2 01                    2563 	.db	1
      0005E3 09                    2564 	.db	9
      0005E4 00 03                 2565 	.dw	Smain$main$120-Smain$main$119
      0005E6 03                    2566 	.db	3
      0005E7 01                    2567 	.sleb128	1
      0005E8 01                    2568 	.db	1
      0005E9 09                    2569 	.db	9
      0005EA 00 03                 2570 	.dw	Smain$main$122-Smain$main$120
      0005EC 03                    2571 	.db	3
      0005ED 02                    2572 	.sleb128	2
      0005EE 01                    2573 	.db	1
      0005EF 09                    2574 	.db	9
      0005F0 00 00                 2575 	.dw	Smain$main$124-Smain$main$122
      0005F2 03                    2576 	.db	3
      0005F3 02                    2577 	.sleb128	2
      0005F4 01                    2578 	.db	1
      0005F5 09                    2579 	.db	9
      0005F6 00 13                 2580 	.dw	Smain$main$125-Smain$main$124
      0005F8 03                    2581 	.db	3
      0005F9 01                    2582 	.sleb128	1
      0005FA 01                    2583 	.db	1
      0005FB 09                    2584 	.db	9
      0005FC 00 03                 2585 	.dw	Smain$main$126-Smain$main$125
      0005FE 03                    2586 	.db	3
      0005FF 01                    2587 	.sleb128	1
      000600 01                    2588 	.db	1
      000601 09                    2589 	.db	9
      000602 00 03                 2590 	.dw	Smain$main$127-Smain$main$126
      000604 03                    2591 	.db	3
      000605 02                    2592 	.sleb128	2
      000606 01                    2593 	.db	1
      000607 09                    2594 	.db	9
      000608 00 10                 2595 	.dw	Smain$main$129-Smain$main$127
      00060A 03                    2596 	.db	3
      00060B 02                    2597 	.sleb128	2
      00060C 01                    2598 	.db	1
      00060D 09                    2599 	.db	9
      00060E 00 09                 2600 	.dw	Smain$main$130-Smain$main$129
      000610 03                    2601 	.db	3
      000611 01                    2602 	.sleb128	1
      000612 01                    2603 	.db	1
      000613 09                    2604 	.db	9
      000614 00 10                 2605 	.dw	Smain$main$131-Smain$main$130
      000616 03                    2606 	.db	3
      000617 01                    2607 	.sleb128	1
      000618 01                    2608 	.db	1
      000619 09                    2609 	.db	9
      00061A 00 09                 2610 	.dw	Smain$main$133-Smain$main$131
      00061C 03                    2611 	.db	3
      00061D 7C                    2612 	.sleb128	-4
      00061E 01                    2613 	.db	1
      00061F 09                    2614 	.db	9
      000620 00 0F                 2615 	.dw	Smain$main$134-Smain$main$133
      000622 03                    2616 	.db	3
      000623 07                    2617 	.sleb128	7
      000624 01                    2618 	.db	1
      000625 09                    2619 	.db	9
      000626 00 03                 2620 	.dw	Smain$main$135-Smain$main$134
      000628 03                    2621 	.db	3
      000629 01                    2622 	.sleb128	1
      00062A 01                    2623 	.db	1
      00062B 09                    2624 	.db	9
      00062C 00 03                 2625 	.dw	Smain$main$136-Smain$main$135
      00062E 03                    2626 	.db	3
      00062F 01                    2627 	.sleb128	1
      000630 01                    2628 	.db	1
      000631 09                    2629 	.db	9
      000632 00 03                 2630 	.dw	Smain$main$137-Smain$main$136
      000634 03                    2631 	.db	3
      000635 02                    2632 	.sleb128	2
      000636 01                    2633 	.db	1
      000637 09                    2634 	.db	9
      000638 00 00                 2635 	.dw	Smain$main$139-Smain$main$137
      00063A 03                    2636 	.db	3
      00063B 02                    2637 	.sleb128	2
      00063C 01                    2638 	.db	1
      00063D 09                    2639 	.db	9
      00063E 00 03                 2640 	.dw	Smain$main$140-Smain$main$139
      000640 03                    2641 	.db	3
      000641 01                    2642 	.sleb128	1
      000642 01                    2643 	.db	1
      000643 09                    2644 	.db	9
      000644 00 03                 2645 	.dw	Smain$main$141-Smain$main$140
      000646 03                    2646 	.db	3
      000647 01                    2647 	.sleb128	1
      000648 01                    2648 	.db	1
      000649 09                    2649 	.db	9
      00064A 00 06                 2650 	.dw	Smain$main$142-Smain$main$141
      00064C 03                    2651 	.db	3
      00064D 01                    2652 	.sleb128	1
      00064E 01                    2653 	.db	1
      00064F 09                    2654 	.db	9
      000650 00 06                 2655 	.dw	Smain$main$143-Smain$main$142
      000652 03                    2656 	.db	3
      000653 01                    2657 	.sleb128	1
      000654 01                    2658 	.db	1
      000655 09                    2659 	.db	9
      000656 00 06                 2660 	.dw	Smain$main$144-Smain$main$143
      000658 03                    2661 	.db	3
      000659 01                    2662 	.sleb128	1
      00065A 01                    2663 	.db	1
      00065B 09                    2664 	.db	9
      00065C 00 06                 2665 	.dw	Smain$main$145-Smain$main$144
      00065E 03                    2666 	.db	3
      00065F 01                    2667 	.sleb128	1
      000660 01                    2668 	.db	1
      000661 09                    2669 	.db	9
      000662 00 06                 2670 	.dw	Smain$main$146-Smain$main$145
      000664 03                    2671 	.db	3
      000665 01                    2672 	.sleb128	1
      000666 01                    2673 	.db	1
      000667 09                    2674 	.db	9
      000668 00 06                 2675 	.dw	Smain$main$147-Smain$main$146
      00066A 03                    2676 	.db	3
      00066B 01                    2677 	.sleb128	1
      00066C 01                    2678 	.db	1
      00066D 09                    2679 	.db	9
      00066E 00 04                 2680 	.dw	Smain$main$148-Smain$main$147
      000670 03                    2681 	.db	3
      000671 01                    2682 	.sleb128	1
      000672 01                    2683 	.db	1
      000673 09                    2684 	.db	9
      000674 00 04                 2685 	.dw	Smain$main$149-Smain$main$148
      000676 03                    2686 	.db	3
      000677 01                    2687 	.sleb128	1
      000678 01                    2688 	.db	1
      000679 09                    2689 	.db	9
      00067A 00 03                 2690 	.dw	Smain$main$150-Smain$main$149
      00067C 03                    2691 	.db	3
      00067D 01                    2692 	.sleb128	1
      00067E 01                    2693 	.db	1
      00067F 09                    2694 	.db	9
      000680 00 03                 2695 	.dw	Smain$main$152-Smain$main$150
      000682 03                    2696 	.db	3
      000683 03                    2697 	.sleb128	3
      000684 01                    2698 	.db	1
      000685 09                    2699 	.db	9
      000686 00 00                 2700 	.dw	Smain$main$154-Smain$main$152
      000688 03                    2701 	.db	3
      000689 02                    2702 	.sleb128	2
      00068A 01                    2703 	.db	1
      00068B 09                    2704 	.db	9
      00068C 00 06                 2705 	.dw	Smain$main$155-Smain$main$154
      00068E 03                    2706 	.db	3
      00068F 01                    2707 	.sleb128	1
      000690 01                    2708 	.db	1
      000691 09                    2709 	.db	9
      000692 00 06                 2710 	.dw	Smain$main$156-Smain$main$155
      000694 03                    2711 	.db	3
      000695 01                    2712 	.sleb128	1
      000696 01                    2713 	.db	1
      000697 09                    2714 	.db	9
      000698 00 06                 2715 	.dw	Smain$main$157-Smain$main$156
      00069A 03                    2716 	.db	3
      00069B 01                    2717 	.sleb128	1
      00069C 01                    2718 	.db	1
      00069D 09                    2719 	.db	9
      00069E 00 06                 2720 	.dw	Smain$main$158-Smain$main$157
      0006A0 03                    2721 	.db	3
      0006A1 03                    2722 	.sleb128	3
      0006A2 01                    2723 	.db	1
      0006A3 09                    2724 	.db	9
      0006A4 00 13                 2725 	.dw	Smain$main$159-Smain$main$158
      0006A6 03                    2726 	.db	3
      0006A7 01                    2727 	.sleb128	1
      0006A8 01                    2728 	.db	1
      0006A9 09                    2729 	.db	9
      0006AA 00 03                 2730 	.dw	Smain$main$160-Smain$main$159
      0006AC 03                    2731 	.db	3
      0006AD 01                    2732 	.sleb128	1
      0006AE 01                    2733 	.db	1
      0006AF 09                    2734 	.db	9
      0006B0 00 03                 2735 	.dw	Smain$main$161-Smain$main$160
      0006B2 03                    2736 	.db	3
      0006B3 01                    2737 	.sleb128	1
      0006B4 01                    2738 	.db	1
      0006B5 09                    2739 	.db	9
      0006B6 00 03                 2740 	.dw	Smain$main$162-Smain$main$161
      0006B8 03                    2741 	.db	3
      0006B9 01                    2742 	.sleb128	1
      0006BA 01                    2743 	.db	1
      0006BB 09                    2744 	.db	9
      0006BC 00 03                 2745 	.dw	Smain$main$163-Smain$main$162
      0006BE 03                    2746 	.db	3
      0006BF 01                    2747 	.sleb128	1
      0006C0 01                    2748 	.db	1
      0006C1 09                    2749 	.db	9
      0006C2 00 09                 2750 	.dw	Smain$main$164-Smain$main$163
      0006C4 03                    2751 	.db	3
      0006C5 02                    2752 	.sleb128	2
      0006C6 01                    2753 	.db	1
      0006C7 09                    2754 	.db	9
      0006C8 00 03                 2755 	.dw	Smain$main$165-Smain$main$164
      0006CA 03                    2756 	.db	3
      0006CB 01                    2757 	.sleb128	1
      0006CC 01                    2758 	.db	1
      0006CD 09                    2759 	.db	9
      0006CE 00 03                 2760 	.dw	Smain$main$166-Smain$main$165
      0006D0 03                    2761 	.db	3
      0006D1 01                    2762 	.sleb128	1
      0006D2 01                    2763 	.db	1
      0006D3 09                    2764 	.db	9
      0006D4 00 03                 2765 	.dw	Smain$main$167-Smain$main$166
      0006D6 03                    2766 	.db	3
      0006D7 01                    2767 	.sleb128	1
      0006D8 01                    2768 	.db	1
      0006D9 09                    2769 	.db	9
      0006DA 00 03                 2770 	.dw	Smain$main$168-Smain$main$167
      0006DC 03                    2771 	.db	3
      0006DD 01                    2772 	.sleb128	1
      0006DE 01                    2773 	.db	1
      0006DF 09                    2774 	.db	9
      0006E0 00 09                 2775 	.dw	Smain$main$169-Smain$main$168
      0006E2 03                    2776 	.db	3
      0006E3 01                    2777 	.sleb128	1
      0006E4 01                    2778 	.db	1
      0006E5 09                    2779 	.db	9
      0006E6 00 03                 2780 	.dw	Smain$main$170-Smain$main$169
      0006E8 03                    2781 	.db	3
      0006E9 01                    2782 	.sleb128	1
      0006EA 01                    2783 	.db	1
      0006EB 09                    2784 	.db	9
      0006EC 00 03                 2785 	.dw	Smain$main$171-Smain$main$170
      0006EE 03                    2786 	.db	3
      0006EF 01                    2787 	.sleb128	1
      0006F0 01                    2788 	.db	1
      0006F1 09                    2789 	.db	9
      0006F2 00 09                 2790 	.dw	Smain$main$172-Smain$main$171
      0006F4 03                    2791 	.db	3
      0006F5 01                    2792 	.sleb128	1
      0006F6 01                    2793 	.db	1
      0006F7 09                    2794 	.db	9
      0006F8 00 03                 2795 	.dw	Smain$main$173-Smain$main$172
      0006FA 03                    2796 	.db	3
      0006FB 01                    2797 	.sleb128	1
      0006FC 01                    2798 	.db	1
      0006FD 09                    2799 	.db	9
      0006FE 00 03                 2800 	.dw	Smain$main$174-Smain$main$173
      000700 03                    2801 	.db	3
      000701 01                    2802 	.sleb128	1
      000702 01                    2803 	.db	1
      000703 09                    2804 	.db	9
      000704 00 09                 2805 	.dw	Smain$main$175-Smain$main$174
      000706 03                    2806 	.db	3
      000707 01                    2807 	.sleb128	1
      000708 01                    2808 	.db	1
      000709 09                    2809 	.db	9
      00070A 00 03                 2810 	.dw	Smain$main$176-Smain$main$175
      00070C 03                    2811 	.db	3
      00070D 01                    2812 	.sleb128	1
      00070E 01                    2813 	.db	1
      00070F 09                    2814 	.db	9
      000710 00 03                 2815 	.dw	Smain$main$177-Smain$main$176
      000712 03                    2816 	.db	3
      000713 01                    2817 	.sleb128	1
      000714 01                    2818 	.db	1
      000715 09                    2819 	.db	9
      000716 00 09                 2820 	.dw	Smain$main$178-Smain$main$177
      000718 03                    2821 	.db	3
      000719 01                    2822 	.sleb128	1
      00071A 01                    2823 	.db	1
      00071B 09                    2824 	.db	9
      00071C 00 13                 2825 	.dw	Smain$main$179-Smain$main$178
      00071E 03                    2826 	.db	3
      00071F 02                    2827 	.sleb128	2
      000720 01                    2828 	.db	1
      000721 09                    2829 	.db	9
      000722 00 03                 2830 	.dw	Smain$main$180-Smain$main$179
      000724 03                    2831 	.db	3
      000725 02                    2832 	.sleb128	2
      000726 01                    2833 	.db	1
      000727 09                    2834 	.db	9
      000728 00 03                 2835 	.dw	Smain$main$181-Smain$main$180
      00072A 03                    2836 	.db	3
      00072B 01                    2837 	.sleb128	1
      00072C 01                    2838 	.db	1
      00072D 09                    2839 	.db	9
      00072E 00 06                 2840 	.dw	Smain$main$182-Smain$main$181
      000730 03                    2841 	.db	3
      000731 01                    2842 	.sleb128	1
      000732 01                    2843 	.db	1
      000733 09                    2844 	.db	9
      000734 00 06                 2845 	.dw	Smain$main$183-Smain$main$182
      000736 03                    2846 	.db	3
      000737 01                    2847 	.sleb128	1
      000738 01                    2848 	.db	1
      000739 09                    2849 	.db	9
      00073A 00 06                 2850 	.dw	Smain$main$184-Smain$main$183
      00073C 03                    2851 	.db	3
      00073D 01                    2852 	.sleb128	1
      00073E 01                    2853 	.db	1
      00073F 09                    2854 	.db	9
      000740 00 06                 2855 	.dw	Smain$main$185-Smain$main$184
      000742 03                    2856 	.db	3
      000743 01                    2857 	.sleb128	1
      000744 01                    2858 	.db	1
      000745 09                    2859 	.db	9
      000746 00 06                 2860 	.dw	Smain$main$186-Smain$main$185
      000748 03                    2861 	.db	3
      000749 01                    2862 	.sleb128	1
      00074A 01                    2863 	.db	1
      00074B 09                    2864 	.db	9
      00074C 00 06                 2865 	.dw	Smain$main$187-Smain$main$186
      00074E 03                    2866 	.db	3
      00074F 01                    2867 	.sleb128	1
      000750 01                    2868 	.db	1
      000751 09                    2869 	.db	9
      000752 00 04                 2870 	.dw	Smain$main$188-Smain$main$187
      000754 03                    2871 	.db	3
      000755 01                    2872 	.sleb128	1
      000756 01                    2873 	.db	1
      000757 09                    2874 	.db	9
      000758 00 04                 2875 	.dw	Smain$main$189-Smain$main$188
      00075A 03                    2876 	.db	3
      00075B 01                    2877 	.sleb128	1
      00075C 01                    2878 	.db	1
      00075D 09                    2879 	.db	9
      00075E 00 03                 2880 	.dw	Smain$main$190-Smain$main$189
      000760 03                    2881 	.db	3
      000761 01                    2882 	.sleb128	1
      000762 01                    2883 	.db	1
      000763 09                    2884 	.db	9
      000764 00 03                 2885 	.dw	Smain$main$192-Smain$main$190
      000766 03                    2886 	.db	3
      000767 03                    2887 	.sleb128	3
      000768 01                    2888 	.db	1
      000769 09                    2889 	.db	9
      00076A 00 00                 2890 	.dw	Smain$main$194-Smain$main$192
      00076C 03                    2891 	.db	3
      00076D 03                    2892 	.sleb128	3
      00076E 01                    2893 	.db	1
      00076F 09                    2894 	.db	9
      000770 00 13                 2895 	.dw	Smain$main$195-Smain$main$194
      000772 03                    2896 	.db	3
      000773 01                    2897 	.sleb128	1
      000774 01                    2898 	.db	1
      000775 09                    2899 	.db	9
      000776 00 03                 2900 	.dw	Smain$main$196-Smain$main$195
      000778 03                    2901 	.db	3
      000779 01                    2902 	.sleb128	1
      00077A 01                    2903 	.db	1
      00077B 09                    2904 	.db	9
      00077C 00 03                 2905 	.dw	Smain$main$197-Smain$main$196
      00077E 03                    2906 	.db	3
      00077F 02                    2907 	.sleb128	2
      000780 01                    2908 	.db	1
      000781 09                    2909 	.db	9
      000782 00 10                 2910 	.dw	Smain$main$199-Smain$main$197
      000784 03                    2911 	.db	3
      000785 02                    2912 	.sleb128	2
      000786 01                    2913 	.db	1
      000787 09                    2914 	.db	9
      000788 00 09                 2915 	.dw	Smain$main$200-Smain$main$199
      00078A 03                    2916 	.db	3
      00078B 01                    2917 	.sleb128	1
      00078C 01                    2918 	.db	1
      00078D 09                    2919 	.db	9
      00078E 00 10                 2920 	.dw	Smain$main$201-Smain$main$200
      000790 03                    2921 	.db	3
      000791 01                    2922 	.sleb128	1
      000792 01                    2923 	.db	1
      000793 09                    2924 	.db	9
      000794 00 09                 2925 	.dw	Smain$main$203-Smain$main$201
      000796 03                    2926 	.db	3
      000797 7C                    2927 	.sleb128	-4
      000798 01                    2928 	.db	1
      000799 09                    2929 	.db	9
      00079A 00 0F                 2930 	.dw	Smain$main$204-Smain$main$203
      00079C 03                    2931 	.db	3
      00079D 07                    2932 	.sleb128	7
      00079E 01                    2933 	.db	1
      00079F 09                    2934 	.db	9
      0007A0 00 09                 2935 	.dw	Smain$main$205-Smain$main$204
      0007A2 03                    2936 	.db	3
      0007A3 01                    2937 	.sleb128	1
      0007A4 01                    2938 	.db	1
      0007A5 09                    2939 	.db	9
      0007A6 00 04                 2940 	.dw	Smain$main$206-Smain$main$205
      0007A8 03                    2941 	.db	3
      0007A9 01                    2942 	.sleb128	1
      0007AA 01                    2943 	.db	1
      0007AB 09                    2944 	.db	9
      0007AC 00 04                 2945 	.dw	Smain$main$207-Smain$main$206
      0007AE 03                    2946 	.db	3
      0007AF 01                    2947 	.sleb128	1
      0007B0 01                    2948 	.db	1
      0007B1 09                    2949 	.db	9
      0007B2 00 0A                 2950 	.dw	Smain$main$208-Smain$main$207
      0007B4 03                    2951 	.db	3
      0007B5 01                    2952 	.sleb128	1
      0007B6 01                    2953 	.db	1
      0007B7 09                    2954 	.db	9
      0007B8 00 04                 2955 	.dw	Smain$main$209-Smain$main$208
      0007BA 03                    2956 	.db	3
      0007BB 01                    2957 	.sleb128	1
      0007BC 01                    2958 	.db	1
      0007BD 09                    2959 	.db	9
      0007BE 00 11                 2960 	.dw	Smain$main$210-Smain$main$209
      0007C0 03                    2961 	.db	3
      0007C1 01                    2962 	.sleb128	1
      0007C2 01                    2963 	.db	1
      0007C3 09                    2964 	.db	9
      0007C4 00 02                 2965 	.dw	Smain$main$211-Smain$main$210
      0007C6 03                    2966 	.db	3
      0007C7 02                    2967 	.sleb128	2
      0007C8 01                    2968 	.db	1
      0007C9 09                    2969 	.db	9
      0007CA 00 0C                 2970 	.dw	Smain$main$213-Smain$main$211
      0007CC 03                    2971 	.db	3
      0007CD 02                    2972 	.sleb128	2
      0007CE 01                    2973 	.db	1
      0007CF 09                    2974 	.db	9
      0007D0 00 03                 2975 	.dw	Smain$main$214-Smain$main$213
      0007D2 03                    2976 	.db	3
      0007D3 01                    2977 	.sleb128	1
      0007D4 01                    2978 	.db	1
      0007D5 09                    2979 	.db	9
      0007D6 00 03                 2980 	.dw	Smain$main$215-Smain$main$214
      0007D8 03                    2981 	.db	3
      0007D9 01                    2982 	.sleb128	1
      0007DA 01                    2983 	.db	1
      0007DB 09                    2984 	.db	9
      0007DC 00 03                 2985 	.dw	Smain$main$216-Smain$main$215
      0007DE 03                    2986 	.db	3
      0007DF 01                    2987 	.sleb128	1
      0007E0 01                    2988 	.db	1
      0007E1 09                    2989 	.db	9
      0007E2 00 0E                 2990 	.dw	Smain$main$217-Smain$main$216
      0007E4 03                    2991 	.db	3
      0007E5 01                    2992 	.sleb128	1
      0007E6 01                    2993 	.db	1
      0007E7 09                    2994 	.db	9
      0007E8 00 13                 2995 	.dw	Smain$main$218-Smain$main$217
      0007EA 03                    2996 	.db	3
      0007EB 01                    2997 	.sleb128	1
      0007EC 01                    2998 	.db	1
      0007ED 09                    2999 	.db	9
      0007EE 00 09                 3000 	.dw	Smain$main$219-Smain$main$218
      0007F0 03                    3001 	.db	3
      0007F1 02                    3002 	.sleb128	2
      0007F2 01                    3003 	.db	1
      0007F3 09                    3004 	.db	9
      0007F4 00 03                 3005 	.dw	Smain$main$220-Smain$main$219
      0007F6 03                    3006 	.db	3
      0007F7 01                    3007 	.sleb128	1
      0007F8 01                    3008 	.db	1
      0007F9 09                    3009 	.db	9
      0007FA 00 09                 3010 	.dw	Smain$main$221-Smain$main$220
      0007FC 03                    3011 	.db	3
      0007FD 01                    3012 	.sleb128	1
      0007FE 01                    3013 	.db	1
      0007FF 09                    3014 	.db	9
      000800 00 0C                 3015 	.dw	Smain$main$222-Smain$main$221
      000802 03                    3016 	.db	3
      000803 01                    3017 	.sleb128	1
      000804 01                    3018 	.db	1
      000805 09                    3019 	.db	9
      000806 00 06                 3020 	.dw	Smain$main$223-Smain$main$222
      000808 03                    3021 	.db	3
      000809 01                    3022 	.sleb128	1
      00080A 01                    3023 	.db	1
      00080B 09                    3024 	.db	9
      00080C 00 02                 3025 	.dw	Smain$main$224-Smain$main$223
      00080E 03                    3026 	.db	3
      00080F 01                    3027 	.sleb128	1
      000810 01                    3028 	.db	1
      000811 09                    3029 	.db	9
      000812 00 05                 3030 	.dw	Smain$main$225-Smain$main$224
      000814 03                    3031 	.db	3
      000815 01                    3032 	.sleb128	1
      000816 01                    3033 	.db	1
      000817 09                    3034 	.db	9
      000818 00 02                 3035 	.dw	Smain$main$226-Smain$main$225
      00081A 03                    3036 	.db	3
      00081B 02                    3037 	.sleb128	2
      00081C 01                    3038 	.db	1
      00081D 09                    3039 	.db	9
      00081E 00 18                 3040 	.dw	Smain$main$227-Smain$main$226
      000820 03                    3041 	.db	3
      000821 01                    3042 	.sleb128	1
      000822 01                    3043 	.db	1
      000823 09                    3044 	.db	9
      000824 00 0D                 3045 	.dw	Smain$main$228-Smain$main$227
      000826 03                    3046 	.db	3
      000827 01                    3047 	.sleb128	1
      000828 01                    3048 	.db	1
      000829 09                    3049 	.db	9
      00082A 00 0A                 3050 	.dw	Smain$main$229-Smain$main$228
      00082C 03                    3051 	.db	3
      00082D 01                    3052 	.sleb128	1
      00082E 01                    3053 	.db	1
      00082F 09                    3054 	.db	9
      000830 00 10                 3055 	.dw	Smain$main$231-Smain$main$229
      000832 03                    3056 	.db	3
      000833 02                    3057 	.sleb128	2
      000834 01                    3058 	.db	1
      000835 09                    3059 	.db	9
      000836 00 02                 3060 	.dw	Smain$main$232-Smain$main$231
      000838 03                    3061 	.db	3
      000839 01                    3062 	.sleb128	1
      00083A 01                    3063 	.db	1
      00083B 09                    3064 	.db	9
      00083C 00 02                 3065 	.dw	Smain$main$235-Smain$main$232
      00083E 03                    3066 	.db	3
      00083F 69                    3067 	.sleb128	-23
      000840 01                    3068 	.db	1
      000841 09                    3069 	.db	9
      000842 00 08                 3070 	.dw	Smain$main$236-Smain$main$235
      000844 03                    3071 	.db	3
      000845 1A                    3072 	.sleb128	26
      000846 01                    3073 	.db	1
      000847 09                    3074 	.db	9
      000848 00 00                 3075 	.dw	Smain$main$237-Smain$main$236
      00084A 03                    3076 	.db	3
      00084B 01                    3077 	.sleb128	1
      00084C 01                    3078 	.db	1
      00084D 09                    3079 	.db	9
      00084E 00 03                 3080 	.dw	Smain$main$238-Smain$main$237
      000850 03                    3081 	.db	3
      000851 01                    3082 	.sleb128	1
      000852 01                    3083 	.db	1
      000853 09                    3084 	.db	9
      000854 00 07                 3085 	.dw	Smain$main$239-Smain$main$238
      000856 03                    3086 	.db	3
      000857 01                    3087 	.sleb128	1
      000858 01                    3088 	.db	1
      000859 09                    3089 	.db	9
      00085A 00 07                 3090 	.dw	Smain$main$240-Smain$main$239
      00085C 03                    3091 	.db	3
      00085D 01                    3092 	.sleb128	1
      00085E 01                    3093 	.db	1
      00085F 09                    3094 	.db	9
      000860 00 03                 3095 	.dw	Smain$main$241-Smain$main$240
      000862 03                    3096 	.db	3
      000863 03                    3097 	.sleb128	3
      000864 01                    3098 	.db	1
      000865 09                    3099 	.db	9
      000866 00 00                 3100 	.dw	Smain$main$242-Smain$main$241
      000868 03                    3101 	.db	3
      000869 01                    3102 	.sleb128	1
      00086A 01                    3103 	.db	1
      00086B 09                    3104 	.db	9
      00086C 00 02                 3105 	.dw	Smain$main$243-Smain$main$242
      00086E 03                    3106 	.db	3
      00086F 01                    3107 	.sleb128	1
      000870 01                    3108 	.db	1
      000871 09                    3109 	.db	9
      000872 00 03                 3110 	.dw	Smain$main$244-Smain$main$243
      000874 03                    3111 	.db	3
      000875 01                    3112 	.sleb128	1
      000876 01                    3113 	.db	1
      000877 09                    3114 	.db	9
      000878 00 02                 3115 	.dw	Smain$main$245-Smain$main$244
      00087A 03                    3116 	.db	3
      00087B 03                    3117 	.sleb128	3
      00087C 01                    3118 	.db	1
      00087D 09                    3119 	.db	9
      00087E 00 03                 3120 	.dw	Smain$main$246-Smain$main$245
      000880 03                    3121 	.db	3
      000881 06                    3122 	.sleb128	6
      000882 01                    3123 	.db	1
      000883 09                    3124 	.db	9
      000884 00 06                 3125 	.dw	Smain$main$248-Smain$main$246
      000886 03                    3126 	.db	3
      000887 02                    3127 	.sleb128	2
      000888 01                    3128 	.db	1
      000889 09                    3129 	.db	9
      00088A 00 13                 3130 	.dw	Smain$main$250-Smain$main$248
      00088C 03                    3131 	.db	3
      00088D 02                    3132 	.sleb128	2
      00088E 01                    3133 	.db	1
      00088F 09                    3134 	.db	9
      000890 00 06                 3135 	.dw	Smain$main$252-Smain$main$250
      000892 03                    3136 	.db	3
      000893 06                    3137 	.sleb128	6
      000894 01                    3138 	.db	1
      000895 09                    3139 	.db	9
      000896 00 00                 3140 	.dw	Smain$main$253-Smain$main$252
      000898 03                    3141 	.db	3
      000899 01                    3142 	.sleb128	1
      00089A 01                    3143 	.db	1
      00089B 09                    3144 	.db	9
      00089C 00 03                 3145 	.dw	Smain$main$254-Smain$main$253
      00089E 03                    3146 	.db	3
      00089F 01                    3147 	.sleb128	1
      0008A0 01                    3148 	.db	1
      0008A1 09                    3149 	.db	9
      0008A2 00 13                 3150 	.dw	Smain$main$255-Smain$main$254
      0008A4 03                    3151 	.db	3
      0008A5 01                    3152 	.sleb128	1
      0008A6 01                    3153 	.db	1
      0008A7 09                    3154 	.db	9
      0008A8 00 03                 3155 	.dw	Smain$main$256-Smain$main$255
      0008AA 03                    3156 	.db	3
      0008AB 01                    3157 	.sleb128	1
      0008AC 01                    3158 	.db	1
      0008AD 09                    3159 	.db	9
      0008AE 00 03                 3160 	.dw	Smain$main$257-Smain$main$256
      0008B0 03                    3161 	.db	3
      0008B1 01                    3162 	.sleb128	1
      0008B2 01                    3163 	.db	1
      0008B3 09                    3164 	.db	9
      0008B4 00 03                 3165 	.dw	Smain$main$258-Smain$main$257
      0008B6 03                    3166 	.db	3
      0008B7 01                    3167 	.sleb128	1
      0008B8 01                    3168 	.db	1
      0008B9 09                    3169 	.db	9
      0008BA 00 03                 3170 	.dw	Smain$main$259-Smain$main$258
      0008BC 03                    3171 	.db	3
      0008BD 01                    3172 	.sleb128	1
      0008BE 01                    3173 	.db	1
      0008BF 09                    3174 	.db	9
      0008C0 00 03                 3175 	.dw	Smain$main$260-Smain$main$259
      0008C2 03                    3176 	.db	3
      0008C3 01                    3177 	.sleb128	1
      0008C4 01                    3178 	.db	1
      0008C5 09                    3179 	.db	9
      0008C6 00 03                 3180 	.dw	Smain$main$261-Smain$main$260
      0008C8 03                    3181 	.db	3
      0008C9 03                    3182 	.sleb128	3
      0008CA 01                    3183 	.db	1
      0008CB 09                    3184 	.db	9
      0008CC 00 02                 3185 	.dw	Smain$main$262-Smain$main$261
      0008CE 03                    3186 	.db	3
      0008CF 01                    3187 	.sleb128	1
      0008D0 01                    3188 	.db	1
      0008D1 09                    3189 	.db	9
      0008D2 00 01                 3190 	.dw	1+Smain$main$263-Smain$main$262
      0008D4 00                    3191 	.db	0
      0008D5 01                    3192 	.uleb128	1
      0008D6 01                    3193 	.db	1
      0008D7                       3194 Ldebug_line_end:
                                   3195 
                                   3196 	.area .debug_loc (NOLOAD)
      0000A0                       3197 Ldebug_loc_start:
      0000A0 00 00 03 F1           3198 	.dw	0,(Smain$main$48)
      0000A4 00 00 08 62           3199 	.dw	0,(Smain$main$264)
      0000A8 00 02                 3200 	.dw	2
      0000AA 86                    3201 	.db	134
      0000AB 01                    3202 	.sleb128	1
      0000AC 00 00 00 00           3203 	.dw	0,0
      0000B0 00 00 00 00           3204 	.dw	0,0
      0000B4 00 00 03 BD           3205 	.dw	0,(Smain$Timer0_ISR$29)
      0000B8 00 00 03 F1           3206 	.dw	0,(Smain$Timer0_ISR$46)
      0000BC 00 02                 3207 	.dw	2
      0000BE 86                    3208 	.db	134
      0000BF 01                    3209 	.sleb128	1
      0000C0 00 00 00 00           3210 	.dw	0,0
      0000C4 00 00 00 00           3211 	.dw	0,0
      0000C8 00 00 03 62           3212 	.dw	0,(Smain$UART1_ISR$1)
      0000CC 00 00 03 B2           3213 	.dw	0,(Smain$UART1_ISR$27)
      0000D0 00 02                 3214 	.dw	2
      0000D2 86                    3215 	.db	134
      0000D3 01                    3216 	.sleb128	1
      0000D4 00 00 00 00           3217 	.dw	0,0
      0000D8 00 00 00 00           3218 	.dw	0,0
                                   3219 
                                   3220 	.area .debug_abbrev (NOLOAD)
      000071                       3221 Ldebug_abbrev:
      000071 01                    3222 	.uleb128	1
      000072 11                    3223 	.uleb128	17
      000073 01                    3224 	.db	1
      000074 03                    3225 	.uleb128	3
      000075 08                    3226 	.uleb128	8
      000076 10                    3227 	.uleb128	16
      000077 06                    3228 	.uleb128	6
      000078 13                    3229 	.uleb128	19
      000079 0B                    3230 	.uleb128	11
      00007A 25                    3231 	.uleb128	37
      00007B 08                    3232 	.uleb128	8
      00007C 00                    3233 	.uleb128	0
      00007D 00                    3234 	.uleb128	0
      00007E 02                    3235 	.uleb128	2
      00007F 2E                    3236 	.uleb128	46
      000080 01                    3237 	.db	1
      000081 01                    3238 	.uleb128	1
      000082 13                    3239 	.uleb128	19
      000083 03                    3240 	.uleb128	3
      000084 08                    3241 	.uleb128	8
      000085 11                    3242 	.uleb128	17
      000086 01                    3243 	.uleb128	1
      000087 12                    3244 	.uleb128	18
      000088 01                    3245 	.uleb128	1
      000089 36                    3246 	.uleb128	54
      00008A 0B                    3247 	.uleb128	11
      00008B 3F                    3248 	.uleb128	63
      00008C 0C                    3249 	.uleb128	12
      00008D 40                    3250 	.uleb128	64
      00008E 06                    3251 	.uleb128	6
      00008F 00                    3252 	.uleb128	0
      000090 00                    3253 	.uleb128	0
      000091 03                    3254 	.uleb128	3
      000092 0B                    3255 	.uleb128	11
      000093 00                    3256 	.db	0
      000094 11                    3257 	.uleb128	17
      000095 01                    3258 	.uleb128	1
      000096 12                    3259 	.uleb128	18
      000097 01                    3260 	.uleb128	1
      000098 00                    3261 	.uleb128	0
      000099 00                    3262 	.uleb128	0
      00009A 04                    3263 	.uleb128	4
      00009B 34                    3264 	.uleb128	52
      00009C 00                    3265 	.db	0
      00009D 02                    3266 	.uleb128	2
      00009E 0A                    3267 	.uleb128	10
      00009F 03                    3268 	.uleb128	3
      0000A0 08                    3269 	.uleb128	8
      0000A1 49                    3270 	.uleb128	73
      0000A2 13                    3271 	.uleb128	19
      0000A3 00                    3272 	.uleb128	0
      0000A4 00                    3273 	.uleb128	0
      0000A5 05                    3274 	.uleb128	5
      0000A6 0B                    3275 	.uleb128	11
      0000A7 01                    3276 	.db	1
      0000A8 01                    3277 	.uleb128	1
      0000A9 13                    3278 	.uleb128	19
      0000AA 11                    3279 	.uleb128	17
      0000AB 01                    3280 	.uleb128	1
      0000AC 00                    3281 	.uleb128	0
      0000AD 00                    3282 	.uleb128	0
      0000AE 06                    3283 	.uleb128	6
      0000AF 0B                    3284 	.uleb128	11
      0000B0 01                    3285 	.db	1
      0000B1 11                    3286 	.uleb128	17
      0000B2 01                    3287 	.uleb128	1
      0000B3 00                    3288 	.uleb128	0
      0000B4 00                    3289 	.uleb128	0
      0000B5 07                    3290 	.uleb128	7
      0000B6 2E                    3291 	.uleb128	46
      0000B7 01                    3292 	.db	1
      0000B8 01                    3293 	.uleb128	1
      0000B9 13                    3294 	.uleb128	19
      0000BA 03                    3295 	.uleb128	3
      0000BB 08                    3296 	.uleb128	8
      0000BC 11                    3297 	.uleb128	17
      0000BD 01                    3298 	.uleb128	1
      0000BE 12                    3299 	.uleb128	18
      0000BF 01                    3300 	.uleb128	1
      0000C0 3F                    3301 	.uleb128	63
      0000C1 0C                    3302 	.uleb128	12
      0000C2 40                    3303 	.uleb128	64
      0000C3 06                    3304 	.uleb128	6
      0000C4 00                    3305 	.uleb128	0
      0000C5 00                    3306 	.uleb128	0
      0000C6 08                    3307 	.uleb128	8
      0000C7 0B                    3308 	.uleb128	11
      0000C8 01                    3309 	.db	1
      0000C9 01                    3310 	.uleb128	1
      0000CA 13                    3311 	.uleb128	19
      0000CB 11                    3312 	.uleb128	17
      0000CC 01                    3313 	.uleb128	1
      0000CD 12                    3314 	.uleb128	18
      0000CE 01                    3315 	.uleb128	1
      0000CF 00                    3316 	.uleb128	0
      0000D0 00                    3317 	.uleb128	0
      0000D1 09                    3318 	.uleb128	9
      0000D2 0B                    3319 	.uleb128	11
      0000D3 01                    3320 	.db	1
      0000D4 11                    3321 	.uleb128	17
      0000D5 01                    3322 	.uleb128	1
      0000D6 12                    3323 	.uleb128	18
      0000D7 01                    3324 	.uleb128	1
      0000D8 00                    3325 	.uleb128	0
      0000D9 00                    3326 	.uleb128	0
      0000DA 0A                    3327 	.uleb128	10
      0000DB 0B                    3328 	.uleb128	11
      0000DC 00                    3329 	.db	0
      0000DD 00                    3330 	.uleb128	0
      0000DE 00                    3331 	.uleb128	0
      0000DF 0B                    3332 	.uleb128	11
      0000E0 34                    3333 	.uleb128	52
      0000E1 00                    3334 	.db	0
      0000E2 03                    3335 	.uleb128	3
      0000E3 08                    3336 	.uleb128	8
      0000E4 49                    3337 	.uleb128	73
      0000E5 13                    3338 	.uleb128	19
      0000E6 00                    3339 	.uleb128	0
      0000E7 00                    3340 	.uleb128	0
      0000E8 0C                    3341 	.uleb128	12
      0000E9 24                    3342 	.uleb128	36
      0000EA 00                    3343 	.db	0
      0000EB 03                    3344 	.uleb128	3
      0000EC 08                    3345 	.uleb128	8
      0000ED 0B                    3346 	.uleb128	11
      0000EE 0B                    3347 	.uleb128	11
      0000EF 3E                    3348 	.uleb128	62
      0000F0 0B                    3349 	.uleb128	11
      0000F1 00                    3350 	.uleb128	0
      0000F2 00                    3351 	.uleb128	0
      0000F3 0D                    3352 	.uleb128	13
      0000F4 35                    3353 	.uleb128	53
      0000F5 00                    3354 	.db	0
      0000F6 49                    3355 	.uleb128	73
      0000F7 13                    3356 	.uleb128	19
      0000F8 00                    3357 	.uleb128	0
      0000F9 00                    3358 	.uleb128	0
      0000FA 0E                    3359 	.uleb128	14
      0000FB 34                    3360 	.uleb128	52
      0000FC 00                    3361 	.db	0
      0000FD 02                    3362 	.uleb128	2
      0000FE 0A                    3363 	.uleb128	10
      0000FF 03                    3364 	.uleb128	3
      000100 08                    3365 	.uleb128	8
      000101 3C                    3366 	.uleb128	60
      000102 0C                    3367 	.uleb128	12
      000103 3F                    3368 	.uleb128	63
      000104 0C                    3369 	.uleb128	12
      000105 49                    3370 	.uleb128	73
      000106 13                    3371 	.uleb128	19
      000107 00                    3372 	.uleb128	0
      000108 00                    3373 	.uleb128	0
      000109 0F                    3374 	.uleb128	15
      00010A 01                    3375 	.uleb128	1
      00010B 01                    3376 	.db	1
      00010C 01                    3377 	.uleb128	1
      00010D 13                    3378 	.uleb128	19
      00010E 0B                    3379 	.uleb128	11
      00010F 0B                    3380 	.uleb128	11
      000110 49                    3381 	.uleb128	73
      000111 13                    3382 	.uleb128	19
      000112 00                    3383 	.uleb128	0
      000113 00                    3384 	.uleb128	0
      000114 10                    3385 	.uleb128	16
      000115 21                    3386 	.uleb128	33
      000116 00                    3387 	.db	0
      000117 2F                    3388 	.uleb128	47
      000118 0B                    3389 	.uleb128	11
      000119 00                    3390 	.uleb128	0
      00011A 00                    3391 	.uleb128	0
      00011B 11                    3392 	.uleb128	17
      00011C 34                    3393 	.uleb128	52
      00011D 00                    3394 	.db	0
      00011E 02                    3395 	.uleb128	2
      00011F 0A                    3396 	.uleb128	10
      000120 03                    3397 	.uleb128	3
      000121 08                    3398 	.uleb128	8
      000122 3F                    3399 	.uleb128	63
      000123 0C                    3400 	.uleb128	12
      000124 49                    3401 	.uleb128	73
      000125 13                    3402 	.uleb128	19
      000126 00                    3403 	.uleb128	0
      000127 00                    3404 	.uleb128	0
      000128 00                    3405 	.uleb128	0
                                   3406 
                                   3407 	.area .debug_info (NOLOAD)
      00141A 00 00 14 67           3408 	.dw	0,Ldebug_info_end-Ldebug_info_start
      00141E                       3409 Ldebug_info_start:
      00141E 00 02                 3410 	.dw	2
      001420 00 00 00 71           3411 	.dw	0,(Ldebug_abbrev)
      001424 04                    3412 	.db	4
      001425 01                    3413 	.uleb128	1
      001426 43 3A 2F 42 53 50 2F  3414 	.ascii "C:/BSP/MG51xC9AE_MG51xB9AE_Series/SampleCode/ISP/ISP_UART1/main.c"
             4D 47 35 31 78 43 39
             41 45 5F 4D 47 35 31
             78 42 39 41 45 5F 53
             65 72 69 65 73 2F 53
             61 6D 70 6C 65 43 6F
             64 65 2F 49 53 50 2F
             49 53 50 5F 55 41 52
             54 31 2F 6D 61 69 6E
             2E 63
      001467 00                    3415 	.db	0
      001468 00 00 03 4F           3416 	.dw	0,(Ldebug_line_start+-4)
      00146C 01                    3417 	.db	1
      00146D 53 44 43 43 20 76 65  3418 	.ascii "SDCC version 4.2.6 #13647"
             72 73 69 6F 6E 20 34
             2E 32 2E 36 20 23 31
             33 36 34 37
      001486 00                    3419 	.db	0
      001487 02                    3420 	.uleb128	2
      001488 00 00 00 C2           3421 	.dw	0,194
      00148C 55 41 52 54 31 5F 49  3422 	.ascii "UART1_ISR"
             53 52
      001495 00                    3423 	.db	0
      001496 00 00 03 51           3424 	.dw	0,(_UART1_ISR)
      00149A 00 00 03 B2           3425 	.dw	0,(XG$UART1_ISR$0$0+1)
      00149E 03                    3426 	.db	3
      00149F 01                    3427 	.db	1
      0014A0 00 00 00 C8           3428 	.dw	0,(Ldebug_loc_start+40)
      0014A4 03                    3429 	.uleb128	3
      0014A5 00 00 03 68           3430 	.dw	0,(Smain$UART1_ISR$4)
      0014A9 00 00 03 85           3431 	.dw	0,(Smain$UART1_ISR$8)
      0014AD 03                    3432 	.uleb128	3
      0014AE 00 00 03 85           3433 	.dw	0,(Smain$UART1_ISR$10)
      0014B2 00 00 03 8A           3434 	.dw	0,(Smain$UART1_ISR$12)
      0014B6 03                    3435 	.uleb128	3
      0014B7 00 00 03 8F           3436 	.dw	0,(Smain$UART1_ISR$14)
      0014BB 00 00 03 94           3437 	.dw	0,(Smain$UART1_ISR$17)
      0014BF 03                    3438 	.uleb128	3
      0014C0 00 00 03 99           3439 	.dw	0,(Smain$UART1_ISR$19)
      0014C4 00 00 03 A3           3440 	.dw	0,(Smain$UART1_ISR$24)
      0014C8 04                    3441 	.uleb128	4
      0014C9 05                    3442 	.db	5
      0014CA 03                    3443 	.db	3
      0014CB 00 00 00 81           3444 	.dw	0,(_UART1_ISR_vo8temp_65536_162)
      0014CF 76 6F 38 74 65 6D 70  3445 	.ascii "vo8temp"
      0014D6 00                    3446 	.db	0
      0014D7 00 00 02 A7           3447 	.dw	0,679
      0014DB 00                    3448 	.uleb128	0
      0014DC 02                    3449 	.uleb128	2
      0014DD 00 00 01 03           3450 	.dw	0,259
      0014E1 54 69 6D 65 72 30 5F  3451 	.ascii "Timer0_ISR"
             49 53 52
      0014EB 00                    3452 	.db	0
      0014EC 00 00 03 B2           3453 	.dw	0,(_Timer0_ISR)
      0014F0 00 00 03 F1           3454 	.dw	0,(XG$Timer0_ISR$0$0+1)
      0014F4 03                    3455 	.db	3
      0014F5 01                    3456 	.db	1
      0014F6 00 00 00 B4           3457 	.dw	0,(Ldebug_loc_start+20)
      0014FA 05                    3458 	.uleb128	5
      0014FB 00 00 00 F3           3459 	.dw	0,243
      0014FF 00 00 03 C3           3460 	.dw	0,(Smain$Timer0_ISR$31)
      001503 03                    3461 	.uleb128	3
      001504 00 00 03 D7           3462 	.dw	0,(Smain$Timer0_ISR$34)
      001508 00 00 03 D9           3463 	.dw	0,(Smain$Timer0_ISR$36)
      00150C 00                    3464 	.uleb128	0
      00150D 06                    3465 	.uleb128	6
      00150E 00 00 03 DD           3466 	.dw	0,(Smain$Timer0_ISR$38)
      001512 03                    3467 	.uleb128	3
      001513 00 00 03 E6           3468 	.dw	0,(Smain$Timer0_ISR$41)
      001517 00 00 03 E8           3469 	.dw	0,(Smain$Timer0_ISR$43)
      00151B 00                    3470 	.uleb128	0
      00151C 00                    3471 	.uleb128	0
      00151D 07                    3472 	.uleb128	7
      00151E 00 00 01 EA           3473 	.dw	0,490
      001522 6D 61 69 6E           3474 	.ascii "main"
      001526 00                    3475 	.db	0
      001527 00 00 03 F1           3476 	.dw	0,(_main)
      00152B 00 00 08 62           3477 	.dw	0,(XG$main$0$0+1)
      00152F 01                    3478 	.db	1
      001530 00 00 00 A0           3479 	.dw	0,(Ldebug_loc_start)
      001534 05                    3480 	.uleb128	5
      001535 00 00 01 C8           3481 	.dw	0,456
      001539 00 00 04 17           3482 	.dw	0,(Smain$main$57)
      00153D 05                    3483 	.uleb128	5
      00153E 00 00 01 B7           3484 	.dw	0,439
      001542 00 00 04 1D           3485 	.dw	0,(Smain$main$59)
      001546 08                    3486 	.uleb128	8
      001547 00 00 01 4D           3487 	.dw	0,333
      00154B 00 00 04 C5           3488 	.dw	0,(Smain$main$87)
      00154F 00 00 04 C8           3489 	.dw	0,(Smain$main$91)
      001553 09                    3490 	.uleb128	9
      001554 00 00 04 31           3491 	.dw	0,(Smain$main$63)
      001558 00 00 04 BD           3492 	.dw	0,(Smain$main$85)
      00155C 03                    3493 	.uleb128	3
      00155D 00 00 04 B7           3494 	.dw	0,(Smain$main$80)
      001561 00 00 04 BB           3495 	.dw	0,(Smain$main$84)
      001565 00                    3496 	.uleb128	0
      001566 00                    3497 	.uleb128	0
      001567 06                    3498 	.uleb128	6
      001568 00 00 05 12           3499 	.dw	0,(Smain$main$95)
      00156C 03                    3500 	.uleb128	3
      00156D 00 00 05 12           3501 	.dw	0,(Smain$main$97)
      001571 00 00 05 22           3502 	.dw	0,(Smain$main$103)
      001575 03                    3503 	.uleb128	3
      001576 00 00 05 22           3504 	.dw	0,(Smain$main$105)
      00157A 00 00 05 31           3505 	.dw	0,(Smain$main$110)
      00157E 0A                    3506 	.uleb128	10
      00157F 03                    3507 	.uleb128	3
      001580 00 00 05 31           3508 	.dw	0,(Smain$main$112)
      001584 00 00 05 55           3509 	.dw	0,(Smain$main$121)
      001588 05                    3510 	.uleb128	5
      001589 00 00 01 81           3511 	.dw	0,385
      00158D 00 00 05 55           3512 	.dw	0,(Smain$main$123)
      001591 03                    3513 	.uleb128	3
      001592 00 00 05 7E           3514 	.dw	0,(Smain$main$128)
      001596 00 00 05 A0           3515 	.dw	0,(Smain$main$132)
      00159A 00                    3516 	.uleb128	0
      00159B 03                    3517 	.uleb128	3
      00159C 00 00 05 B8           3518 	.dw	0,(Smain$main$138)
      0015A0 00 00 05 F0           3519 	.dw	0,(Smain$main$151)
      0015A4 03                    3520 	.uleb128	3
      0015A5 00 00 05 F0           3521 	.dw	0,(Smain$main$153)
      0015A9 00 00 06 BD           3522 	.dw	0,(Smain$main$191)
      0015AD 06                    3523 	.uleb128	6
      0015AE 00 00 06 BD           3524 	.dw	0,(Smain$main$193)
      0015B2 03                    3525 	.uleb128	3
      0015B3 00 00 06 E6           3526 	.dw	0,(Smain$main$198)
      0015B7 00 00 07 08           3527 	.dw	0,(Smain$main$202)
      0015BB 09                    3528 	.uleb128	9
      0015BC 00 00 07 55           3529 	.dw	0,(Smain$main$212)
      0015C0 00 00 07 F2           3530 	.dw	0,(Smain$main$234)
      0015C4 03                    3531 	.uleb128	3
      0015C5 00 00 07 EE           3532 	.dw	0,(Smain$main$230)
      0015C9 00 00 07 F0           3533 	.dw	0,(Smain$main$233)
      0015CD 00                    3534 	.uleb128	0
      0015CE 00                    3535 	.uleb128	0
      0015CF 00                    3536 	.uleb128	0
      0015D0 00                    3537 	.uleb128	0
      0015D1 0A                    3538 	.uleb128	10
      0015D2 06                    3539 	.uleb128	6
      0015D3 00 00 08 1E           3540 	.dw	0,(Smain$main$247)
      0015D7 03                    3541 	.uleb128	3
      0015D8 00 00 08 31           3542 	.dw	0,(Smain$main$249)
      0015DC 00 00 08 34           3543 	.dw	0,(Smain$main$251)
      0015E0 00                    3544 	.uleb128	0
      0015E1 00                    3545 	.uleb128	0
      0015E2 0B                    3546 	.uleb128	11
      0015E3 76 6F 38 74 65 6D 70  3547 	.ascii "vo8temp"
      0015EA 00                    3548 	.db	0
      0015EB 00 00 02 A7           3549 	.dw	0,679
      0015EF 04                    3550 	.uleb128	4
      0015F0 05                    3551 	.db	5
      0015F1 03                    3552 	.db	3
      0015F2 00 00 00 82           3553 	.dw	0,(_main_vo16temp_65536_174)
      0015F6 76 6F 31 36 74 65 6D  3554 	.ascii "vo16temp"
             70
      0015FE 00                    3555 	.db	0
      0015FF 00 00 04 C4           3556 	.dw	0,1220
      001603 00                    3557 	.uleb128	0
      001604 0C                    3558 	.uleb128	12
      001605 75 6E 73 69 67 6E 65  3559 	.ascii "unsigned char"
             64 20 63 68 61 72
      001612 00                    3560 	.db	0
      001613 01                    3561 	.db	1
      001614 08                    3562 	.db	8
      001615 0D                    3563 	.uleb128	13
      001616 00 00 01 EA           3564 	.dw	0,490
      00161A 0E                    3565 	.uleb128	14
      00161B 05                    3566 	.db	5
      00161C 03                    3567 	.db	3
      00161D 00 00 00 21           3568 	.dw	0,(_bufhead)
      001621 62 75 66 68 65 61 64  3569 	.ascii "bufhead"
      001628 00                    3570 	.db	0
      001629 01                    3571 	.db	1
      00162A 01                    3572 	.db	1
      00162B 00 00 01 FB           3573 	.dw	0,507
      00162F 0C                    3574 	.uleb128	12
      001630 75 6E 73 69 67 6E 65  3575 	.ascii "unsigned int"
             64 20 69 6E 74
      00163C 00                    3576 	.db	0
      00163D 02                    3577 	.db	2
      00163E 07                    3578 	.db	7
      00163F 0D                    3579 	.uleb128	13
      001640 00 00 02 15           3580 	.dw	0,533
      001644 0E                    3581 	.uleb128	14
      001645 05                    3582 	.db	5
      001646 03                    3583 	.db	3
      001647 00 00 00 22           3584 	.dw	0,(_flash_address)
      00164B 66 6C 61 73 68 5F 61  3585 	.ascii "flash_address"
             64 64 72 65 73 73
      001658 00                    3586 	.db	0
      001659 01                    3587 	.db	1
      00165A 01                    3588 	.db	1
      00165B 00 00 02 25           3589 	.dw	0,549
      00165F 0E                    3590 	.uleb128	14
      001660 05                    3591 	.db	5
      001661 03                    3592 	.db	3
      001662 00 00 00 24           3593 	.dw	0,(_AP_size)
      001666 41 50 5F 73 69 7A 65  3594 	.ascii "AP_size"
      00166D 00                    3595 	.db	0
      00166E 01                    3596 	.db	1
      00166F 01                    3597 	.db	1
      001670 00 00 02 25           3598 	.dw	0,549
      001674 0E                    3599 	.uleb128	14
      001675 05                    3600 	.db	5
      001676 03                    3601 	.db	3
      001677 00 00 00 26           3602 	.dw	0,(_g_timer1Counter)
      00167B 67 5F 74 69 6D 65 72  3603 	.ascii "g_timer1Counter"
             31 43 6F 75 6E 74 65
             72
      00168A 00                    3604 	.db	0
      00168B 01                    3605 	.db	1
      00168C 01                    3606 	.db	1
      00168D 00 00 01 FB           3607 	.dw	0,507
      001691 0E                    3608 	.uleb128	14
      001692 05                    3609 	.db	5
      001693 03                    3610 	.db	3
      001694 00 00 00 27           3611 	.dw	0,(_count)
      001698 63 6F 75 6E 74        3612 	.ascii "count"
      00169D 00                    3613 	.db	0
      00169E 01                    3614 	.db	1
      00169F 01                    3615 	.db	1
      0016A0 00 00 01 FB           3616 	.dw	0,507
      0016A4 0E                    3617 	.uleb128	14
      0016A5 05                    3618 	.db	5
      0016A6 03                    3619 	.db	3
      0016A7 00 00 00 28           3620 	.dw	0,(_g_timer0Counter)
      0016AB 67 5F 74 69 6D 65 72  3621 	.ascii "g_timer0Counter"
             30 43 6F 75 6E 74 65
             72
      0016BA 00                    3622 	.db	0
      0016BB 01                    3623 	.db	1
      0016BC 01                    3624 	.db	1
      0016BD 00 00 02 25           3625 	.dw	0,549
      0016C1 0C                    3626 	.uleb128	12
      0016C2 75 6E 73 69 67 6E 65  3627 	.ascii "unsigned char"
             64 20 63 68 61 72
      0016CF 00                    3628 	.db	0
      0016D0 01                    3629 	.db	1
      0016D1 08                    3630 	.db	8
      0016D2 0E                    3631 	.uleb128	14
      0016D3 05                    3632 	.db	5
      0016D4 03                    3633 	.db	3
      0016D5 00 00 00 32           3634 	.dw	0,(_PID_highB)
      0016D9 50 49 44 5F 68 69 67  3635 	.ascii "PID_highB"
             68 42
      0016E2 00                    3636 	.db	0
      0016E3 01                    3637 	.db	1
      0016E4 01                    3638 	.db	1
      0016E5 00 00 02 A7           3639 	.dw	0,679
      0016E9 0E                    3640 	.uleb128	14
      0016EA 05                    3641 	.db	5
      0016EB 03                    3642 	.db	3
      0016EC 00 00 00 33           3643 	.dw	0,(_PID_lowB)
      0016F0 50 49 44 5F 6C 6F 77  3644 	.ascii "PID_lowB"
             42
      0016F8 00                    3645 	.db	0
      0016F9 01                    3646 	.db	1
      0016FA 01                    3647 	.db	1
      0016FB 00 00 02 A7           3648 	.dw	0,679
      0016FF 0E                    3649 	.uleb128	14
      001700 05                    3650 	.db	5
      001701 03                    3651 	.db	3
      001702 00 00 00 34           3652 	.dw	0,(_DID_highB)
      001706 44 49 44 5F 68 69 67  3653 	.ascii "DID_highB"
             68 42
      00170F 00                    3654 	.db	0
      001710 01                    3655 	.db	1
      001711 01                    3656 	.db	1
      001712 00 00 02 A7           3657 	.dw	0,679
      001716 0E                    3658 	.uleb128	14
      001717 05                    3659 	.db	5
      001718 03                    3660 	.db	3
      001719 00 00 00 35           3661 	.dw	0,(_DID_lowB)
      00171D 44 49 44 5F 6C 6F 77  3662 	.ascii "DID_lowB"
             42
      001725 00                    3663 	.db	0
      001726 01                    3664 	.db	1
      001727 01                    3665 	.db	1
      001728 00 00 02 A7           3666 	.dw	0,679
      00172C 0E                    3667 	.uleb128	14
      00172D 05                    3668 	.db	5
      00172E 03                    3669 	.db	3
      00172F 00 00 00 36           3670 	.dw	0,(_CONF0)
      001733 43 4F 4E 46 30        3671 	.ascii "CONF0"
      001738 00                    3672 	.db	0
      001739 01                    3673 	.db	1
      00173A 01                    3674 	.db	1
      00173B 00 00 02 A7           3675 	.dw	0,679
      00173F 0E                    3676 	.uleb128	14
      001740 05                    3677 	.db	5
      001741 03                    3678 	.db	3
      001742 00 00 00 37           3679 	.dw	0,(_CONF1)
      001746 43 4F 4E 46 31        3680 	.ascii "CONF1"
      00174B 00                    3681 	.db	0
      00174C 01                    3682 	.db	1
      00174D 01                    3683 	.db	1
      00174E 00 00 02 A7           3684 	.dw	0,679
      001752 0E                    3685 	.uleb128	14
      001753 05                    3686 	.db	5
      001754 03                    3687 	.db	3
      001755 00 00 00 38           3688 	.dw	0,(_CONF2)
      001759 43 4F 4E 46 32        3689 	.ascii "CONF2"
      00175E 00                    3690 	.db	0
      00175F 01                    3691 	.db	1
      001760 01                    3692 	.db	1
      001761 00 00 02 A7           3693 	.dw	0,679
      001765 0E                    3694 	.uleb128	14
      001766 05                    3695 	.db	5
      001767 03                    3696 	.db	3
      001768 00 00 00 39           3697 	.dw	0,(_CONF4)
      00176C 43 4F 4E 46 34        3698 	.ascii "CONF4"
      001771 00                    3699 	.db	0
      001772 01                    3700 	.db	1
      001773 01                    3701 	.db	1
      001774 00 00 02 A7           3702 	.dw	0,679
      001778 0E                    3703 	.uleb128	14
      001779 05                    3704 	.db	5
      00177A 03                    3705 	.db	3
      00177B 00 00 00 3A           3706 	.dw	0,(_recv_CONF0)
      00177F 72 65 63 76 5F 43 4F  3707 	.ascii "recv_CONF0"
             4E 46 30
      001789 00                    3708 	.db	0
      00178A 01                    3709 	.db	1
      00178B 01                    3710 	.db	1
      00178C 00 00 02 A7           3711 	.dw	0,679
      001790 0E                    3712 	.uleb128	14
      001791 05                    3713 	.db	5
      001792 03                    3714 	.db	3
      001793 00 00 00 3B           3715 	.dw	0,(_recv_CONF1)
      001797 72 65 63 76 5F 43 4F  3716 	.ascii "recv_CONF1"
             4E 46 31
      0017A1 00                    3717 	.db	0
      0017A2 01                    3718 	.db	1
      0017A3 01                    3719 	.db	1
      0017A4 00 00 02 A7           3720 	.dw	0,679
      0017A8 0E                    3721 	.uleb128	14
      0017A9 05                    3722 	.db	5
      0017AA 03                    3723 	.db	3
      0017AB 00 00 00 3C           3724 	.dw	0,(_recv_CONF2)
      0017AF 72 65 63 76 5F 43 4F  3725 	.ascii "recv_CONF2"
             4E 46 32
      0017B9 00                    3726 	.db	0
      0017BA 01                    3727 	.db	1
      0017BB 01                    3728 	.db	1
      0017BC 00 00 02 A7           3729 	.dw	0,679
      0017C0 0E                    3730 	.uleb128	14
      0017C1 05                    3731 	.db	5
      0017C2 03                    3732 	.db	3
      0017C3 00 00 00 3D           3733 	.dw	0,(_recv_CONF4)
      0017C7 72 65 63 76 5F 43 4F  3734 	.ascii "recv_CONF4"
             4E 46 34
      0017D1 00                    3735 	.db	0
      0017D2 01                    3736 	.db	1
      0017D3 01                    3737 	.db	1
      0017D4 00 00 02 A7           3738 	.dw	0,679
      0017D8 0C                    3739 	.uleb128	12
      0017D9 75 6E 73 69 67 6E 65  3740 	.ascii "unsigned long"
             64 20 6C 6F 6E 67
      0017E6 00                    3741 	.db	0
      0017E7 04                    3742 	.db	4
      0017E8 07                    3743 	.db	7
      0017E9 0D                    3744 	.uleb128	13
      0017EA 00 00 03 BE           3745 	.dw	0,958
      0017EE 0E                    3746 	.uleb128	14
      0017EF 05                    3747 	.db	5
      0017F0 03                    3748 	.db	3
      0017F1 00 00 00 2E           3749 	.dw	0,(_g_totalchecksum)
      0017F5 67 5F 74 6F 74 61 6C  3750 	.ascii "g_totalchecksum"
             63 68 65 63 6B 73 75
             6D
      001804 00                    3751 	.db	0
      001805 01                    3752 	.db	1
      001806 01                    3753 	.db	1
      001807 00 00 03 CF           3754 	.dw	0,975
      00180B 0C                    3755 	.uleb128	12
      00180C 5F 62 69 74           3756 	.ascii "_bit"
      001810 00                    3757 	.db	0
      001811 01                    3758 	.db	1
      001812 08                    3759 	.db	8
      001813 0D                    3760 	.uleb128	13
      001814 00 00 03 F1           3761 	.dw	0,1009
      001818 0E                    3762 	.uleb128	14
      001819 05                    3763 	.db	5
      00181A 03                    3764 	.db	3
      00181B 00 00 00 00           3765 	.dw	0,(_bUartDataReady)
      00181F 62 55 61 72 74 44 61  3766 	.ascii "bUartDataReady"
             74 61 52 65 61 64 79
      00182D 00                    3767 	.db	0
      00182E 01                    3768 	.db	1
      00182F 01                    3769 	.db	1
      001830 00 00 03 F9           3770 	.dw	0,1017
      001834 0E                    3771 	.uleb128	14
      001835 05                    3772 	.db	5
      001836 03                    3773 	.db	3
      001837 00 00 00 01           3774 	.dw	0,(_g_timer0Over)
      00183B 67 5F 74 69 6D 65 72  3775 	.ascii "g_timer0Over"
             30 4F 76 65 72
      001847 00                    3776 	.db	0
      001848 01                    3777 	.db	1
      001849 01                    3778 	.db	1
      00184A 00 00 03 F9           3779 	.dw	0,1017
      00184E 0E                    3780 	.uleb128	14
      00184F 05                    3781 	.db	5
      001850 03                    3782 	.db	3
      001851 00 00 00 02           3783 	.dw	0,(_g_timer1Over)
      001855 67 5F 74 69 6D 65 72  3784 	.ascii "g_timer1Over"
             31 4F 76 65 72
      001861 00                    3785 	.db	0
      001862 01                    3786 	.db	1
      001863 01                    3787 	.db	1
      001864 00 00 03 F9           3788 	.dw	0,1017
      001868 0E                    3789 	.uleb128	14
      001869 05                    3790 	.db	5
      00186A 03                    3791 	.db	3
      00186B 00 00 00 03           3792 	.dw	0,(_g_progarmflag)
      00186F 67 5F 70 72 6F 67 61  3793 	.ascii "g_progarmflag"
             72 6D 66 6C 61 67
      00187C 00                    3794 	.db	0
      00187D 01                    3795 	.db	1
      00187E 01                    3796 	.db	1
      00187F 00 00 03 F9           3797 	.dw	0,1017
      001883 0C                    3798 	.uleb128	12
      001884 5F 62 69 74           3799 	.ascii "_bit"
      001888 00                    3800 	.db	0
      001889 01                    3801 	.db	1
      00188A 08                    3802 	.db	8
      00188B 0E                    3803 	.uleb128	14
      00188C 05                    3804 	.db	5
      00188D 03                    3805 	.db	3
      00188E 00 00 00 04           3806 	.dw	0,(_BIT_TMP)
      001892 42 49 54 5F 54 4D 50  3807 	.ascii "BIT_TMP"
      001899 00                    3808 	.db	0
      00189A 01                    3809 	.db	1
      00189B 01                    3810 	.db	1
      00189C 00 00 04 69           3811 	.dw	0,1129
      0018A0 0F                    3812 	.uleb128	15
      0018A1 00 00 04 93           3813 	.dw	0,1171
      0018A5 40                    3814 	.db	64
      0018A6 00 00 01 FB           3815 	.dw	0,507
      0018AA 10                    3816 	.uleb128	16
      0018AB 3F                    3817 	.db	63
      0018AC 00                    3818 	.uleb128	0
      0018AD 0E                    3819 	.uleb128	14
      0018AE 05                    3820 	.db	5
      0018AF 03                    3821 	.db	3
      0018B0 00 00 00 01           3822 	.dw	0,(_uart_rcvbuf)
      0018B4 75 61 72 74 5F 72 63  3823 	.ascii "uart_rcvbuf"
             76 62 75 66
      0018BF 00                    3824 	.db	0
      0018C0 01                    3825 	.db	1
      0018C1 01                    3826 	.db	1
      0018C2 00 00 04 86           3827 	.dw	0,1158
      0018C6 0E                    3828 	.uleb128	14
      0018C7 05                    3829 	.db	5
      0018C8 03                    3830 	.db	3
      0018C9 00 00 00 41           3831 	.dw	0,(_uart_txbuf)
      0018CD 75 61 72 74 5F 74 78  3832 	.ascii "uart_txbuf"
             62 75 66
      0018D7 00                    3833 	.db	0
      0018D8 01                    3834 	.db	1
      0018D9 01                    3835 	.db	1
      0018DA 00 00 04 86           3836 	.dw	0,1158
      0018DE 0C                    3837 	.uleb128	12
      0018DF 75 6E 73 69 67 6E 65  3838 	.ascii "unsigned int"
             64 20 69 6E 74
      0018EB 00                    3839 	.db	0
      0018EC 02                    3840 	.db	2
      0018ED 07                    3841 	.db	7
      0018EE 11                    3842 	.uleb128	17
      0018EF 05                    3843 	.db	5
      0018F0 03                    3844 	.db	3
      0018F1 00 00 00 80           3845 	.dw	0,(_P0)
      0018F5 50 30                 3846 	.ascii "P0"
      0018F7 00                    3847 	.db	0
      0018F8 01                    3848 	.db	1
      0018F9 00 00 01 FB           3849 	.dw	0,507
      0018FD 11                    3850 	.uleb128	17
      0018FE 05                    3851 	.db	5
      0018FF 03                    3852 	.db	3
      001900 00 00 00 81           3853 	.dw	0,(_SP)
      001904 53 50                 3854 	.ascii "SP"
      001906 00                    3855 	.db	0
      001907 01                    3856 	.db	1
      001908 00 00 01 FB           3857 	.dw	0,507
      00190C 11                    3858 	.uleb128	17
      00190D 05                    3859 	.db	5
      00190E 03                    3860 	.db	3
      00190F 00 00 00 82           3861 	.dw	0,(_DPL)
      001913 44 50 4C              3862 	.ascii "DPL"
      001916 00                    3863 	.db	0
      001917 01                    3864 	.db	1
      001918 00 00 01 FB           3865 	.dw	0,507
      00191C 11                    3866 	.uleb128	17
      00191D 05                    3867 	.db	5
      00191E 03                    3868 	.db	3
      00191F 00 00 00 83           3869 	.dw	0,(_DPH)
      001923 44 50 48              3870 	.ascii "DPH"
      001926 00                    3871 	.db	0
      001927 01                    3872 	.db	1
      001928 00 00 01 FB           3873 	.dw	0,507
      00192C 11                    3874 	.uleb128	17
      00192D 05                    3875 	.db	5
      00192E 03                    3876 	.db	3
      00192F 00 00 00 84           3877 	.dw	0,(_RCTRIM0)
      001933 52 43 54 52 49 4D 30  3878 	.ascii "RCTRIM0"
      00193A 00                    3879 	.db	0
      00193B 01                    3880 	.db	1
      00193C 00 00 01 FB           3881 	.dw	0,507
      001940 11                    3882 	.uleb128	17
      001941 05                    3883 	.db	5
      001942 03                    3884 	.db	3
      001943 00 00 00 85           3885 	.dw	0,(_RCTRIM1)
      001947 52 43 54 52 49 4D 31  3886 	.ascii "RCTRIM1"
      00194E 00                    3887 	.db	0
      00194F 01                    3888 	.db	1
      001950 00 00 01 FB           3889 	.dw	0,507
      001954 11                    3890 	.uleb128	17
      001955 05                    3891 	.db	5
      001956 03                    3892 	.db	3
      001957 00 00 00 86           3893 	.dw	0,(_RWK)
      00195B 52 57 4B              3894 	.ascii "RWK"
      00195E 00                    3895 	.db	0
      00195F 01                    3896 	.db	1
      001960 00 00 01 FB           3897 	.dw	0,507
      001964 11                    3898 	.uleb128	17
      001965 05                    3899 	.db	5
      001966 03                    3900 	.db	3
      001967 00 00 00 87           3901 	.dw	0,(_PCON)
      00196B 50 43 4F 4E           3902 	.ascii "PCON"
      00196F 00                    3903 	.db	0
      001970 01                    3904 	.db	1
      001971 00 00 01 FB           3905 	.dw	0,507
      001975 11                    3906 	.uleb128	17
      001976 05                    3907 	.db	5
      001977 03                    3908 	.db	3
      001978 00 00 00 88           3909 	.dw	0,(_TCON)
      00197C 54 43 4F 4E           3910 	.ascii "TCON"
      001980 00                    3911 	.db	0
      001981 01                    3912 	.db	1
      001982 00 00 01 FB           3913 	.dw	0,507
      001986 11                    3914 	.uleb128	17
      001987 05                    3915 	.db	5
      001988 03                    3916 	.db	3
      001989 00 00 00 89           3917 	.dw	0,(_TMOD)
      00198D 54 4D 4F 44           3918 	.ascii "TMOD"
      001991 00                    3919 	.db	0
      001992 01                    3920 	.db	1
      001993 00 00 01 FB           3921 	.dw	0,507
      001997 11                    3922 	.uleb128	17
      001998 05                    3923 	.db	5
      001999 03                    3924 	.db	3
      00199A 00 00 00 8A           3925 	.dw	0,(_TL0)
      00199E 54 4C 30              3926 	.ascii "TL0"
      0019A1 00                    3927 	.db	0
      0019A2 01                    3928 	.db	1
      0019A3 00 00 01 FB           3929 	.dw	0,507
      0019A7 11                    3930 	.uleb128	17
      0019A8 05                    3931 	.db	5
      0019A9 03                    3932 	.db	3
      0019AA 00 00 00 8B           3933 	.dw	0,(_TL1)
      0019AE 54 4C 31              3934 	.ascii "TL1"
      0019B1 00                    3935 	.db	0
      0019B2 01                    3936 	.db	1
      0019B3 00 00 01 FB           3937 	.dw	0,507
      0019B7 11                    3938 	.uleb128	17
      0019B8 05                    3939 	.db	5
      0019B9 03                    3940 	.db	3
      0019BA 00 00 00 8C           3941 	.dw	0,(_TH0)
      0019BE 54 48 30              3942 	.ascii "TH0"
      0019C1 00                    3943 	.db	0
      0019C2 01                    3944 	.db	1
      0019C3 00 00 01 FB           3945 	.dw	0,507
      0019C7 11                    3946 	.uleb128	17
      0019C8 05                    3947 	.db	5
      0019C9 03                    3948 	.db	3
      0019CA 00 00 00 8D           3949 	.dw	0,(_TH1)
      0019CE 54 48 31              3950 	.ascii "TH1"
      0019D1 00                    3951 	.db	0
      0019D2 01                    3952 	.db	1
      0019D3 00 00 01 FB           3953 	.dw	0,507
      0019D7 11                    3954 	.uleb128	17
      0019D8 05                    3955 	.db	5
      0019D9 03                    3956 	.db	3
      0019DA 00 00 00 8E           3957 	.dw	0,(_CKCON)
      0019DE 43 4B 43 4F 4E        3958 	.ascii "CKCON"
      0019E3 00                    3959 	.db	0
      0019E4 01                    3960 	.db	1
      0019E5 00 00 01 FB           3961 	.dw	0,507
      0019E9 11                    3962 	.uleb128	17
      0019EA 05                    3963 	.db	5
      0019EB 03                    3964 	.db	3
      0019EC 00 00 00 8F           3965 	.dw	0,(_WKCON)
      0019F0 57 4B 43 4F 4E        3966 	.ascii "WKCON"
      0019F5 00                    3967 	.db	0
      0019F6 01                    3968 	.db	1
      0019F7 00 00 01 FB           3969 	.dw	0,507
      0019FB 11                    3970 	.uleb128	17
      0019FC 05                    3971 	.db	5
      0019FD 03                    3972 	.db	3
      0019FE 00 00 00 90           3973 	.dw	0,(_P1)
      001A02 50 31                 3974 	.ascii "P1"
      001A04 00                    3975 	.db	0
      001A05 01                    3976 	.db	1
      001A06 00 00 01 FB           3977 	.dw	0,507
      001A0A 11                    3978 	.uleb128	17
      001A0B 05                    3979 	.db	5
      001A0C 03                    3980 	.db	3
      001A0D 00 00 00 91           3981 	.dw	0,(_SFRS)
      001A11 53 46 52 53           3982 	.ascii "SFRS"
      001A15 00                    3983 	.db	0
      001A16 01                    3984 	.db	1
      001A17 00 00 01 FB           3985 	.dw	0,507
      001A1B 11                    3986 	.uleb128	17
      001A1C 05                    3987 	.db	5
      001A1D 03                    3988 	.db	3
      001A1E 00 00 00 92           3989 	.dw	0,(_CAPCON0)
      001A22 43 41 50 43 4F 4E 30  3990 	.ascii "CAPCON0"
      001A29 00                    3991 	.db	0
      001A2A 01                    3992 	.db	1
      001A2B 00 00 01 FB           3993 	.dw	0,507
      001A2F 11                    3994 	.uleb128	17
      001A30 05                    3995 	.db	5
      001A31 03                    3996 	.db	3
      001A32 00 00 00 93           3997 	.dw	0,(_CAPCON1)
      001A36 43 41 50 43 4F 4E 31  3998 	.ascii "CAPCON1"
      001A3D 00                    3999 	.db	0
      001A3E 01                    4000 	.db	1
      001A3F 00 00 01 FB           4001 	.dw	0,507
      001A43 11                    4002 	.uleb128	17
      001A44 05                    4003 	.db	5
      001A45 03                    4004 	.db	3
      001A46 00 00 00 94           4005 	.dw	0,(_CAPCON2)
      001A4A 43 41 50 43 4F 4E 32  4006 	.ascii "CAPCON2"
      001A51 00                    4007 	.db	0
      001A52 01                    4008 	.db	1
      001A53 00 00 01 FB           4009 	.dw	0,507
      001A57 11                    4010 	.uleb128	17
      001A58 05                    4011 	.db	5
      001A59 03                    4012 	.db	3
      001A5A 00 00 00 95           4013 	.dw	0,(_CKDIV)
      001A5E 43 4B 44 49 56        4014 	.ascii "CKDIV"
      001A63 00                    4015 	.db	0
      001A64 01                    4016 	.db	1
      001A65 00 00 01 FB           4017 	.dw	0,507
      001A69 11                    4018 	.uleb128	17
      001A6A 05                    4019 	.db	5
      001A6B 03                    4020 	.db	3
      001A6C 00 00 00 96           4021 	.dw	0,(_CKSWT)
      001A70 43 4B 53 57 54        4022 	.ascii "CKSWT"
      001A75 00                    4023 	.db	0
      001A76 01                    4024 	.db	1
      001A77 00 00 01 FB           4025 	.dw	0,507
      001A7B 11                    4026 	.uleb128	17
      001A7C 05                    4027 	.db	5
      001A7D 03                    4028 	.db	3
      001A7E 00 00 00 97           4029 	.dw	0,(_CKEN)
      001A82 43 4B 45 4E           4030 	.ascii "CKEN"
      001A86 00                    4031 	.db	0
      001A87 01                    4032 	.db	1
      001A88 00 00 01 FB           4033 	.dw	0,507
      001A8C 11                    4034 	.uleb128	17
      001A8D 05                    4035 	.db	5
      001A8E 03                    4036 	.db	3
      001A8F 00 00 00 98           4037 	.dw	0,(_SCON)
      001A93 53 43 4F 4E           4038 	.ascii "SCON"
      001A97 00                    4039 	.db	0
      001A98 01                    4040 	.db	1
      001A99 00 00 01 FB           4041 	.dw	0,507
      001A9D 11                    4042 	.uleb128	17
      001A9E 05                    4043 	.db	5
      001A9F 03                    4044 	.db	3
      001AA0 00 00 00 99           4045 	.dw	0,(_SBUF)
      001AA4 53 42 55 46           4046 	.ascii "SBUF"
      001AA8 00                    4047 	.db	0
      001AA9 01                    4048 	.db	1
      001AAA 00 00 01 FB           4049 	.dw	0,507
      001AAE 11                    4050 	.uleb128	17
      001AAF 05                    4051 	.db	5
      001AB0 03                    4052 	.db	3
      001AB1 00 00 00 9A           4053 	.dw	0,(_SBUF_1)
      001AB5 53 42 55 46 5F 31     4054 	.ascii "SBUF_1"
      001ABB 00                    4055 	.db	0
      001ABC 01                    4056 	.db	1
      001ABD 00 00 01 FB           4057 	.dw	0,507
      001AC1 11                    4058 	.uleb128	17
      001AC2 05                    4059 	.db	5
      001AC3 03                    4060 	.db	3
      001AC4 00 00 00 9B           4061 	.dw	0,(_EIE)
      001AC8 45 49 45              4062 	.ascii "EIE"
      001ACB 00                    4063 	.db	0
      001ACC 01                    4064 	.db	1
      001ACD 00 00 01 FB           4065 	.dw	0,507
      001AD1 11                    4066 	.uleb128	17
      001AD2 05                    4067 	.db	5
      001AD3 03                    4068 	.db	3
      001AD4 00 00 00 9C           4069 	.dw	0,(_EIE1)
      001AD8 45 49 45 31           4070 	.ascii "EIE1"
      001ADC 00                    4071 	.db	0
      001ADD 01                    4072 	.db	1
      001ADE 00 00 01 FB           4073 	.dw	0,507
      001AE2 11                    4074 	.uleb128	17
      001AE3 05                    4075 	.db	5
      001AE4 03                    4076 	.db	3
      001AE5 00 00 00 9F           4077 	.dw	0,(_CHPCON)
      001AE9 43 48 50 43 4F 4E     4078 	.ascii "CHPCON"
      001AEF 00                    4079 	.db	0
      001AF0 01                    4080 	.db	1
      001AF1 00 00 01 FB           4081 	.dw	0,507
      001AF5 11                    4082 	.uleb128	17
      001AF6 05                    4083 	.db	5
      001AF7 03                    4084 	.db	3
      001AF8 00 00 00 A0           4085 	.dw	0,(_P2)
      001AFC 50 32                 4086 	.ascii "P2"
      001AFE 00                    4087 	.db	0
      001AFF 01                    4088 	.db	1
      001B00 00 00 01 FB           4089 	.dw	0,507
      001B04 11                    4090 	.uleb128	17
      001B05 05                    4091 	.db	5
      001B06 03                    4092 	.db	3
      001B07 00 00 00 A2           4093 	.dw	0,(_AUXR1)
      001B0B 41 55 58 52 31        4094 	.ascii "AUXR1"
      001B10 00                    4095 	.db	0
      001B11 01                    4096 	.db	1
      001B12 00 00 01 FB           4097 	.dw	0,507
      001B16 11                    4098 	.uleb128	17
      001B17 05                    4099 	.db	5
      001B18 03                    4100 	.db	3
      001B19 00 00 00 A3           4101 	.dw	0,(_BODCON0)
      001B1D 42 4F 44 43 4F 4E 30  4102 	.ascii "BODCON0"
      001B24 00                    4103 	.db	0
      001B25 01                    4104 	.db	1
      001B26 00 00 01 FB           4105 	.dw	0,507
      001B2A 11                    4106 	.uleb128	17
      001B2B 05                    4107 	.db	5
      001B2C 03                    4108 	.db	3
      001B2D 00 00 00 A4           4109 	.dw	0,(_IAPTRG)
      001B31 49 41 50 54 52 47     4110 	.ascii "IAPTRG"
      001B37 00                    4111 	.db	0
      001B38 01                    4112 	.db	1
      001B39 00 00 01 FB           4113 	.dw	0,507
      001B3D 11                    4114 	.uleb128	17
      001B3E 05                    4115 	.db	5
      001B3F 03                    4116 	.db	3
      001B40 00 00 00 A5           4117 	.dw	0,(_IAPUEN)
      001B44 49 41 50 55 45 4E     4118 	.ascii "IAPUEN"
      001B4A 00                    4119 	.db	0
      001B4B 01                    4120 	.db	1
      001B4C 00 00 01 FB           4121 	.dw	0,507
      001B50 11                    4122 	.uleb128	17
      001B51 05                    4123 	.db	5
      001B52 03                    4124 	.db	3
      001B53 00 00 00 A6           4125 	.dw	0,(_IAPAL)
      001B57 49 41 50 41 4C        4126 	.ascii "IAPAL"
      001B5C 00                    4127 	.db	0
      001B5D 01                    4128 	.db	1
      001B5E 00 00 01 FB           4129 	.dw	0,507
      001B62 11                    4130 	.uleb128	17
      001B63 05                    4131 	.db	5
      001B64 03                    4132 	.db	3
      001B65 00 00 00 A7           4133 	.dw	0,(_IAPAH)
      001B69 49 41 50 41 48        4134 	.ascii "IAPAH"
      001B6E 00                    4135 	.db	0
      001B6F 01                    4136 	.db	1
      001B70 00 00 01 FB           4137 	.dw	0,507
      001B74 11                    4138 	.uleb128	17
      001B75 05                    4139 	.db	5
      001B76 03                    4140 	.db	3
      001B77 00 00 00 A8           4141 	.dw	0,(_IE)
      001B7B 49 45                 4142 	.ascii "IE"
      001B7D 00                    4143 	.db	0
      001B7E 01                    4144 	.db	1
      001B7F 00 00 01 FB           4145 	.dw	0,507
      001B83 11                    4146 	.uleb128	17
      001B84 05                    4147 	.db	5
      001B85 03                    4148 	.db	3
      001B86 00 00 00 A9           4149 	.dw	0,(_SADDR)
      001B8A 53 41 44 44 52        4150 	.ascii "SADDR"
      001B8F 00                    4151 	.db	0
      001B90 01                    4152 	.db	1
      001B91 00 00 01 FB           4153 	.dw	0,507
      001B95 11                    4154 	.uleb128	17
      001B96 05                    4155 	.db	5
      001B97 03                    4156 	.db	3
      001B98 00 00 00 AA           4157 	.dw	0,(_WDCON)
      001B9C 57 44 43 4F 4E        4158 	.ascii "WDCON"
      001BA1 00                    4159 	.db	0
      001BA2 01                    4160 	.db	1
      001BA3 00 00 01 FB           4161 	.dw	0,507
      001BA7 11                    4162 	.uleb128	17
      001BA8 05                    4163 	.db	5
      001BA9 03                    4164 	.db	3
      001BAA 00 00 00 AB           4165 	.dw	0,(_BODCON1)
      001BAE 42 4F 44 43 4F 4E 31  4166 	.ascii "BODCON1"
      001BB5 00                    4167 	.db	0
      001BB6 01                    4168 	.db	1
      001BB7 00 00 01 FB           4169 	.dw	0,507
      001BBB 11                    4170 	.uleb128	17
      001BBC 05                    4171 	.db	5
      001BBD 03                    4172 	.db	3
      001BBE 00 00 00 AC           4173 	.dw	0,(_P3M1)
      001BC2 50 33 4D 31           4174 	.ascii "P3M1"
      001BC6 00                    4175 	.db	0
      001BC7 01                    4176 	.db	1
      001BC8 00 00 01 FB           4177 	.dw	0,507
      001BCC 11                    4178 	.uleb128	17
      001BCD 05                    4179 	.db	5
      001BCE 03                    4180 	.db	3
      001BCF 00 00 00 AC           4181 	.dw	0,(_P3S)
      001BD3 50 33 53              4182 	.ascii "P3S"
      001BD6 00                    4183 	.db	0
      001BD7 01                    4184 	.db	1
      001BD8 00 00 01 FB           4185 	.dw	0,507
      001BDC 11                    4186 	.uleb128	17
      001BDD 05                    4187 	.db	5
      001BDE 03                    4188 	.db	3
      001BDF 00 00 00 AD           4189 	.dw	0,(_P3M2)
      001BE3 50 33 4D 32           4190 	.ascii "P3M2"
      001BE7 00                    4191 	.db	0
      001BE8 01                    4192 	.db	1
      001BE9 00 00 01 FB           4193 	.dw	0,507
      001BED 11                    4194 	.uleb128	17
      001BEE 05                    4195 	.db	5
      001BEF 03                    4196 	.db	3
      001BF0 00 00 00 AD           4197 	.dw	0,(_P3SR)
      001BF4 50 33 53 52           4198 	.ascii "P3SR"
      001BF8 00                    4199 	.db	0
      001BF9 01                    4200 	.db	1
      001BFA 00 00 01 FB           4201 	.dw	0,507
      001BFE 11                    4202 	.uleb128	17
      001BFF 05                    4203 	.db	5
      001C00 03                    4204 	.db	3
      001C01 00 00 00 AE           4205 	.dw	0,(_IAPFD)
      001C05 49 41 50 46 44        4206 	.ascii "IAPFD"
      001C0A 00                    4207 	.db	0
      001C0B 01                    4208 	.db	1
      001C0C 00 00 01 FB           4209 	.dw	0,507
      001C10 11                    4210 	.uleb128	17
      001C11 05                    4211 	.db	5
      001C12 03                    4212 	.db	3
      001C13 00 00 00 AF           4213 	.dw	0,(_IAPCN)
      001C17 49 41 50 43 4E        4214 	.ascii "IAPCN"
      001C1C 00                    4215 	.db	0
      001C1D 01                    4216 	.db	1
      001C1E 00 00 01 FB           4217 	.dw	0,507
      001C22 11                    4218 	.uleb128	17
      001C23 05                    4219 	.db	5
      001C24 03                    4220 	.db	3
      001C25 00 00 00 B0           4221 	.dw	0,(_P3)
      001C29 50 33                 4222 	.ascii "P3"
      001C2B 00                    4223 	.db	0
      001C2C 01                    4224 	.db	1
      001C2D 00 00 01 FB           4225 	.dw	0,507
      001C31 11                    4226 	.uleb128	17
      001C32 05                    4227 	.db	5
      001C33 03                    4228 	.db	3
      001C34 00 00 00 B1           4229 	.dw	0,(_P0M1)
      001C38 50 30 4D 31           4230 	.ascii "P0M1"
      001C3C 00                    4231 	.db	0
      001C3D 01                    4232 	.db	1
      001C3E 00 00 01 FB           4233 	.dw	0,507
      001C42 11                    4234 	.uleb128	17
      001C43 05                    4235 	.db	5
      001C44 03                    4236 	.db	3
      001C45 00 00 00 B1           4237 	.dw	0,(_P0S)
      001C49 50 30 53              4238 	.ascii "P0S"
      001C4C 00                    4239 	.db	0
      001C4D 01                    4240 	.db	1
      001C4E 00 00 01 FB           4241 	.dw	0,507
      001C52 11                    4242 	.uleb128	17
      001C53 05                    4243 	.db	5
      001C54 03                    4244 	.db	3
      001C55 00 00 00 B2           4245 	.dw	0,(_P0M2)
      001C59 50 30 4D 32           4246 	.ascii "P0M2"
      001C5D 00                    4247 	.db	0
      001C5E 01                    4248 	.db	1
      001C5F 00 00 01 FB           4249 	.dw	0,507
      001C63 11                    4250 	.uleb128	17
      001C64 05                    4251 	.db	5
      001C65 03                    4252 	.db	3
      001C66 00 00 00 B2           4253 	.dw	0,(_P0SR)
      001C6A 50 30 53 52           4254 	.ascii "P0SR"
      001C6E 00                    4255 	.db	0
      001C6F 01                    4256 	.db	1
      001C70 00 00 01 FB           4257 	.dw	0,507
      001C74 11                    4258 	.uleb128	17
      001C75 05                    4259 	.db	5
      001C76 03                    4260 	.db	3
      001C77 00 00 00 B3           4261 	.dw	0,(_P1M1)
      001C7B 50 31 4D 31           4262 	.ascii "P1M1"
      001C7F 00                    4263 	.db	0
      001C80 01                    4264 	.db	1
      001C81 00 00 01 FB           4265 	.dw	0,507
      001C85 11                    4266 	.uleb128	17
      001C86 05                    4267 	.db	5
      001C87 03                    4268 	.db	3
      001C88 00 00 00 B3           4269 	.dw	0,(_P1S)
      001C8C 50 31 53              4270 	.ascii "P1S"
      001C8F 00                    4271 	.db	0
      001C90 01                    4272 	.db	1
      001C91 00 00 01 FB           4273 	.dw	0,507
      001C95 11                    4274 	.uleb128	17
      001C96 05                    4275 	.db	5
      001C97 03                    4276 	.db	3
      001C98 00 00 00 B4           4277 	.dw	0,(_P1M2)
      001C9C 50 31 4D 32           4278 	.ascii "P1M2"
      001CA0 00                    4279 	.db	0
      001CA1 01                    4280 	.db	1
      001CA2 00 00 01 FB           4281 	.dw	0,507
      001CA6 11                    4282 	.uleb128	17
      001CA7 05                    4283 	.db	5
      001CA8 03                    4284 	.db	3
      001CA9 00 00 00 B4           4285 	.dw	0,(_P1SR)
      001CAD 50 31 53 52           4286 	.ascii "P1SR"
      001CB1 00                    4287 	.db	0
      001CB2 01                    4288 	.db	1
      001CB3 00 00 01 FB           4289 	.dw	0,507
      001CB7 11                    4290 	.uleb128	17
      001CB8 05                    4291 	.db	5
      001CB9 03                    4292 	.db	3
      001CBA 00 00 00 B5           4293 	.dw	0,(_P2S)
      001CBE 50 32 53              4294 	.ascii "P2S"
      001CC1 00                    4295 	.db	0
      001CC2 01                    4296 	.db	1
      001CC3 00 00 01 FB           4297 	.dw	0,507
      001CC7 11                    4298 	.uleb128	17
      001CC8 05                    4299 	.db	5
      001CC9 03                    4300 	.db	3
      001CCA 00 00 00 B7           4301 	.dw	0,(_IPH)
      001CCE 49 50 48              4302 	.ascii "IPH"
      001CD1 00                    4303 	.db	0
      001CD2 01                    4304 	.db	1
      001CD3 00 00 01 FB           4305 	.dw	0,507
      001CD7 11                    4306 	.uleb128	17
      001CD8 05                    4307 	.db	5
      001CD9 03                    4308 	.db	3
      001CDA 00 00 00 B7           4309 	.dw	0,(_PWMINTC)
      001CDE 50 57 4D 49 4E 54 43  4310 	.ascii "PWMINTC"
      001CE5 00                    4311 	.db	0
      001CE6 01                    4312 	.db	1
      001CE7 00 00 01 FB           4313 	.dw	0,507
      001CEB 11                    4314 	.uleb128	17
      001CEC 05                    4315 	.db	5
      001CED 03                    4316 	.db	3
      001CEE 00 00 00 B8           4317 	.dw	0,(_IP)
      001CF2 49 50                 4318 	.ascii "IP"
      001CF4 00                    4319 	.db	0
      001CF5 01                    4320 	.db	1
      001CF6 00 00 01 FB           4321 	.dw	0,507
      001CFA 11                    4322 	.uleb128	17
      001CFB 05                    4323 	.db	5
      001CFC 03                    4324 	.db	3
      001CFD 00 00 00 B9           4325 	.dw	0,(_SADEN)
      001D01 53 41 44 45 4E        4326 	.ascii "SADEN"
      001D06 00                    4327 	.db	0
      001D07 01                    4328 	.db	1
      001D08 00 00 01 FB           4329 	.dw	0,507
      001D0C 11                    4330 	.uleb128	17
      001D0D 05                    4331 	.db	5
      001D0E 03                    4332 	.db	3
      001D0F 00 00 00 BA           4333 	.dw	0,(_SADEN_1)
      001D13 53 41 44 45 4E 5F 31  4334 	.ascii "SADEN_1"
      001D1A 00                    4335 	.db	0
      001D1B 01                    4336 	.db	1
      001D1C 00 00 01 FB           4337 	.dw	0,507
      001D20 11                    4338 	.uleb128	17
      001D21 05                    4339 	.db	5
      001D22 03                    4340 	.db	3
      001D23 00 00 00 BB           4341 	.dw	0,(_SADDR_1)
      001D27 53 41 44 44 52 5F 31  4342 	.ascii "SADDR_1"
      001D2E 00                    4343 	.db	0
      001D2F 01                    4344 	.db	1
      001D30 00 00 01 FB           4345 	.dw	0,507
      001D34 11                    4346 	.uleb128	17
      001D35 05                    4347 	.db	5
      001D36 03                    4348 	.db	3
      001D37 00 00 00 BC           4349 	.dw	0,(_I2DAT)
      001D3B 49 32 44 41 54        4350 	.ascii "I2DAT"
      001D40 00                    4351 	.db	0
      001D41 01                    4352 	.db	1
      001D42 00 00 01 FB           4353 	.dw	0,507
      001D46 11                    4354 	.uleb128	17
      001D47 05                    4355 	.db	5
      001D48 03                    4356 	.db	3
      001D49 00 00 00 BD           4357 	.dw	0,(_I2STAT)
      001D4D 49 32 53 54 41 54     4358 	.ascii "I2STAT"
      001D53 00                    4359 	.db	0
      001D54 01                    4360 	.db	1
      001D55 00 00 01 FB           4361 	.dw	0,507
      001D59 11                    4362 	.uleb128	17
      001D5A 05                    4363 	.db	5
      001D5B 03                    4364 	.db	3
      001D5C 00 00 00 BE           4365 	.dw	0,(_I2CLK)
      001D60 49 32 43 4C 4B        4366 	.ascii "I2CLK"
      001D65 00                    4367 	.db	0
      001D66 01                    4368 	.db	1
      001D67 00 00 01 FB           4369 	.dw	0,507
      001D6B 11                    4370 	.uleb128	17
      001D6C 05                    4371 	.db	5
      001D6D 03                    4372 	.db	3
      001D6E 00 00 00 BF           4373 	.dw	0,(_I2TOC)
      001D72 49 32 54 4F 43        4374 	.ascii "I2TOC"
      001D77 00                    4375 	.db	0
      001D78 01                    4376 	.db	1
      001D79 00 00 01 FB           4377 	.dw	0,507
      001D7D 11                    4378 	.uleb128	17
      001D7E 05                    4379 	.db	5
      001D7F 03                    4380 	.db	3
      001D80 00 00 00 C0           4381 	.dw	0,(_I2CON)
      001D84 49 32 43 4F 4E        4382 	.ascii "I2CON"
      001D89 00                    4383 	.db	0
      001D8A 01                    4384 	.db	1
      001D8B 00 00 01 FB           4385 	.dw	0,507
      001D8F 11                    4386 	.uleb128	17
      001D90 05                    4387 	.db	5
      001D91 03                    4388 	.db	3
      001D92 00 00 00 C1           4389 	.dw	0,(_I2ADDR)
      001D96 49 32 41 44 44 52     4390 	.ascii "I2ADDR"
      001D9C 00                    4391 	.db	0
      001D9D 01                    4392 	.db	1
      001D9E 00 00 01 FB           4393 	.dw	0,507
      001DA2 11                    4394 	.uleb128	17
      001DA3 05                    4395 	.db	5
      001DA4 03                    4396 	.db	3
      001DA5 00 00 00 C2           4397 	.dw	0,(_ADCRL)
      001DA9 41 44 43 52 4C        4398 	.ascii "ADCRL"
      001DAE 00                    4399 	.db	0
      001DAF 01                    4400 	.db	1
      001DB0 00 00 01 FB           4401 	.dw	0,507
      001DB4 11                    4402 	.uleb128	17
      001DB5 05                    4403 	.db	5
      001DB6 03                    4404 	.db	3
      001DB7 00 00 00 C3           4405 	.dw	0,(_ADCRH)
      001DBB 41 44 43 52 48        4406 	.ascii "ADCRH"
      001DC0 00                    4407 	.db	0
      001DC1 01                    4408 	.db	1
      001DC2 00 00 01 FB           4409 	.dw	0,507
      001DC6 11                    4410 	.uleb128	17
      001DC7 05                    4411 	.db	5
      001DC8 03                    4412 	.db	3
      001DC9 00 00 00 C4           4413 	.dw	0,(_T3CON)
      001DCD 54 33 43 4F 4E        4414 	.ascii "T3CON"
      001DD2 00                    4415 	.db	0
      001DD3 01                    4416 	.db	1
      001DD4 00 00 01 FB           4417 	.dw	0,507
      001DD8 11                    4418 	.uleb128	17
      001DD9 05                    4419 	.db	5
      001DDA 03                    4420 	.db	3
      001DDB 00 00 00 C4           4421 	.dw	0,(_PWM4H)
      001DDF 50 57 4D 34 48        4422 	.ascii "PWM4H"
      001DE4 00                    4423 	.db	0
      001DE5 01                    4424 	.db	1
      001DE6 00 00 01 FB           4425 	.dw	0,507
      001DEA 11                    4426 	.uleb128	17
      001DEB 05                    4427 	.db	5
      001DEC 03                    4428 	.db	3
      001DED 00 00 00 C5           4429 	.dw	0,(_RL3)
      001DF1 52 4C 33              4430 	.ascii "RL3"
      001DF4 00                    4431 	.db	0
      001DF5 01                    4432 	.db	1
      001DF6 00 00 01 FB           4433 	.dw	0,507
      001DFA 11                    4434 	.uleb128	17
      001DFB 05                    4435 	.db	5
      001DFC 03                    4436 	.db	3
      001DFD 00 00 00 C5           4437 	.dw	0,(_PWM5H)
      001E01 50 57 4D 35 48        4438 	.ascii "PWM5H"
      001E06 00                    4439 	.db	0
      001E07 01                    4440 	.db	1
      001E08 00 00 01 FB           4441 	.dw	0,507
      001E0C 11                    4442 	.uleb128	17
      001E0D 05                    4443 	.db	5
      001E0E 03                    4444 	.db	3
      001E0F 00 00 00 C6           4445 	.dw	0,(_RH3)
      001E13 52 48 33              4446 	.ascii "RH3"
      001E16 00                    4447 	.db	0
      001E17 01                    4448 	.db	1
      001E18 00 00 01 FB           4449 	.dw	0,507
      001E1C 11                    4450 	.uleb128	17
      001E1D 05                    4451 	.db	5
      001E1E 03                    4452 	.db	3
      001E1F 00 00 00 C6           4453 	.dw	0,(_PIOCON1)
      001E23 50 49 4F 43 4F 4E 31  4454 	.ascii "PIOCON1"
      001E2A 00                    4455 	.db	0
      001E2B 01                    4456 	.db	1
      001E2C 00 00 01 FB           4457 	.dw	0,507
      001E30 11                    4458 	.uleb128	17
      001E31 05                    4459 	.db	5
      001E32 03                    4460 	.db	3
      001E33 00 00 00 C7           4461 	.dw	0,(_TA)
      001E37 54 41                 4462 	.ascii "TA"
      001E39 00                    4463 	.db	0
      001E3A 01                    4464 	.db	1
      001E3B 00 00 01 FB           4465 	.dw	0,507
      001E3F 11                    4466 	.uleb128	17
      001E40 05                    4467 	.db	5
      001E41 03                    4468 	.db	3
      001E42 00 00 00 C8           4469 	.dw	0,(_T2CON)
      001E46 54 32 43 4F 4E        4470 	.ascii "T2CON"
      001E4B 00                    4471 	.db	0
      001E4C 01                    4472 	.db	1
      001E4D 00 00 01 FB           4473 	.dw	0,507
      001E51 11                    4474 	.uleb128	17
      001E52 05                    4475 	.db	5
      001E53 03                    4476 	.db	3
      001E54 00 00 00 C9           4477 	.dw	0,(_T2MOD)
      001E58 54 32 4D 4F 44        4478 	.ascii "T2MOD"
      001E5D 00                    4479 	.db	0
      001E5E 01                    4480 	.db	1
      001E5F 00 00 01 FB           4481 	.dw	0,507
      001E63 11                    4482 	.uleb128	17
      001E64 05                    4483 	.db	5
      001E65 03                    4484 	.db	3
      001E66 00 00 00 CA           4485 	.dw	0,(_RCMP2L)
      001E6A 52 43 4D 50 32 4C     4486 	.ascii "RCMP2L"
      001E70 00                    4487 	.db	0
      001E71 01                    4488 	.db	1
      001E72 00 00 01 FB           4489 	.dw	0,507
      001E76 11                    4490 	.uleb128	17
      001E77 05                    4491 	.db	5
      001E78 03                    4492 	.db	3
      001E79 00 00 00 CB           4493 	.dw	0,(_RCMP2H)
      001E7D 52 43 4D 50 32 48     4494 	.ascii "RCMP2H"
      001E83 00                    4495 	.db	0
      001E84 01                    4496 	.db	1
      001E85 00 00 01 FB           4497 	.dw	0,507
      001E89 11                    4498 	.uleb128	17
      001E8A 05                    4499 	.db	5
      001E8B 03                    4500 	.db	3
      001E8C 00 00 00 CC           4501 	.dw	0,(_TL2)
      001E90 54 4C 32              4502 	.ascii "TL2"
      001E93 00                    4503 	.db	0
      001E94 01                    4504 	.db	1
      001E95 00 00 01 FB           4505 	.dw	0,507
      001E99 11                    4506 	.uleb128	17
      001E9A 05                    4507 	.db	5
      001E9B 03                    4508 	.db	3
      001E9C 00 00 00 CC           4509 	.dw	0,(_PWM4L)
      001EA0 50 57 4D 34 4C        4510 	.ascii "PWM4L"
      001EA5 00                    4511 	.db	0
      001EA6 01                    4512 	.db	1
      001EA7 00 00 01 FB           4513 	.dw	0,507
      001EAB 11                    4514 	.uleb128	17
      001EAC 05                    4515 	.db	5
      001EAD 03                    4516 	.db	3
      001EAE 00 00 00 CD           4517 	.dw	0,(_TH2)
      001EB2 54 48 32              4518 	.ascii "TH2"
      001EB5 00                    4519 	.db	0
      001EB6 01                    4520 	.db	1
      001EB7 00 00 01 FB           4521 	.dw	0,507
      001EBB 11                    4522 	.uleb128	17
      001EBC 05                    4523 	.db	5
      001EBD 03                    4524 	.db	3
      001EBE 00 00 00 CD           4525 	.dw	0,(_PWM5L)
      001EC2 50 57 4D 35 4C        4526 	.ascii "PWM5L"
      001EC7 00                    4527 	.db	0
      001EC8 01                    4528 	.db	1
      001EC9 00 00 01 FB           4529 	.dw	0,507
      001ECD 11                    4530 	.uleb128	17
      001ECE 05                    4531 	.db	5
      001ECF 03                    4532 	.db	3
      001ED0 00 00 00 CE           4533 	.dw	0,(_ADCMPL)
      001ED4 41 44 43 4D 50 4C     4534 	.ascii "ADCMPL"
      001EDA 00                    4535 	.db	0
      001EDB 01                    4536 	.db	1
      001EDC 00 00 01 FB           4537 	.dw	0,507
      001EE0 11                    4538 	.uleb128	17
      001EE1 05                    4539 	.db	5
      001EE2 03                    4540 	.db	3
      001EE3 00 00 00 CF           4541 	.dw	0,(_ADCMPH)
      001EE7 41 44 43 4D 50 48     4542 	.ascii "ADCMPH"
      001EED 00                    4543 	.db	0
      001EEE 01                    4544 	.db	1
      001EEF 00 00 01 FB           4545 	.dw	0,507
      001EF3 11                    4546 	.uleb128	17
      001EF4 05                    4547 	.db	5
      001EF5 03                    4548 	.db	3
      001EF6 00 00 00 D0           4549 	.dw	0,(_PSW)
      001EFA 50 53 57              4550 	.ascii "PSW"
      001EFD 00                    4551 	.db	0
      001EFE 01                    4552 	.db	1
      001EFF 00 00 01 FB           4553 	.dw	0,507
      001F03 11                    4554 	.uleb128	17
      001F04 05                    4555 	.db	5
      001F05 03                    4556 	.db	3
      001F06 00 00 00 D1           4557 	.dw	0,(_PWMPH)
      001F0A 50 57 4D 50 48        4558 	.ascii "PWMPH"
      001F0F 00                    4559 	.db	0
      001F10 01                    4560 	.db	1
      001F11 00 00 01 FB           4561 	.dw	0,507
      001F15 11                    4562 	.uleb128	17
      001F16 05                    4563 	.db	5
      001F17 03                    4564 	.db	3
      001F18 00 00 00 D2           4565 	.dw	0,(_PWM0H)
      001F1C 50 57 4D 30 48        4566 	.ascii "PWM0H"
      001F21 00                    4567 	.db	0
      001F22 01                    4568 	.db	1
      001F23 00 00 01 FB           4569 	.dw	0,507
      001F27 11                    4570 	.uleb128	17
      001F28 05                    4571 	.db	5
      001F29 03                    4572 	.db	3
      001F2A 00 00 00 D3           4573 	.dw	0,(_PWM1H)
      001F2E 50 57 4D 31 48        4574 	.ascii "PWM1H"
      001F33 00                    4575 	.db	0
      001F34 01                    4576 	.db	1
      001F35 00 00 01 FB           4577 	.dw	0,507
      001F39 11                    4578 	.uleb128	17
      001F3A 05                    4579 	.db	5
      001F3B 03                    4580 	.db	3
      001F3C 00 00 00 D4           4581 	.dw	0,(_PWM2H)
      001F40 50 57 4D 32 48        4582 	.ascii "PWM2H"
      001F45 00                    4583 	.db	0
      001F46 01                    4584 	.db	1
      001F47 00 00 01 FB           4585 	.dw	0,507
      001F4B 11                    4586 	.uleb128	17
      001F4C 05                    4587 	.db	5
      001F4D 03                    4588 	.db	3
      001F4E 00 00 00 D5           4589 	.dw	0,(_PWM3H)
      001F52 50 57 4D 33 48        4590 	.ascii "PWM3H"
      001F57 00                    4591 	.db	0
      001F58 01                    4592 	.db	1
      001F59 00 00 01 FB           4593 	.dw	0,507
      001F5D 11                    4594 	.uleb128	17
      001F5E 05                    4595 	.db	5
      001F5F 03                    4596 	.db	3
      001F60 00 00 00 D6           4597 	.dw	0,(_PNP)
      001F64 50 4E 50              4598 	.ascii "PNP"
      001F67 00                    4599 	.db	0
      001F68 01                    4600 	.db	1
      001F69 00 00 01 FB           4601 	.dw	0,507
      001F6D 11                    4602 	.uleb128	17
      001F6E 05                    4603 	.db	5
      001F6F 03                    4604 	.db	3
      001F70 00 00 00 D7           4605 	.dw	0,(_FBD)
      001F74 46 42 44              4606 	.ascii "FBD"
      001F77 00                    4607 	.db	0
      001F78 01                    4608 	.db	1
      001F79 00 00 01 FB           4609 	.dw	0,507
      001F7D 11                    4610 	.uleb128	17
      001F7E 05                    4611 	.db	5
      001F7F 03                    4612 	.db	3
      001F80 00 00 00 D8           4613 	.dw	0,(_PWMCON0)
      001F84 50 57 4D 43 4F 4E 30  4614 	.ascii "PWMCON0"
      001F8B 00                    4615 	.db	0
      001F8C 01                    4616 	.db	1
      001F8D 00 00 01 FB           4617 	.dw	0,507
      001F91 11                    4618 	.uleb128	17
      001F92 05                    4619 	.db	5
      001F93 03                    4620 	.db	3
      001F94 00 00 00 D9           4621 	.dw	0,(_PWMPL)
      001F98 50 57 4D 50 4C        4622 	.ascii "PWMPL"
      001F9D 00                    4623 	.db	0
      001F9E 01                    4624 	.db	1
      001F9F 00 00 01 FB           4625 	.dw	0,507
      001FA3 11                    4626 	.uleb128	17
      001FA4 05                    4627 	.db	5
      001FA5 03                    4628 	.db	3
      001FA6 00 00 00 DA           4629 	.dw	0,(_PWM0L)
      001FAA 50 57 4D 30 4C        4630 	.ascii "PWM0L"
      001FAF 00                    4631 	.db	0
      001FB0 01                    4632 	.db	1
      001FB1 00 00 01 FB           4633 	.dw	0,507
      001FB5 11                    4634 	.uleb128	17
      001FB6 05                    4635 	.db	5
      001FB7 03                    4636 	.db	3
      001FB8 00 00 00 DB           4637 	.dw	0,(_PWM1L)
      001FBC 50 57 4D 31 4C        4638 	.ascii "PWM1L"
      001FC1 00                    4639 	.db	0
      001FC2 01                    4640 	.db	1
      001FC3 00 00 01 FB           4641 	.dw	0,507
      001FC7 11                    4642 	.uleb128	17
      001FC8 05                    4643 	.db	5
      001FC9 03                    4644 	.db	3
      001FCA 00 00 00 DC           4645 	.dw	0,(_PWM2L)
      001FCE 50 57 4D 32 4C        4646 	.ascii "PWM2L"
      001FD3 00                    4647 	.db	0
      001FD4 01                    4648 	.db	1
      001FD5 00 00 01 FB           4649 	.dw	0,507
      001FD9 11                    4650 	.uleb128	17
      001FDA 05                    4651 	.db	5
      001FDB 03                    4652 	.db	3
      001FDC 00 00 00 DD           4653 	.dw	0,(_PWM3L)
      001FE0 50 57 4D 33 4C        4654 	.ascii "PWM3L"
      001FE5 00                    4655 	.db	0
      001FE6 01                    4656 	.db	1
      001FE7 00 00 01 FB           4657 	.dw	0,507
      001FEB 11                    4658 	.uleb128	17
      001FEC 05                    4659 	.db	5
      001FED 03                    4660 	.db	3
      001FEE 00 00 00 DE           4661 	.dw	0,(_PIOCON0)
      001FF2 50 49 4F 43 4F 4E 30  4662 	.ascii "PIOCON0"
      001FF9 00                    4663 	.db	0
      001FFA 01                    4664 	.db	1
      001FFB 00 00 01 FB           4665 	.dw	0,507
      001FFF 11                    4666 	.uleb128	17
      002000 05                    4667 	.db	5
      002001 03                    4668 	.db	3
      002002 00 00 00 DF           4669 	.dw	0,(_PWMCON1)
      002006 50 57 4D 43 4F 4E 31  4670 	.ascii "PWMCON1"
      00200D 00                    4671 	.db	0
      00200E 01                    4672 	.db	1
      00200F 00 00 01 FB           4673 	.dw	0,507
      002013 11                    4674 	.uleb128	17
      002014 05                    4675 	.db	5
      002015 03                    4676 	.db	3
      002016 00 00 00 E0           4677 	.dw	0,(_ACC)
      00201A 41 43 43              4678 	.ascii "ACC"
      00201D 00                    4679 	.db	0
      00201E 01                    4680 	.db	1
      00201F 00 00 01 FB           4681 	.dw	0,507
      002023 11                    4682 	.uleb128	17
      002024 05                    4683 	.db	5
      002025 03                    4684 	.db	3
      002026 00 00 00 E1           4685 	.dw	0,(_ADCCON1)
      00202A 41 44 43 43 4F 4E 31  4686 	.ascii "ADCCON1"
      002031 00                    4687 	.db	0
      002032 01                    4688 	.db	1
      002033 00 00 01 FB           4689 	.dw	0,507
      002037 11                    4690 	.uleb128	17
      002038 05                    4691 	.db	5
      002039 03                    4692 	.db	3
      00203A 00 00 00 E2           4693 	.dw	0,(_ADCCON2)
      00203E 41 44 43 43 4F 4E 32  4694 	.ascii "ADCCON2"
      002045 00                    4695 	.db	0
      002046 01                    4696 	.db	1
      002047 00 00 01 FB           4697 	.dw	0,507
      00204B 11                    4698 	.uleb128	17
      00204C 05                    4699 	.db	5
      00204D 03                    4700 	.db	3
      00204E 00 00 00 E3           4701 	.dw	0,(_ADCDLY)
      002052 41 44 43 44 4C 59     4702 	.ascii "ADCDLY"
      002058 00                    4703 	.db	0
      002059 01                    4704 	.db	1
      00205A 00 00 01 FB           4705 	.dw	0,507
      00205E 11                    4706 	.uleb128	17
      00205F 05                    4707 	.db	5
      002060 03                    4708 	.db	3
      002061 00 00 00 E4           4709 	.dw	0,(_C0L)
      002065 43 30 4C              4710 	.ascii "C0L"
      002068 00                    4711 	.db	0
      002069 01                    4712 	.db	1
      00206A 00 00 01 FB           4713 	.dw	0,507
      00206E 11                    4714 	.uleb128	17
      00206F 05                    4715 	.db	5
      002070 03                    4716 	.db	3
      002071 00 00 00 E5           4717 	.dw	0,(_C0H)
      002075 43 30 48              4718 	.ascii "C0H"
      002078 00                    4719 	.db	0
      002079 01                    4720 	.db	1
      00207A 00 00 01 FB           4721 	.dw	0,507
      00207E 11                    4722 	.uleb128	17
      00207F 05                    4723 	.db	5
      002080 03                    4724 	.db	3
      002081 00 00 00 E6           4725 	.dw	0,(_C1L)
      002085 43 31 4C              4726 	.ascii "C1L"
      002088 00                    4727 	.db	0
      002089 01                    4728 	.db	1
      00208A 00 00 01 FB           4729 	.dw	0,507
      00208E 11                    4730 	.uleb128	17
      00208F 05                    4731 	.db	5
      002090 03                    4732 	.db	3
      002091 00 00 00 E7           4733 	.dw	0,(_C1H)
      002095 43 31 48              4734 	.ascii "C1H"
      002098 00                    4735 	.db	0
      002099 01                    4736 	.db	1
      00209A 00 00 01 FB           4737 	.dw	0,507
      00209E 11                    4738 	.uleb128	17
      00209F 05                    4739 	.db	5
      0020A0 03                    4740 	.db	3
      0020A1 00 00 00 E8           4741 	.dw	0,(_ADCCON0)
      0020A5 41 44 43 43 4F 4E 30  4742 	.ascii "ADCCON0"
      0020AC 00                    4743 	.db	0
      0020AD 01                    4744 	.db	1
      0020AE 00 00 01 FB           4745 	.dw	0,507
      0020B2 11                    4746 	.uleb128	17
      0020B3 05                    4747 	.db	5
      0020B4 03                    4748 	.db	3
      0020B5 00 00 00 E9           4749 	.dw	0,(_PICON)
      0020B9 50 49 43 4F 4E        4750 	.ascii "PICON"
      0020BE 00                    4751 	.db	0
      0020BF 01                    4752 	.db	1
      0020C0 00 00 01 FB           4753 	.dw	0,507
      0020C4 11                    4754 	.uleb128	17
      0020C5 05                    4755 	.db	5
      0020C6 03                    4756 	.db	3
      0020C7 00 00 00 EA           4757 	.dw	0,(_PINEN)
      0020CB 50 49 4E 45 4E        4758 	.ascii "PINEN"
      0020D0 00                    4759 	.db	0
      0020D1 01                    4760 	.db	1
      0020D2 00 00 01 FB           4761 	.dw	0,507
      0020D6 11                    4762 	.uleb128	17
      0020D7 05                    4763 	.db	5
      0020D8 03                    4764 	.db	3
      0020D9 00 00 00 EB           4765 	.dw	0,(_PIPEN)
      0020DD 50 49 50 45 4E        4766 	.ascii "PIPEN"
      0020E2 00                    4767 	.db	0
      0020E3 01                    4768 	.db	1
      0020E4 00 00 01 FB           4769 	.dw	0,507
      0020E8 11                    4770 	.uleb128	17
      0020E9 05                    4771 	.db	5
      0020EA 03                    4772 	.db	3
      0020EB 00 00 00 EC           4773 	.dw	0,(_PIF)
      0020EF 50 49 46              4774 	.ascii "PIF"
      0020F2 00                    4775 	.db	0
      0020F3 01                    4776 	.db	1
      0020F4 00 00 01 FB           4777 	.dw	0,507
      0020F8 11                    4778 	.uleb128	17
      0020F9 05                    4779 	.db	5
      0020FA 03                    4780 	.db	3
      0020FB 00 00 00 ED           4781 	.dw	0,(_C2L)
      0020FF 43 32 4C              4782 	.ascii "C2L"
      002102 00                    4783 	.db	0
      002103 01                    4784 	.db	1
      002104 00 00 01 FB           4785 	.dw	0,507
      002108 11                    4786 	.uleb128	17
      002109 05                    4787 	.db	5
      00210A 03                    4788 	.db	3
      00210B 00 00 00 EE           4789 	.dw	0,(_C2H)
      00210F 43 32 48              4790 	.ascii "C2H"
      002112 00                    4791 	.db	0
      002113 01                    4792 	.db	1
      002114 00 00 01 FB           4793 	.dw	0,507
      002118 11                    4794 	.uleb128	17
      002119 05                    4795 	.db	5
      00211A 03                    4796 	.db	3
      00211B 00 00 00 EF           4797 	.dw	0,(_EIP)
      00211F 45 49 50              4798 	.ascii "EIP"
      002122 00                    4799 	.db	0
      002123 01                    4800 	.db	1
      002124 00 00 01 FB           4801 	.dw	0,507
      002128 11                    4802 	.uleb128	17
      002129 05                    4803 	.db	5
      00212A 03                    4804 	.db	3
      00212B 00 00 00 F0           4805 	.dw	0,(_B)
      00212F 42                    4806 	.ascii "B"
      002130 00                    4807 	.db	0
      002131 01                    4808 	.db	1
      002132 00 00 01 FB           4809 	.dw	0,507
      002136 11                    4810 	.uleb128	17
      002137 05                    4811 	.db	5
      002138 03                    4812 	.db	3
      002139 00 00 00 F1           4813 	.dw	0,(_CAPCON3)
      00213D 43 41 50 43 4F 4E 33  4814 	.ascii "CAPCON3"
      002144 00                    4815 	.db	0
      002145 01                    4816 	.db	1
      002146 00 00 01 FB           4817 	.dw	0,507
      00214A 11                    4818 	.uleb128	17
      00214B 05                    4819 	.db	5
      00214C 03                    4820 	.db	3
      00214D 00 00 00 F2           4821 	.dw	0,(_CAPCON4)
      002151 43 41 50 43 4F 4E 34  4822 	.ascii "CAPCON4"
      002158 00                    4823 	.db	0
      002159 01                    4824 	.db	1
      00215A 00 00 01 FB           4825 	.dw	0,507
      00215E 11                    4826 	.uleb128	17
      00215F 05                    4827 	.db	5
      002160 03                    4828 	.db	3
      002161 00 00 00 F3           4829 	.dw	0,(_SPCR)
      002165 53 50 43 52           4830 	.ascii "SPCR"
      002169 00                    4831 	.db	0
      00216A 01                    4832 	.db	1
      00216B 00 00 01 FB           4833 	.dw	0,507
      00216F 11                    4834 	.uleb128	17
      002170 05                    4835 	.db	5
      002171 03                    4836 	.db	3
      002172 00 00 00 F3           4837 	.dw	0,(_SPCR2)
      002176 53 50 43 52 32        4838 	.ascii "SPCR2"
      00217B 00                    4839 	.db	0
      00217C 01                    4840 	.db	1
      00217D 00 00 01 FB           4841 	.dw	0,507
      002181 11                    4842 	.uleb128	17
      002182 05                    4843 	.db	5
      002183 03                    4844 	.db	3
      002184 00 00 00 F4           4845 	.dw	0,(_SPSR)
      002188 53 50 53 52           4846 	.ascii "SPSR"
      00218C 00                    4847 	.db	0
      00218D 01                    4848 	.db	1
      00218E 00 00 01 FB           4849 	.dw	0,507
      002192 11                    4850 	.uleb128	17
      002193 05                    4851 	.db	5
      002194 03                    4852 	.db	3
      002195 00 00 00 F5           4853 	.dw	0,(_SPDR)
      002199 53 50 44 52           4854 	.ascii "SPDR"
      00219D 00                    4855 	.db	0
      00219E 01                    4856 	.db	1
      00219F 00 00 01 FB           4857 	.dw	0,507
      0021A3 11                    4858 	.uleb128	17
      0021A4 05                    4859 	.db	5
      0021A5 03                    4860 	.db	3
      0021A6 00 00 00 F6           4861 	.dw	0,(_AINDIDS)
      0021AA 41 49 4E 44 49 44 53  4862 	.ascii "AINDIDS"
      0021B1 00                    4863 	.db	0
      0021B2 01                    4864 	.db	1
      0021B3 00 00 01 FB           4865 	.dw	0,507
      0021B7 11                    4866 	.uleb128	17
      0021B8 05                    4867 	.db	5
      0021B9 03                    4868 	.db	3
      0021BA 00 00 00 F7           4869 	.dw	0,(_EIPH)
      0021BE 45 49 50 48           4870 	.ascii "EIPH"
      0021C2 00                    4871 	.db	0
      0021C3 01                    4872 	.db	1
      0021C4 00 00 01 FB           4873 	.dw	0,507
      0021C8 11                    4874 	.uleb128	17
      0021C9 05                    4875 	.db	5
      0021CA 03                    4876 	.db	3
      0021CB 00 00 00 F8           4877 	.dw	0,(_SCON_1)
      0021CF 53 43 4F 4E 5F 31     4878 	.ascii "SCON_1"
      0021D5 00                    4879 	.db	0
      0021D6 01                    4880 	.db	1
      0021D7 00 00 01 FB           4881 	.dw	0,507
      0021DB 11                    4882 	.uleb128	17
      0021DC 05                    4883 	.db	5
      0021DD 03                    4884 	.db	3
      0021DE 00 00 00 F9           4885 	.dw	0,(_PDTEN)
      0021E2 50 44 54 45 4E        4886 	.ascii "PDTEN"
      0021E7 00                    4887 	.db	0
      0021E8 01                    4888 	.db	1
      0021E9 00 00 01 FB           4889 	.dw	0,507
      0021ED 11                    4890 	.uleb128	17
      0021EE 05                    4891 	.db	5
      0021EF 03                    4892 	.db	3
      0021F0 00 00 00 FA           4893 	.dw	0,(_PDTCNT)
      0021F4 50 44 54 43 4E 54     4894 	.ascii "PDTCNT"
      0021FA 00                    4895 	.db	0
      0021FB 01                    4896 	.db	1
      0021FC 00 00 01 FB           4897 	.dw	0,507
      002200 11                    4898 	.uleb128	17
      002201 05                    4899 	.db	5
      002202 03                    4900 	.db	3
      002203 00 00 00 FB           4901 	.dw	0,(_PMEN)
      002207 50 4D 45 4E           4902 	.ascii "PMEN"
      00220B 00                    4903 	.db	0
      00220C 01                    4904 	.db	1
      00220D 00 00 01 FB           4905 	.dw	0,507
      002211 11                    4906 	.uleb128	17
      002212 05                    4907 	.db	5
      002213 03                    4908 	.db	3
      002214 00 00 00 FC           4909 	.dw	0,(_PMD)
      002218 50 4D 44              4910 	.ascii "PMD"
      00221B 00                    4911 	.db	0
      00221C 01                    4912 	.db	1
      00221D 00 00 01 FB           4913 	.dw	0,507
      002221 11                    4914 	.uleb128	17
      002222 05                    4915 	.db	5
      002223 03                    4916 	.db	3
      002224 00 00 00 FE           4917 	.dw	0,(_EIP1)
      002228 45 49 50 31           4918 	.ascii "EIP1"
      00222C 00                    4919 	.db	0
      00222D 01                    4920 	.db	1
      00222E 00 00 01 FB           4921 	.dw	0,507
      002232 11                    4922 	.uleb128	17
      002233 05                    4923 	.db	5
      002234 03                    4924 	.db	3
      002235 00 00 00 FF           4925 	.dw	0,(_EIPH1)
      002239 45 49 50 48 31        4926 	.ascii "EIPH1"
      00223E 00                    4927 	.db	0
      00223F 01                    4928 	.db	1
      002240 00 00 01 FB           4929 	.dw	0,507
      002244 0C                    4930 	.uleb128	12
      002245 5F 73 62 69 74        4931 	.ascii "_sbit"
      00224A 00                    4932 	.db	0
      00224B 01                    4933 	.db	1
      00224C 08                    4934 	.db	8
      00224D 0D                    4935 	.uleb128	13
      00224E 00 00 0E 2A           4936 	.dw	0,3626
      002252 11                    4937 	.uleb128	17
      002253 05                    4938 	.db	5
      002254 03                    4939 	.db	3
      002255 00 00 00 FF           4940 	.dw	0,(_SM0_1)
      002259 53 4D 30 5F 31        4941 	.ascii "SM0_1"
      00225E 00                    4942 	.db	0
      00225F 01                    4943 	.db	1
      002260 00 00 0E 33           4944 	.dw	0,3635
      002264 11                    4945 	.uleb128	17
      002265 05                    4946 	.db	5
      002266 03                    4947 	.db	3
      002267 00 00 00 FF           4948 	.dw	0,(_FE_1)
      00226B 46 45 5F 31           4949 	.ascii "FE_1"
      00226F 00                    4950 	.db	0
      002270 01                    4951 	.db	1
      002271 00 00 0E 33           4952 	.dw	0,3635
      002275 11                    4953 	.uleb128	17
      002276 05                    4954 	.db	5
      002277 03                    4955 	.db	3
      002278 00 00 00 FE           4956 	.dw	0,(_SM1_1)
      00227C 53 4D 31 5F 31        4957 	.ascii "SM1_1"
      002281 00                    4958 	.db	0
      002282 01                    4959 	.db	1
      002283 00 00 0E 33           4960 	.dw	0,3635
      002287 11                    4961 	.uleb128	17
      002288 05                    4962 	.db	5
      002289 03                    4963 	.db	3
      00228A 00 00 00 FD           4964 	.dw	0,(_SM2_1)
      00228E 53 4D 32 5F 31        4965 	.ascii "SM2_1"
      002293 00                    4966 	.db	0
      002294 01                    4967 	.db	1
      002295 00 00 0E 33           4968 	.dw	0,3635
      002299 11                    4969 	.uleb128	17
      00229A 05                    4970 	.db	5
      00229B 03                    4971 	.db	3
      00229C 00 00 00 FC           4972 	.dw	0,(_REN_1)
      0022A0 52 45 4E 5F 31        4973 	.ascii "REN_1"
      0022A5 00                    4974 	.db	0
      0022A6 01                    4975 	.db	1
      0022A7 00 00 0E 33           4976 	.dw	0,3635
      0022AB 11                    4977 	.uleb128	17
      0022AC 05                    4978 	.db	5
      0022AD 03                    4979 	.db	3
      0022AE 00 00 00 FB           4980 	.dw	0,(_TB8_1)
      0022B2 54 42 38 5F 31        4981 	.ascii "TB8_1"
      0022B7 00                    4982 	.db	0
      0022B8 01                    4983 	.db	1
      0022B9 00 00 0E 33           4984 	.dw	0,3635
      0022BD 11                    4985 	.uleb128	17
      0022BE 05                    4986 	.db	5
      0022BF 03                    4987 	.db	3
      0022C0 00 00 00 FA           4988 	.dw	0,(_RB8_1)
      0022C4 52 42 38 5F 31        4989 	.ascii "RB8_1"
      0022C9 00                    4990 	.db	0
      0022CA 01                    4991 	.db	1
      0022CB 00 00 0E 33           4992 	.dw	0,3635
      0022CF 11                    4993 	.uleb128	17
      0022D0 05                    4994 	.db	5
      0022D1 03                    4995 	.db	3
      0022D2 00 00 00 F9           4996 	.dw	0,(_TI_1)
      0022D6 54 49 5F 31           4997 	.ascii "TI_1"
      0022DA 00                    4998 	.db	0
      0022DB 01                    4999 	.db	1
      0022DC 00 00 0E 33           5000 	.dw	0,3635
      0022E0 11                    5001 	.uleb128	17
      0022E1 05                    5002 	.db	5
      0022E2 03                    5003 	.db	3
      0022E3 00 00 00 F8           5004 	.dw	0,(_RI_1)
      0022E7 52 49 5F 31           5005 	.ascii "RI_1"
      0022EB 00                    5006 	.db	0
      0022EC 01                    5007 	.db	1
      0022ED 00 00 0E 33           5008 	.dw	0,3635
      0022F1 11                    5009 	.uleb128	17
      0022F2 05                    5010 	.db	5
      0022F3 03                    5011 	.db	3
      0022F4 00 00 00 EF           5012 	.dw	0,(_ADCF)
      0022F8 41 44 43 46           5013 	.ascii "ADCF"
      0022FC 00                    5014 	.db	0
      0022FD 01                    5015 	.db	1
      0022FE 00 00 0E 33           5016 	.dw	0,3635
      002302 11                    5017 	.uleb128	17
      002303 05                    5018 	.db	5
      002304 03                    5019 	.db	3
      002305 00 00 00 EE           5020 	.dw	0,(_ADCS)
      002309 41 44 43 53           5021 	.ascii "ADCS"
      00230D 00                    5022 	.db	0
      00230E 01                    5023 	.db	1
      00230F 00 00 0E 33           5024 	.dw	0,3635
      002313 11                    5025 	.uleb128	17
      002314 05                    5026 	.db	5
      002315 03                    5027 	.db	3
      002316 00 00 00 ED           5028 	.dw	0,(_ETGSEL1)
      00231A 45 54 47 53 45 4C 31  5029 	.ascii "ETGSEL1"
      002321 00                    5030 	.db	0
      002322 01                    5031 	.db	1
      002323 00 00 0E 33           5032 	.dw	0,3635
      002327 11                    5033 	.uleb128	17
      002328 05                    5034 	.db	5
      002329 03                    5035 	.db	3
      00232A 00 00 00 EC           5036 	.dw	0,(_ETGSEL0)
      00232E 45 54 47 53 45 4C 30  5037 	.ascii "ETGSEL0"
      002335 00                    5038 	.db	0
      002336 01                    5039 	.db	1
      002337 00 00 0E 33           5040 	.dw	0,3635
      00233B 11                    5041 	.uleb128	17
      00233C 05                    5042 	.db	5
      00233D 03                    5043 	.db	3
      00233E 00 00 00 EB           5044 	.dw	0,(_ADCHS3)
      002342 41 44 43 48 53 33     5045 	.ascii "ADCHS3"
      002348 00                    5046 	.db	0
      002349 01                    5047 	.db	1
      00234A 00 00 0E 33           5048 	.dw	0,3635
      00234E 11                    5049 	.uleb128	17
      00234F 05                    5050 	.db	5
      002350 03                    5051 	.db	3
      002351 00 00 00 EA           5052 	.dw	0,(_ADCHS2)
      002355 41 44 43 48 53 32     5053 	.ascii "ADCHS2"
      00235B 00                    5054 	.db	0
      00235C 01                    5055 	.db	1
      00235D 00 00 0E 33           5056 	.dw	0,3635
      002361 11                    5057 	.uleb128	17
      002362 05                    5058 	.db	5
      002363 03                    5059 	.db	3
      002364 00 00 00 E9           5060 	.dw	0,(_ADCHS1)
      002368 41 44 43 48 53 31     5061 	.ascii "ADCHS1"
      00236E 00                    5062 	.db	0
      00236F 01                    5063 	.db	1
      002370 00 00 0E 33           5064 	.dw	0,3635
      002374 11                    5065 	.uleb128	17
      002375 05                    5066 	.db	5
      002376 03                    5067 	.db	3
      002377 00 00 00 E8           5068 	.dw	0,(_ADCHS0)
      00237B 41 44 43 48 53 30     5069 	.ascii "ADCHS0"
      002381 00                    5070 	.db	0
      002382 01                    5071 	.db	1
      002383 00 00 0E 33           5072 	.dw	0,3635
      002387 11                    5073 	.uleb128	17
      002388 05                    5074 	.db	5
      002389 03                    5075 	.db	3
      00238A 00 00 00 DF           5076 	.dw	0,(_PWMRUN)
      00238E 50 57 4D 52 55 4E     5077 	.ascii "PWMRUN"
      002394 00                    5078 	.db	0
      002395 01                    5079 	.db	1
      002396 00 00 0E 33           5080 	.dw	0,3635
      00239A 11                    5081 	.uleb128	17
      00239B 05                    5082 	.db	5
      00239C 03                    5083 	.db	3
      00239D 00 00 00 DE           5084 	.dw	0,(_LOAD)
      0023A1 4C 4F 41 44           5085 	.ascii "LOAD"
      0023A5 00                    5086 	.db	0
      0023A6 01                    5087 	.db	1
      0023A7 00 00 0E 33           5088 	.dw	0,3635
      0023AB 11                    5089 	.uleb128	17
      0023AC 05                    5090 	.db	5
      0023AD 03                    5091 	.db	3
      0023AE 00 00 00 DD           5092 	.dw	0,(_PWMF)
      0023B2 50 57 4D 46           5093 	.ascii "PWMF"
      0023B6 00                    5094 	.db	0
      0023B7 01                    5095 	.db	1
      0023B8 00 00 0E 33           5096 	.dw	0,3635
      0023BC 11                    5097 	.uleb128	17
      0023BD 05                    5098 	.db	5
      0023BE 03                    5099 	.db	3
      0023BF 00 00 00 DC           5100 	.dw	0,(_CLRPWM)
      0023C3 43 4C 52 50 57 4D     5101 	.ascii "CLRPWM"
      0023C9 00                    5102 	.db	0
      0023CA 01                    5103 	.db	1
      0023CB 00 00 0E 33           5104 	.dw	0,3635
      0023CF 11                    5105 	.uleb128	17
      0023D0 05                    5106 	.db	5
      0023D1 03                    5107 	.db	3
      0023D2 00 00 00 D7           5108 	.dw	0,(_CY)
      0023D6 43 59                 5109 	.ascii "CY"
      0023D8 00                    5110 	.db	0
      0023D9 01                    5111 	.db	1
      0023DA 00 00 0E 33           5112 	.dw	0,3635
      0023DE 11                    5113 	.uleb128	17
      0023DF 05                    5114 	.db	5
      0023E0 03                    5115 	.db	3
      0023E1 00 00 00 D6           5116 	.dw	0,(_AC)
      0023E5 41 43                 5117 	.ascii "AC"
      0023E7 00                    5118 	.db	0
      0023E8 01                    5119 	.db	1
      0023E9 00 00 0E 33           5120 	.dw	0,3635
      0023ED 11                    5121 	.uleb128	17
      0023EE 05                    5122 	.db	5
      0023EF 03                    5123 	.db	3
      0023F0 00 00 00 D5           5124 	.dw	0,(_F0)
      0023F4 46 30                 5125 	.ascii "F0"
      0023F6 00                    5126 	.db	0
      0023F7 01                    5127 	.db	1
      0023F8 00 00 0E 33           5128 	.dw	0,3635
      0023FC 11                    5129 	.uleb128	17
      0023FD 05                    5130 	.db	5
      0023FE 03                    5131 	.db	3
      0023FF 00 00 00 D4           5132 	.dw	0,(_RS1)
      002403 52 53 31              5133 	.ascii "RS1"
      002406 00                    5134 	.db	0
      002407 01                    5135 	.db	1
      002408 00 00 0E 33           5136 	.dw	0,3635
      00240C 11                    5137 	.uleb128	17
      00240D 05                    5138 	.db	5
      00240E 03                    5139 	.db	3
      00240F 00 00 00 D3           5140 	.dw	0,(_RS0)
      002413 52 53 30              5141 	.ascii "RS0"
      002416 00                    5142 	.db	0
      002417 01                    5143 	.db	1
      002418 00 00 0E 33           5144 	.dw	0,3635
      00241C 11                    5145 	.uleb128	17
      00241D 05                    5146 	.db	5
      00241E 03                    5147 	.db	3
      00241F 00 00 00 D2           5148 	.dw	0,(_OV)
      002423 4F 56                 5149 	.ascii "OV"
      002425 00                    5150 	.db	0
      002426 01                    5151 	.db	1
      002427 00 00 0E 33           5152 	.dw	0,3635
      00242B 11                    5153 	.uleb128	17
      00242C 05                    5154 	.db	5
      00242D 03                    5155 	.db	3
      00242E 00 00 00 D0           5156 	.dw	0,(_P)
      002432 50                    5157 	.ascii "P"
      002433 00                    5158 	.db	0
      002434 01                    5159 	.db	1
      002435 00 00 0E 33           5160 	.dw	0,3635
      002439 11                    5161 	.uleb128	17
      00243A 05                    5162 	.db	5
      00243B 03                    5163 	.db	3
      00243C 00 00 00 CF           5164 	.dw	0,(_TF2)
      002440 54 46 32              5165 	.ascii "TF2"
      002443 00                    5166 	.db	0
      002444 01                    5167 	.db	1
      002445 00 00 0E 33           5168 	.dw	0,3635
      002449 11                    5169 	.uleb128	17
      00244A 05                    5170 	.db	5
      00244B 03                    5171 	.db	3
      00244C 00 00 00 CA           5172 	.dw	0,(_TR2)
      002450 54 52 32              5173 	.ascii "TR2"
      002453 00                    5174 	.db	0
      002454 01                    5175 	.db	1
      002455 00 00 0E 33           5176 	.dw	0,3635
      002459 11                    5177 	.uleb128	17
      00245A 05                    5178 	.db	5
      00245B 03                    5179 	.db	3
      00245C 00 00 00 C8           5180 	.dw	0,(_CM_RL2)
      002460 43 4D 5F 52 4C 32     5181 	.ascii "CM_RL2"
      002466 00                    5182 	.db	0
      002467 01                    5183 	.db	1
      002468 00 00 0E 33           5184 	.dw	0,3635
      00246C 11                    5185 	.uleb128	17
      00246D 05                    5186 	.db	5
      00246E 03                    5187 	.db	3
      00246F 00 00 00 C6           5188 	.dw	0,(_I2CEN)
      002473 49 32 43 45 4E        5189 	.ascii "I2CEN"
      002478 00                    5190 	.db	0
      002479 01                    5191 	.db	1
      00247A 00 00 0E 33           5192 	.dw	0,3635
      00247E 11                    5193 	.uleb128	17
      00247F 05                    5194 	.db	5
      002480 03                    5195 	.db	3
      002481 00 00 00 C5           5196 	.dw	0,(_STA)
      002485 53 54 41              5197 	.ascii "STA"
      002488 00                    5198 	.db	0
      002489 01                    5199 	.db	1
      00248A 00 00 0E 33           5200 	.dw	0,3635
      00248E 11                    5201 	.uleb128	17
      00248F 05                    5202 	.db	5
      002490 03                    5203 	.db	3
      002491 00 00 00 C4           5204 	.dw	0,(_STO)
      002495 53 54 4F              5205 	.ascii "STO"
      002498 00                    5206 	.db	0
      002499 01                    5207 	.db	1
      00249A 00 00 0E 33           5208 	.dw	0,3635
      00249E 11                    5209 	.uleb128	17
      00249F 05                    5210 	.db	5
      0024A0 03                    5211 	.db	3
      0024A1 00 00 00 C3           5212 	.dw	0,(_SI)
      0024A5 53 49                 5213 	.ascii "SI"
      0024A7 00                    5214 	.db	0
      0024A8 01                    5215 	.db	1
      0024A9 00 00 0E 33           5216 	.dw	0,3635
      0024AD 11                    5217 	.uleb128	17
      0024AE 05                    5218 	.db	5
      0024AF 03                    5219 	.db	3
      0024B0 00 00 00 C2           5220 	.dw	0,(_AA)
      0024B4 41 41                 5221 	.ascii "AA"
      0024B6 00                    5222 	.db	0
      0024B7 01                    5223 	.db	1
      0024B8 00 00 0E 33           5224 	.dw	0,3635
      0024BC 11                    5225 	.uleb128	17
      0024BD 05                    5226 	.db	5
      0024BE 03                    5227 	.db	3
      0024BF 00 00 00 C0           5228 	.dw	0,(_I2CPX)
      0024C3 49 32 43 50 58        5229 	.ascii "I2CPX"
      0024C8 00                    5230 	.db	0
      0024C9 01                    5231 	.db	1
      0024CA 00 00 0E 33           5232 	.dw	0,3635
      0024CE 11                    5233 	.uleb128	17
      0024CF 05                    5234 	.db	5
      0024D0 03                    5235 	.db	3
      0024D1 00 00 00 BE           5236 	.dw	0,(_PADC)
      0024D5 50 41 44 43           5237 	.ascii "PADC"
      0024D9 00                    5238 	.db	0
      0024DA 01                    5239 	.db	1
      0024DB 00 00 0E 33           5240 	.dw	0,3635
      0024DF 11                    5241 	.uleb128	17
      0024E0 05                    5242 	.db	5
      0024E1 03                    5243 	.db	3
      0024E2 00 00 00 BD           5244 	.dw	0,(_PBOD)
      0024E6 50 42 4F 44           5245 	.ascii "PBOD"
      0024EA 00                    5246 	.db	0
      0024EB 01                    5247 	.db	1
      0024EC 00 00 0E 33           5248 	.dw	0,3635
      0024F0 11                    5249 	.uleb128	17
      0024F1 05                    5250 	.db	5
      0024F2 03                    5251 	.db	3
      0024F3 00 00 00 BC           5252 	.dw	0,(_PS)
      0024F7 50 53                 5253 	.ascii "PS"
      0024F9 00                    5254 	.db	0
      0024FA 01                    5255 	.db	1
      0024FB 00 00 0E 33           5256 	.dw	0,3635
      0024FF 11                    5257 	.uleb128	17
      002500 05                    5258 	.db	5
      002501 03                    5259 	.db	3
      002502 00 00 00 BB           5260 	.dw	0,(_PT1)
      002506 50 54 31              5261 	.ascii "PT1"
      002509 00                    5262 	.db	0
      00250A 01                    5263 	.db	1
      00250B 00 00 0E 33           5264 	.dw	0,3635
      00250F 11                    5265 	.uleb128	17
      002510 05                    5266 	.db	5
      002511 03                    5267 	.db	3
      002512 00 00 00 BA           5268 	.dw	0,(_PX1)
      002516 50 58 31              5269 	.ascii "PX1"
      002519 00                    5270 	.db	0
      00251A 01                    5271 	.db	1
      00251B 00 00 0E 33           5272 	.dw	0,3635
      00251F 11                    5273 	.uleb128	17
      002520 05                    5274 	.db	5
      002521 03                    5275 	.db	3
      002522 00 00 00 B9           5276 	.dw	0,(_PT0)
      002526 50 54 30              5277 	.ascii "PT0"
      002529 00                    5278 	.db	0
      00252A 01                    5279 	.db	1
      00252B 00 00 0E 33           5280 	.dw	0,3635
      00252F 11                    5281 	.uleb128	17
      002530 05                    5282 	.db	5
      002531 03                    5283 	.db	3
      002532 00 00 00 B8           5284 	.dw	0,(_PX0)
      002536 50 58 30              5285 	.ascii "PX0"
      002539 00                    5286 	.db	0
      00253A 01                    5287 	.db	1
      00253B 00 00 0E 33           5288 	.dw	0,3635
      00253F 11                    5289 	.uleb128	17
      002540 05                    5290 	.db	5
      002541 03                    5291 	.db	3
      002542 00 00 00 B0           5292 	.dw	0,(_P30)
      002546 50 33 30              5293 	.ascii "P30"
      002549 00                    5294 	.db	0
      00254A 01                    5295 	.db	1
      00254B 00 00 0E 33           5296 	.dw	0,3635
      00254F 11                    5297 	.uleb128	17
      002550 05                    5298 	.db	5
      002551 03                    5299 	.db	3
      002552 00 00 00 AF           5300 	.dw	0,(_EA)
      002556 45 41                 5301 	.ascii "EA"
      002558 00                    5302 	.db	0
      002559 01                    5303 	.db	1
      00255A 00 00 0E 33           5304 	.dw	0,3635
      00255E 11                    5305 	.uleb128	17
      00255F 05                    5306 	.db	5
      002560 03                    5307 	.db	3
      002561 00 00 00 AE           5308 	.dw	0,(_EADC)
      002565 45 41 44 43           5309 	.ascii "EADC"
      002569 00                    5310 	.db	0
      00256A 01                    5311 	.db	1
      00256B 00 00 0E 33           5312 	.dw	0,3635
      00256F 11                    5313 	.uleb128	17
      002570 05                    5314 	.db	5
      002571 03                    5315 	.db	3
      002572 00 00 00 AD           5316 	.dw	0,(_EBOD)
      002576 45 42 4F 44           5317 	.ascii "EBOD"
      00257A 00                    5318 	.db	0
      00257B 01                    5319 	.db	1
      00257C 00 00 0E 33           5320 	.dw	0,3635
      002580 11                    5321 	.uleb128	17
      002581 05                    5322 	.db	5
      002582 03                    5323 	.db	3
      002583 00 00 00 AC           5324 	.dw	0,(_ES)
      002587 45 53                 5325 	.ascii "ES"
      002589 00                    5326 	.db	0
      00258A 01                    5327 	.db	1
      00258B 00 00 0E 33           5328 	.dw	0,3635
      00258F 11                    5329 	.uleb128	17
      002590 05                    5330 	.db	5
      002591 03                    5331 	.db	3
      002592 00 00 00 AB           5332 	.dw	0,(_ET1)
      002596 45 54 31              5333 	.ascii "ET1"
      002599 00                    5334 	.db	0
      00259A 01                    5335 	.db	1
      00259B 00 00 0E 33           5336 	.dw	0,3635
      00259F 11                    5337 	.uleb128	17
      0025A0 05                    5338 	.db	5
      0025A1 03                    5339 	.db	3
      0025A2 00 00 00 AA           5340 	.dw	0,(_EX1)
      0025A6 45 58 31              5341 	.ascii "EX1"
      0025A9 00                    5342 	.db	0
      0025AA 01                    5343 	.db	1
      0025AB 00 00 0E 33           5344 	.dw	0,3635
      0025AF 11                    5345 	.uleb128	17
      0025B0 05                    5346 	.db	5
      0025B1 03                    5347 	.db	3
      0025B2 00 00 00 A9           5348 	.dw	0,(_ET0)
      0025B6 45 54 30              5349 	.ascii "ET0"
      0025B9 00                    5350 	.db	0
      0025BA 01                    5351 	.db	1
      0025BB 00 00 0E 33           5352 	.dw	0,3635
      0025BF 11                    5353 	.uleb128	17
      0025C0 05                    5354 	.db	5
      0025C1 03                    5355 	.db	3
      0025C2 00 00 00 A8           5356 	.dw	0,(_EX0)
      0025C6 45 58 30              5357 	.ascii "EX0"
      0025C9 00                    5358 	.db	0
      0025CA 01                    5359 	.db	1
      0025CB 00 00 0E 33           5360 	.dw	0,3635
      0025CF 11                    5361 	.uleb128	17
      0025D0 05                    5362 	.db	5
      0025D1 03                    5363 	.db	3
      0025D2 00 00 00 A0           5364 	.dw	0,(_P20)
      0025D6 50 32 30              5365 	.ascii "P20"
      0025D9 00                    5366 	.db	0
      0025DA 01                    5367 	.db	1
      0025DB 00 00 0E 33           5368 	.dw	0,3635
      0025DF 11                    5369 	.uleb128	17
      0025E0 05                    5370 	.db	5
      0025E1 03                    5371 	.db	3
      0025E2 00 00 00 9F           5372 	.dw	0,(_SM0)
      0025E6 53 4D 30              5373 	.ascii "SM0"
      0025E9 00                    5374 	.db	0
      0025EA 01                    5375 	.db	1
      0025EB 00 00 0E 33           5376 	.dw	0,3635
      0025EF 11                    5377 	.uleb128	17
      0025F0 05                    5378 	.db	5
      0025F1 03                    5379 	.db	3
      0025F2 00 00 00 9F           5380 	.dw	0,(_FE)
      0025F6 46 45                 5381 	.ascii "FE"
      0025F8 00                    5382 	.db	0
      0025F9 01                    5383 	.db	1
      0025FA 00 00 0E 33           5384 	.dw	0,3635
      0025FE 11                    5385 	.uleb128	17
      0025FF 05                    5386 	.db	5
      002600 03                    5387 	.db	3
      002601 00 00 00 9E           5388 	.dw	0,(_SM1)
      002605 53 4D 31              5389 	.ascii "SM1"
      002608 00                    5390 	.db	0
      002609 01                    5391 	.db	1
      00260A 00 00 0E 33           5392 	.dw	0,3635
      00260E 11                    5393 	.uleb128	17
      00260F 05                    5394 	.db	5
      002610 03                    5395 	.db	3
      002611 00 00 00 9D           5396 	.dw	0,(_SM2)
      002615 53 4D 32              5397 	.ascii "SM2"
      002618 00                    5398 	.db	0
      002619 01                    5399 	.db	1
      00261A 00 00 0E 33           5400 	.dw	0,3635
      00261E 11                    5401 	.uleb128	17
      00261F 05                    5402 	.db	5
      002620 03                    5403 	.db	3
      002621 00 00 00 9C           5404 	.dw	0,(_REN)
      002625 52 45 4E              5405 	.ascii "REN"
      002628 00                    5406 	.db	0
      002629 01                    5407 	.db	1
      00262A 00 00 0E 33           5408 	.dw	0,3635
      00262E 11                    5409 	.uleb128	17
      00262F 05                    5410 	.db	5
      002630 03                    5411 	.db	3
      002631 00 00 00 9B           5412 	.dw	0,(_TB8)
      002635 54 42 38              5413 	.ascii "TB8"
      002638 00                    5414 	.db	0
      002639 01                    5415 	.db	1
      00263A 00 00 0E 33           5416 	.dw	0,3635
      00263E 11                    5417 	.uleb128	17
      00263F 05                    5418 	.db	5
      002640 03                    5419 	.db	3
      002641 00 00 00 9A           5420 	.dw	0,(_RB8)
      002645 52 42 38              5421 	.ascii "RB8"
      002648 00                    5422 	.db	0
      002649 01                    5423 	.db	1
      00264A 00 00 0E 33           5424 	.dw	0,3635
      00264E 11                    5425 	.uleb128	17
      00264F 05                    5426 	.db	5
      002650 03                    5427 	.db	3
      002651 00 00 00 99           5428 	.dw	0,(_TI)
      002655 54 49                 5429 	.ascii "TI"
      002657 00                    5430 	.db	0
      002658 01                    5431 	.db	1
      002659 00 00 0E 33           5432 	.dw	0,3635
      00265D 11                    5433 	.uleb128	17
      00265E 05                    5434 	.db	5
      00265F 03                    5435 	.db	3
      002660 00 00 00 98           5436 	.dw	0,(_RI)
      002664 52 49                 5437 	.ascii "RI"
      002666 00                    5438 	.db	0
      002667 01                    5439 	.db	1
      002668 00 00 0E 33           5440 	.dw	0,3635
      00266C 11                    5441 	.uleb128	17
      00266D 05                    5442 	.db	5
      00266E 03                    5443 	.db	3
      00266F 00 00 00 97           5444 	.dw	0,(_P17)
      002673 50 31 37              5445 	.ascii "P17"
      002676 00                    5446 	.db	0
      002677 01                    5447 	.db	1
      002678 00 00 0E 33           5448 	.dw	0,3635
      00267C 11                    5449 	.uleb128	17
      00267D 05                    5450 	.db	5
      00267E 03                    5451 	.db	3
      00267F 00 00 00 96           5452 	.dw	0,(_P16)
      002683 50 31 36              5453 	.ascii "P16"
      002686 00                    5454 	.db	0
      002687 01                    5455 	.db	1
      002688 00 00 0E 33           5456 	.dw	0,3635
      00268C 11                    5457 	.uleb128	17
      00268D 05                    5458 	.db	5
      00268E 03                    5459 	.db	3
      00268F 00 00 00 96           5460 	.dw	0,(_TXD_1)
      002693 54 58 44 5F 31        5461 	.ascii "TXD_1"
      002698 00                    5462 	.db	0
      002699 01                    5463 	.db	1
      00269A 00 00 0E 33           5464 	.dw	0,3635
      00269E 11                    5465 	.uleb128	17
      00269F 05                    5466 	.db	5
      0026A0 03                    5467 	.db	3
      0026A1 00 00 00 95           5468 	.dw	0,(_P15)
      0026A5 50 31 35              5469 	.ascii "P15"
      0026A8 00                    5470 	.db	0
      0026A9 01                    5471 	.db	1
      0026AA 00 00 0E 33           5472 	.dw	0,3635
      0026AE 11                    5473 	.uleb128	17
      0026AF 05                    5474 	.db	5
      0026B0 03                    5475 	.db	3
      0026B1 00 00 00 94           5476 	.dw	0,(_P14)
      0026B5 50 31 34              5477 	.ascii "P14"
      0026B8 00                    5478 	.db	0
      0026B9 01                    5479 	.db	1
      0026BA 00 00 0E 33           5480 	.dw	0,3635
      0026BE 11                    5481 	.uleb128	17
      0026BF 05                    5482 	.db	5
      0026C0 03                    5483 	.db	3
      0026C1 00 00 00 94           5484 	.dw	0,(_SDA)
      0026C5 53 44 41              5485 	.ascii "SDA"
      0026C8 00                    5486 	.db	0
      0026C9 01                    5487 	.db	1
      0026CA 00 00 0E 33           5488 	.dw	0,3635
      0026CE 11                    5489 	.uleb128	17
      0026CF 05                    5490 	.db	5
      0026D0 03                    5491 	.db	3
      0026D1 00 00 00 93           5492 	.dw	0,(_P13)
      0026D5 50 31 33              5493 	.ascii "P13"
      0026D8 00                    5494 	.db	0
      0026D9 01                    5495 	.db	1
      0026DA 00 00 0E 33           5496 	.dw	0,3635
      0026DE 11                    5497 	.uleb128	17
      0026DF 05                    5498 	.db	5
      0026E0 03                    5499 	.db	3
      0026E1 00 00 00 93           5500 	.dw	0,(_SCL)
      0026E5 53 43 4C              5501 	.ascii "SCL"
      0026E8 00                    5502 	.db	0
      0026E9 01                    5503 	.db	1
      0026EA 00 00 0E 33           5504 	.dw	0,3635
      0026EE 11                    5505 	.uleb128	17
      0026EF 05                    5506 	.db	5
      0026F0 03                    5507 	.db	3
      0026F1 00 00 00 92           5508 	.dw	0,(_P12)
      0026F5 50 31 32              5509 	.ascii "P12"
      0026F8 00                    5510 	.db	0
      0026F9 01                    5511 	.db	1
      0026FA 00 00 0E 33           5512 	.dw	0,3635
      0026FE 11                    5513 	.uleb128	17
      0026FF 05                    5514 	.db	5
      002700 03                    5515 	.db	3
      002701 00 00 00 91           5516 	.dw	0,(_P11)
      002705 50 31 31              5517 	.ascii "P11"
      002708 00                    5518 	.db	0
      002709 01                    5519 	.db	1
      00270A 00 00 0E 33           5520 	.dw	0,3635
      00270E 11                    5521 	.uleb128	17
      00270F 05                    5522 	.db	5
      002710 03                    5523 	.db	3
      002711 00 00 00 90           5524 	.dw	0,(_P10)
      002715 50 31 30              5525 	.ascii "P10"
      002718 00                    5526 	.db	0
      002719 01                    5527 	.db	1
      00271A 00 00 0E 33           5528 	.dw	0,3635
      00271E 11                    5529 	.uleb128	17
      00271F 05                    5530 	.db	5
      002720 03                    5531 	.db	3
      002721 00 00 00 8F           5532 	.dw	0,(_TF1)
      002725 54 46 31              5533 	.ascii "TF1"
      002728 00                    5534 	.db	0
      002729 01                    5535 	.db	1
      00272A 00 00 0E 33           5536 	.dw	0,3635
      00272E 11                    5537 	.uleb128	17
      00272F 05                    5538 	.db	5
      002730 03                    5539 	.db	3
      002731 00 00 00 8E           5540 	.dw	0,(_TR1)
      002735 54 52 31              5541 	.ascii "TR1"
      002738 00                    5542 	.db	0
      002739 01                    5543 	.db	1
      00273A 00 00 0E 33           5544 	.dw	0,3635
      00273E 11                    5545 	.uleb128	17
      00273F 05                    5546 	.db	5
      002740 03                    5547 	.db	3
      002741 00 00 00 8D           5548 	.dw	0,(_TF0)
      002745 54 46 30              5549 	.ascii "TF0"
      002748 00                    5550 	.db	0
      002749 01                    5551 	.db	1
      00274A 00 00 0E 33           5552 	.dw	0,3635
      00274E 11                    5553 	.uleb128	17
      00274F 05                    5554 	.db	5
      002750 03                    5555 	.db	3
      002751 00 00 00 8C           5556 	.dw	0,(_TR0)
      002755 54 52 30              5557 	.ascii "TR0"
      002758 00                    5558 	.db	0
      002759 01                    5559 	.db	1
      00275A 00 00 0E 33           5560 	.dw	0,3635
      00275E 11                    5561 	.uleb128	17
      00275F 05                    5562 	.db	5
      002760 03                    5563 	.db	3
      002761 00 00 00 8B           5564 	.dw	0,(_IE1)
      002765 49 45 31              5565 	.ascii "IE1"
      002768 00                    5566 	.db	0
      002769 01                    5567 	.db	1
      00276A 00 00 0E 33           5568 	.dw	0,3635
      00276E 11                    5569 	.uleb128	17
      00276F 05                    5570 	.db	5
      002770 03                    5571 	.db	3
      002771 00 00 00 8A           5572 	.dw	0,(_IT1)
      002775 49 54 31              5573 	.ascii "IT1"
      002778 00                    5574 	.db	0
      002779 01                    5575 	.db	1
      00277A 00 00 0E 33           5576 	.dw	0,3635
      00277E 11                    5577 	.uleb128	17
      00277F 05                    5578 	.db	5
      002780 03                    5579 	.db	3
      002781 00 00 00 89           5580 	.dw	0,(_IE0)
      002785 49 45 30              5581 	.ascii "IE0"
      002788 00                    5582 	.db	0
      002789 01                    5583 	.db	1
      00278A 00 00 0E 33           5584 	.dw	0,3635
      00278E 11                    5585 	.uleb128	17
      00278F 05                    5586 	.db	5
      002790 03                    5587 	.db	3
      002791 00 00 00 88           5588 	.dw	0,(_IT0)
      002795 49 54 30              5589 	.ascii "IT0"
      002798 00                    5590 	.db	0
      002799 01                    5591 	.db	1
      00279A 00 00 0E 33           5592 	.dw	0,3635
      00279E 11                    5593 	.uleb128	17
      00279F 05                    5594 	.db	5
      0027A0 03                    5595 	.db	3
      0027A1 00 00 00 87           5596 	.dw	0,(_P07)
      0027A5 50 30 37              5597 	.ascii "P07"
      0027A8 00                    5598 	.db	0
      0027A9 01                    5599 	.db	1
      0027AA 00 00 0E 33           5600 	.dw	0,3635
      0027AE 11                    5601 	.uleb128	17
      0027AF 05                    5602 	.db	5
      0027B0 03                    5603 	.db	3
      0027B1 00 00 00 87           5604 	.dw	0,(_RXD)
      0027B5 52 58 44              5605 	.ascii "RXD"
      0027B8 00                    5606 	.db	0
      0027B9 01                    5607 	.db	1
      0027BA 00 00 0E 33           5608 	.dw	0,3635
      0027BE 11                    5609 	.uleb128	17
      0027BF 05                    5610 	.db	5
      0027C0 03                    5611 	.db	3
      0027C1 00 00 00 86           5612 	.dw	0,(_P06)
      0027C5 50 30 36              5613 	.ascii "P06"
      0027C8 00                    5614 	.db	0
      0027C9 01                    5615 	.db	1
      0027CA 00 00 0E 33           5616 	.dw	0,3635
      0027CE 11                    5617 	.uleb128	17
      0027CF 05                    5618 	.db	5
      0027D0 03                    5619 	.db	3
      0027D1 00 00 00 86           5620 	.dw	0,(_TXD)
      0027D5 54 58 44              5621 	.ascii "TXD"
      0027D8 00                    5622 	.db	0
      0027D9 01                    5623 	.db	1
      0027DA 00 00 0E 33           5624 	.dw	0,3635
      0027DE 11                    5625 	.uleb128	17
      0027DF 05                    5626 	.db	5
      0027E0 03                    5627 	.db	3
      0027E1 00 00 00 85           5628 	.dw	0,(_P05)
      0027E5 50 30 35              5629 	.ascii "P05"
      0027E8 00                    5630 	.db	0
      0027E9 01                    5631 	.db	1
      0027EA 00 00 0E 33           5632 	.dw	0,3635
      0027EE 11                    5633 	.uleb128	17
      0027EF 05                    5634 	.db	5
      0027F0 03                    5635 	.db	3
      0027F1 00 00 00 84           5636 	.dw	0,(_P04)
      0027F5 50 30 34              5637 	.ascii "P04"
      0027F8 00                    5638 	.db	0
      0027F9 01                    5639 	.db	1
      0027FA 00 00 0E 33           5640 	.dw	0,3635
      0027FE 11                    5641 	.uleb128	17
      0027FF 05                    5642 	.db	5
      002800 03                    5643 	.db	3
      002801 00 00 00 84           5644 	.dw	0,(_STADC)
      002805 53 54 41 44 43        5645 	.ascii "STADC"
      00280A 00                    5646 	.db	0
      00280B 01                    5647 	.db	1
      00280C 00 00 0E 33           5648 	.dw	0,3635
      002810 11                    5649 	.uleb128	17
      002811 05                    5650 	.db	5
      002812 03                    5651 	.db	3
      002813 00 00 00 83           5652 	.dw	0,(_P03)
      002817 50 30 33              5653 	.ascii "P03"
      00281A 00                    5654 	.db	0
      00281B 01                    5655 	.db	1
      00281C 00 00 0E 33           5656 	.dw	0,3635
      002820 11                    5657 	.uleb128	17
      002821 05                    5658 	.db	5
      002822 03                    5659 	.db	3
      002823 00 00 00 82           5660 	.dw	0,(_P02)
      002827 50 30 32              5661 	.ascii "P02"
      00282A 00                    5662 	.db	0
      00282B 01                    5663 	.db	1
      00282C 00 00 0E 33           5664 	.dw	0,3635
      002830 11                    5665 	.uleb128	17
      002831 05                    5666 	.db	5
      002832 03                    5667 	.db	3
      002833 00 00 00 82           5668 	.dw	0,(_RXD_1)
      002837 52 58 44 5F 31        5669 	.ascii "RXD_1"
      00283C 00                    5670 	.db	0
      00283D 01                    5671 	.db	1
      00283E 00 00 0E 33           5672 	.dw	0,3635
      002842 11                    5673 	.uleb128	17
      002843 05                    5674 	.db	5
      002844 03                    5675 	.db	3
      002845 00 00 00 81           5676 	.dw	0,(_P01)
      002849 50 30 31              5677 	.ascii "P01"
      00284C 00                    5678 	.db	0
      00284D 01                    5679 	.db	1
      00284E 00 00 0E 33           5680 	.dw	0,3635
      002852 11                    5681 	.uleb128	17
      002853 05                    5682 	.db	5
      002854 03                    5683 	.db	3
      002855 00 00 00 81           5684 	.dw	0,(_MISO)
      002859 4D 49 53 4F           5685 	.ascii "MISO"
      00285D 00                    5686 	.db	0
      00285E 01                    5687 	.db	1
      00285F 00 00 0E 33           5688 	.dw	0,3635
      002863 11                    5689 	.uleb128	17
      002864 05                    5690 	.db	5
      002865 03                    5691 	.db	3
      002866 00 00 00 80           5692 	.dw	0,(_P00)
      00286A 50 30 30              5693 	.ascii "P00"
      00286D 00                    5694 	.db	0
      00286E 01                    5695 	.db	1
      00286F 00 00 0E 33           5696 	.dw	0,3635
      002873 11                    5697 	.uleb128	17
      002874 05                    5698 	.db	5
      002875 03                    5699 	.db	3
      002876 00 00 00 80           5700 	.dw	0,(_MOSI)
      00287A 4D 4F 53 49           5701 	.ascii "MOSI"
      00287E 00                    5702 	.db	0
      00287F 01                    5703 	.db	1
      002880 00 00 0E 33           5704 	.dw	0,3635
      002884 00                    5705 	.uleb128	0
      002885                       5706 Ldebug_info_end:
                                   5707 
                                   5708 	.area .debug_pubnames (NOLOAD)
      000A96 00 00 09 F8           5709 	.dw	0,Ldebug_pubnames_end-Ldebug_pubnames_start
      000A9A                       5710 Ldebug_pubnames_start:
      000A9A 00 02                 5711 	.dw	2
      000A9C 00 00 14 1A           5712 	.dw	0,(Ldebug_info_start-4)
      000AA0 00 00 14 6B           5713 	.dw	0,4+Ldebug_info_end-Ldebug_info_start
      000AA4 00 00 00 6D           5714 	.dw	0,109
      000AA8 55 41 52 54 31 5F 49  5715 	.ascii "UART1_ISR"
             53 52
      000AB1 00                    5716 	.db	0
      000AB2 00 00 00 C2           5717 	.dw	0,194
      000AB6 54 69 6D 65 72 30 5F  5718 	.ascii "Timer0_ISR"
             49 53 52
      000AC0 00                    5719 	.db	0
      000AC1 00 00 01 03           5720 	.dw	0,259
      000AC5 6D 61 69 6E           5721 	.ascii "main"
      000AC9 00                    5722 	.db	0
      000ACA 00 00 02 00           5723 	.dw	0,512
      000ACE 62 75 66 68 65 61 64  5724 	.ascii "bufhead"
      000AD5 00                    5725 	.db	0
      000AD6 00 00 02 2A           5726 	.dw	0,554
      000ADA 66 6C 61 73 68 5F 61  5727 	.ascii "flash_address"
             64 64 72 65 73 73
      000AE7 00                    5728 	.db	0
      000AE8 00 00 02 45           5729 	.dw	0,581
      000AEC 41 50 5F 73 69 7A 65  5730 	.ascii "AP_size"
      000AF3 00                    5731 	.db	0
      000AF4 00 00 02 5A           5732 	.dw	0,602
      000AF8 67 5F 74 69 6D 65 72  5733 	.ascii "g_timer1Counter"
             31 43 6F 75 6E 74 65
             72
      000B07 00                    5734 	.db	0
      000B08 00 00 02 77           5735 	.dw	0,631
      000B0C 63 6F 75 6E 74        5736 	.ascii "count"
      000B11 00                    5737 	.db	0
      000B12 00 00 02 8A           5738 	.dw	0,650
      000B16 67 5F 74 69 6D 65 72  5739 	.ascii "g_timer0Counter"
             30 43 6F 75 6E 74 65
             72
      000B25 00                    5740 	.db	0
      000B26 00 00 02 B8           5741 	.dw	0,696
      000B2A 50 49 44 5F 68 69 67  5742 	.ascii "PID_highB"
             68 42
      000B33 00                    5743 	.db	0
      000B34 00 00 02 CF           5744 	.dw	0,719
      000B38 50 49 44 5F 6C 6F 77  5745 	.ascii "PID_lowB"
             42
      000B40 00                    5746 	.db	0
      000B41 00 00 02 E5           5747 	.dw	0,741
      000B45 44 49 44 5F 68 69 67  5748 	.ascii "DID_highB"
             68 42
      000B4E 00                    5749 	.db	0
      000B4F 00 00 02 FC           5750 	.dw	0,764
      000B53 44 49 44 5F 6C 6F 77  5751 	.ascii "DID_lowB"
             42
      000B5B 00                    5752 	.db	0
      000B5C 00 00 03 12           5753 	.dw	0,786
      000B60 43 4F 4E 46 30        5754 	.ascii "CONF0"
      000B65 00                    5755 	.db	0
      000B66 00 00 03 25           5756 	.dw	0,805
      000B6A 43 4F 4E 46 31        5757 	.ascii "CONF1"
      000B6F 00                    5758 	.db	0
      000B70 00 00 03 38           5759 	.dw	0,824
      000B74 43 4F 4E 46 32        5760 	.ascii "CONF2"
      000B79 00                    5761 	.db	0
      000B7A 00 00 03 4B           5762 	.dw	0,843
      000B7E 43 4F 4E 46 34        5763 	.ascii "CONF4"
      000B83 00                    5764 	.db	0
      000B84 00 00 03 5E           5765 	.dw	0,862
      000B88 72 65 63 76 5F 43 4F  5766 	.ascii "recv_CONF0"
             4E 46 30
      000B92 00                    5767 	.db	0
      000B93 00 00 03 76           5768 	.dw	0,886
      000B97 72 65 63 76 5F 43 4F  5769 	.ascii "recv_CONF1"
             4E 46 31
      000BA1 00                    5770 	.db	0
      000BA2 00 00 03 8E           5771 	.dw	0,910
      000BA6 72 65 63 76 5F 43 4F  5772 	.ascii "recv_CONF2"
             4E 46 32
      000BB0 00                    5773 	.db	0
      000BB1 00 00 03 A6           5774 	.dw	0,934
      000BB5 72 65 63 76 5F 43 4F  5775 	.ascii "recv_CONF4"
             4E 46 34
      000BBF 00                    5776 	.db	0
      000BC0 00 00 03 D4           5777 	.dw	0,980
      000BC4 67 5F 74 6F 74 61 6C  5778 	.ascii "g_totalchecksum"
             63 68 65 63 6B 73 75
             6D
      000BD3 00                    5779 	.db	0
      000BD4 00 00 03 FE           5780 	.dw	0,1022
      000BD8 62 55 61 72 74 44 61  5781 	.ascii "bUartDataReady"
             74 61 52 65 61 64 79
      000BE6 00                    5782 	.db	0
      000BE7 00 00 04 1A           5783 	.dw	0,1050
      000BEB 67 5F 74 69 6D 65 72  5784 	.ascii "g_timer0Over"
             30 4F 76 65 72
      000BF7 00                    5785 	.db	0
      000BF8 00 00 04 34           5786 	.dw	0,1076
      000BFC 67 5F 74 69 6D 65 72  5787 	.ascii "g_timer1Over"
             31 4F 76 65 72
      000C08 00                    5788 	.db	0
      000C09 00 00 04 4E           5789 	.dw	0,1102
      000C0D 67 5F 70 72 6F 67 61  5790 	.ascii "g_progarmflag"
             72 6D 66 6C 61 67
      000C1A 00                    5791 	.db	0
      000C1B 00 00 04 71           5792 	.dw	0,1137
      000C1F 42 49 54 5F 54 4D 50  5793 	.ascii "BIT_TMP"
      000C26 00                    5794 	.db	0
      000C27 00 00 04 93           5795 	.dw	0,1171
      000C2B 75 61 72 74 5F 72 63  5796 	.ascii "uart_rcvbuf"
             76 62 75 66
      000C36 00                    5797 	.db	0
      000C37 00 00 04 AC           5798 	.dw	0,1196
      000C3B 75 61 72 74 5F 74 78  5799 	.ascii "uart_txbuf"
             62 75 66
      000C45 00                    5800 	.db	0
      000C46 00 00 04 D4           5801 	.dw	0,1236
      000C4A 50 30                 5802 	.ascii "P0"
      000C4C 00                    5803 	.db	0
      000C4D 00 00 04 E3           5804 	.dw	0,1251
      000C51 53 50                 5805 	.ascii "SP"
      000C53 00                    5806 	.db	0
      000C54 00 00 04 F2           5807 	.dw	0,1266
      000C58 44 50 4C              5808 	.ascii "DPL"
      000C5B 00                    5809 	.db	0
      000C5C 00 00 05 02           5810 	.dw	0,1282
      000C60 44 50 48              5811 	.ascii "DPH"
      000C63 00                    5812 	.db	0
      000C64 00 00 05 12           5813 	.dw	0,1298
      000C68 52 43 54 52 49 4D 30  5814 	.ascii "RCTRIM0"
      000C6F 00                    5815 	.db	0
      000C70 00 00 05 26           5816 	.dw	0,1318
      000C74 52 43 54 52 49 4D 31  5817 	.ascii "RCTRIM1"
      000C7B 00                    5818 	.db	0
      000C7C 00 00 05 3A           5819 	.dw	0,1338
      000C80 52 57 4B              5820 	.ascii "RWK"
      000C83 00                    5821 	.db	0
      000C84 00 00 05 4A           5822 	.dw	0,1354
      000C88 50 43 4F 4E           5823 	.ascii "PCON"
      000C8C 00                    5824 	.db	0
      000C8D 00 00 05 5B           5825 	.dw	0,1371
      000C91 54 43 4F 4E           5826 	.ascii "TCON"
      000C95 00                    5827 	.db	0
      000C96 00 00 05 6C           5828 	.dw	0,1388
      000C9A 54 4D 4F 44           5829 	.ascii "TMOD"
      000C9E 00                    5830 	.db	0
      000C9F 00 00 05 7D           5831 	.dw	0,1405
      000CA3 54 4C 30              5832 	.ascii "TL0"
      000CA6 00                    5833 	.db	0
      000CA7 00 00 05 8D           5834 	.dw	0,1421
      000CAB 54 4C 31              5835 	.ascii "TL1"
      000CAE 00                    5836 	.db	0
      000CAF 00 00 05 9D           5837 	.dw	0,1437
      000CB3 54 48 30              5838 	.ascii "TH0"
      000CB6 00                    5839 	.db	0
      000CB7 00 00 05 AD           5840 	.dw	0,1453
      000CBB 54 48 31              5841 	.ascii "TH1"
      000CBE 00                    5842 	.db	0
      000CBF 00 00 05 BD           5843 	.dw	0,1469
      000CC3 43 4B 43 4F 4E        5844 	.ascii "CKCON"
      000CC8 00                    5845 	.db	0
      000CC9 00 00 05 CF           5846 	.dw	0,1487
      000CCD 57 4B 43 4F 4E        5847 	.ascii "WKCON"
      000CD2 00                    5848 	.db	0
      000CD3 00 00 05 E1           5849 	.dw	0,1505
      000CD7 50 31                 5850 	.ascii "P1"
      000CD9 00                    5851 	.db	0
      000CDA 00 00 05 F0           5852 	.dw	0,1520
      000CDE 53 46 52 53           5853 	.ascii "SFRS"
      000CE2 00                    5854 	.db	0
      000CE3 00 00 06 01           5855 	.dw	0,1537
      000CE7 43 41 50 43 4F 4E 30  5856 	.ascii "CAPCON0"
      000CEE 00                    5857 	.db	0
      000CEF 00 00 06 15           5858 	.dw	0,1557
      000CF3 43 41 50 43 4F 4E 31  5859 	.ascii "CAPCON1"
      000CFA 00                    5860 	.db	0
      000CFB 00 00 06 29           5861 	.dw	0,1577
      000CFF 43 41 50 43 4F 4E 32  5862 	.ascii "CAPCON2"
      000D06 00                    5863 	.db	0
      000D07 00 00 06 3D           5864 	.dw	0,1597
      000D0B 43 4B 44 49 56        5865 	.ascii "CKDIV"
      000D10 00                    5866 	.db	0
      000D11 00 00 06 4F           5867 	.dw	0,1615
      000D15 43 4B 53 57 54        5868 	.ascii "CKSWT"
      000D1A 00                    5869 	.db	0
      000D1B 00 00 06 61           5870 	.dw	0,1633
      000D1F 43 4B 45 4E           5871 	.ascii "CKEN"
      000D23 00                    5872 	.db	0
      000D24 00 00 06 72           5873 	.dw	0,1650
      000D28 53 43 4F 4E           5874 	.ascii "SCON"
      000D2C 00                    5875 	.db	0
      000D2D 00 00 06 83           5876 	.dw	0,1667
      000D31 53 42 55 46           5877 	.ascii "SBUF"
      000D35 00                    5878 	.db	0
      000D36 00 00 06 94           5879 	.dw	0,1684
      000D3A 53 42 55 46 5F 31     5880 	.ascii "SBUF_1"
      000D40 00                    5881 	.db	0
      000D41 00 00 06 A7           5882 	.dw	0,1703
      000D45 45 49 45              5883 	.ascii "EIE"
      000D48 00                    5884 	.db	0
      000D49 00 00 06 B7           5885 	.dw	0,1719
      000D4D 45 49 45 31           5886 	.ascii "EIE1"
      000D51 00                    5887 	.db	0
      000D52 00 00 06 C8           5888 	.dw	0,1736
      000D56 43 48 50 43 4F 4E     5889 	.ascii "CHPCON"
      000D5C 00                    5890 	.db	0
      000D5D 00 00 06 DB           5891 	.dw	0,1755
      000D61 50 32                 5892 	.ascii "P2"
      000D63 00                    5893 	.db	0
      000D64 00 00 06 EA           5894 	.dw	0,1770
      000D68 41 55 58 52 31        5895 	.ascii "AUXR1"
      000D6D 00                    5896 	.db	0
      000D6E 00 00 06 FC           5897 	.dw	0,1788
      000D72 42 4F 44 43 4F 4E 30  5898 	.ascii "BODCON0"
      000D79 00                    5899 	.db	0
      000D7A 00 00 07 10           5900 	.dw	0,1808
      000D7E 49 41 50 54 52 47     5901 	.ascii "IAPTRG"
      000D84 00                    5902 	.db	0
      000D85 00 00 07 23           5903 	.dw	0,1827
      000D89 49 41 50 55 45 4E     5904 	.ascii "IAPUEN"
      000D8F 00                    5905 	.db	0
      000D90 00 00 07 36           5906 	.dw	0,1846
      000D94 49 41 50 41 4C        5907 	.ascii "IAPAL"
      000D99 00                    5908 	.db	0
      000D9A 00 00 07 48           5909 	.dw	0,1864
      000D9E 49 41 50 41 48        5910 	.ascii "IAPAH"
      000DA3 00                    5911 	.db	0
      000DA4 00 00 07 5A           5912 	.dw	0,1882
      000DA8 49 45                 5913 	.ascii "IE"
      000DAA 00                    5914 	.db	0
      000DAB 00 00 07 69           5915 	.dw	0,1897
      000DAF 53 41 44 44 52        5916 	.ascii "SADDR"
      000DB4 00                    5917 	.db	0
      000DB5 00 00 07 7B           5918 	.dw	0,1915
      000DB9 57 44 43 4F 4E        5919 	.ascii "WDCON"
      000DBE 00                    5920 	.db	0
      000DBF 00 00 07 8D           5921 	.dw	0,1933
      000DC3 42 4F 44 43 4F 4E 31  5922 	.ascii "BODCON1"
      000DCA 00                    5923 	.db	0
      000DCB 00 00 07 A1           5924 	.dw	0,1953
      000DCF 50 33 4D 31           5925 	.ascii "P3M1"
      000DD3 00                    5926 	.db	0
      000DD4 00 00 07 B2           5927 	.dw	0,1970
      000DD8 50 33 53              5928 	.ascii "P3S"
      000DDB 00                    5929 	.db	0
      000DDC 00 00 07 C2           5930 	.dw	0,1986
      000DE0 50 33 4D 32           5931 	.ascii "P3M2"
      000DE4 00                    5932 	.db	0
      000DE5 00 00 07 D3           5933 	.dw	0,2003
      000DE9 50 33 53 52           5934 	.ascii "P3SR"
      000DED 00                    5935 	.db	0
      000DEE 00 00 07 E4           5936 	.dw	0,2020
      000DF2 49 41 50 46 44        5937 	.ascii "IAPFD"
      000DF7 00                    5938 	.db	0
      000DF8 00 00 07 F6           5939 	.dw	0,2038
      000DFC 49 41 50 43 4E        5940 	.ascii "IAPCN"
      000E01 00                    5941 	.db	0
      000E02 00 00 08 08           5942 	.dw	0,2056
      000E06 50 33                 5943 	.ascii "P3"
      000E08 00                    5944 	.db	0
      000E09 00 00 08 17           5945 	.dw	0,2071
      000E0D 50 30 4D 31           5946 	.ascii "P0M1"
      000E11 00                    5947 	.db	0
      000E12 00 00 08 28           5948 	.dw	0,2088
      000E16 50 30 53              5949 	.ascii "P0S"
      000E19 00                    5950 	.db	0
      000E1A 00 00 08 38           5951 	.dw	0,2104
      000E1E 50 30 4D 32           5952 	.ascii "P0M2"
      000E22 00                    5953 	.db	0
      000E23 00 00 08 49           5954 	.dw	0,2121
      000E27 50 30 53 52           5955 	.ascii "P0SR"
      000E2B 00                    5956 	.db	0
      000E2C 00 00 08 5A           5957 	.dw	0,2138
      000E30 50 31 4D 31           5958 	.ascii "P1M1"
      000E34 00                    5959 	.db	0
      000E35 00 00 08 6B           5960 	.dw	0,2155
      000E39 50 31 53              5961 	.ascii "P1S"
      000E3C 00                    5962 	.db	0
      000E3D 00 00 08 7B           5963 	.dw	0,2171
      000E41 50 31 4D 32           5964 	.ascii "P1M2"
      000E45 00                    5965 	.db	0
      000E46 00 00 08 8C           5966 	.dw	0,2188
      000E4A 50 31 53 52           5967 	.ascii "P1SR"
      000E4E 00                    5968 	.db	0
      000E4F 00 00 08 9D           5969 	.dw	0,2205
      000E53 50 32 53              5970 	.ascii "P2S"
      000E56 00                    5971 	.db	0
      000E57 00 00 08 AD           5972 	.dw	0,2221
      000E5B 49 50 48              5973 	.ascii "IPH"
      000E5E 00                    5974 	.db	0
      000E5F 00 00 08 BD           5975 	.dw	0,2237
      000E63 50 57 4D 49 4E 54 43  5976 	.ascii "PWMINTC"
      000E6A 00                    5977 	.db	0
      000E6B 00 00 08 D1           5978 	.dw	0,2257
      000E6F 49 50                 5979 	.ascii "IP"
      000E71 00                    5980 	.db	0
      000E72 00 00 08 E0           5981 	.dw	0,2272
      000E76 53 41 44 45 4E        5982 	.ascii "SADEN"
      000E7B 00                    5983 	.db	0
      000E7C 00 00 08 F2           5984 	.dw	0,2290
      000E80 53 41 44 45 4E 5F 31  5985 	.ascii "SADEN_1"
      000E87 00                    5986 	.db	0
      000E88 00 00 09 06           5987 	.dw	0,2310
      000E8C 53 41 44 44 52 5F 31  5988 	.ascii "SADDR_1"
      000E93 00                    5989 	.db	0
      000E94 00 00 09 1A           5990 	.dw	0,2330
      000E98 49 32 44 41 54        5991 	.ascii "I2DAT"
      000E9D 00                    5992 	.db	0
      000E9E 00 00 09 2C           5993 	.dw	0,2348
      000EA2 49 32 53 54 41 54     5994 	.ascii "I2STAT"
      000EA8 00                    5995 	.db	0
      000EA9 00 00 09 3F           5996 	.dw	0,2367
      000EAD 49 32 43 4C 4B        5997 	.ascii "I2CLK"
      000EB2 00                    5998 	.db	0
      000EB3 00 00 09 51           5999 	.dw	0,2385
      000EB7 49 32 54 4F 43        6000 	.ascii "I2TOC"
      000EBC 00                    6001 	.db	0
      000EBD 00 00 09 63           6002 	.dw	0,2403
      000EC1 49 32 43 4F 4E        6003 	.ascii "I2CON"
      000EC6 00                    6004 	.db	0
      000EC7 00 00 09 75           6005 	.dw	0,2421
      000ECB 49 32 41 44 44 52     6006 	.ascii "I2ADDR"
      000ED1 00                    6007 	.db	0
      000ED2 00 00 09 88           6008 	.dw	0,2440
      000ED6 41 44 43 52 4C        6009 	.ascii "ADCRL"
      000EDB 00                    6010 	.db	0
      000EDC 00 00 09 9A           6011 	.dw	0,2458
      000EE0 41 44 43 52 48        6012 	.ascii "ADCRH"
      000EE5 00                    6013 	.db	0
      000EE6 00 00 09 AC           6014 	.dw	0,2476
      000EEA 54 33 43 4F 4E        6015 	.ascii "T3CON"
      000EEF 00                    6016 	.db	0
      000EF0 00 00 09 BE           6017 	.dw	0,2494
      000EF4 50 57 4D 34 48        6018 	.ascii "PWM4H"
      000EF9 00                    6019 	.db	0
      000EFA 00 00 09 D0           6020 	.dw	0,2512
      000EFE 52 4C 33              6021 	.ascii "RL3"
      000F01 00                    6022 	.db	0
      000F02 00 00 09 E0           6023 	.dw	0,2528
      000F06 50 57 4D 35 48        6024 	.ascii "PWM5H"
      000F0B 00                    6025 	.db	0
      000F0C 00 00 09 F2           6026 	.dw	0,2546
      000F10 52 48 33              6027 	.ascii "RH3"
      000F13 00                    6028 	.db	0
      000F14 00 00 0A 02           6029 	.dw	0,2562
      000F18 50 49 4F 43 4F 4E 31  6030 	.ascii "PIOCON1"
      000F1F 00                    6031 	.db	0
      000F20 00 00 0A 16           6032 	.dw	0,2582
      000F24 54 41                 6033 	.ascii "TA"
      000F26 00                    6034 	.db	0
      000F27 00 00 0A 25           6035 	.dw	0,2597
      000F2B 54 32 43 4F 4E        6036 	.ascii "T2CON"
      000F30 00                    6037 	.db	0
      000F31 00 00 0A 37           6038 	.dw	0,2615
      000F35 54 32 4D 4F 44        6039 	.ascii "T2MOD"
      000F3A 00                    6040 	.db	0
      000F3B 00 00 0A 49           6041 	.dw	0,2633
      000F3F 52 43 4D 50 32 4C     6042 	.ascii "RCMP2L"
      000F45 00                    6043 	.db	0
      000F46 00 00 0A 5C           6044 	.dw	0,2652
      000F4A 52 43 4D 50 32 48     6045 	.ascii "RCMP2H"
      000F50 00                    6046 	.db	0
      000F51 00 00 0A 6F           6047 	.dw	0,2671
      000F55 54 4C 32              6048 	.ascii "TL2"
      000F58 00                    6049 	.db	0
      000F59 00 00 0A 7F           6050 	.dw	0,2687
      000F5D 50 57 4D 34 4C        6051 	.ascii "PWM4L"
      000F62 00                    6052 	.db	0
      000F63 00 00 0A 91           6053 	.dw	0,2705
      000F67 54 48 32              6054 	.ascii "TH2"
      000F6A 00                    6055 	.db	0
      000F6B 00 00 0A A1           6056 	.dw	0,2721
      000F6F 50 57 4D 35 4C        6057 	.ascii "PWM5L"
      000F74 00                    6058 	.db	0
      000F75 00 00 0A B3           6059 	.dw	0,2739
      000F79 41 44 43 4D 50 4C     6060 	.ascii "ADCMPL"
      000F7F 00                    6061 	.db	0
      000F80 00 00 0A C6           6062 	.dw	0,2758
      000F84 41 44 43 4D 50 48     6063 	.ascii "ADCMPH"
      000F8A 00                    6064 	.db	0
      000F8B 00 00 0A D9           6065 	.dw	0,2777
      000F8F 50 53 57              6066 	.ascii "PSW"
      000F92 00                    6067 	.db	0
      000F93 00 00 0A E9           6068 	.dw	0,2793
      000F97 50 57 4D 50 48        6069 	.ascii "PWMPH"
      000F9C 00                    6070 	.db	0
      000F9D 00 00 0A FB           6071 	.dw	0,2811
      000FA1 50 57 4D 30 48        6072 	.ascii "PWM0H"
      000FA6 00                    6073 	.db	0
      000FA7 00 00 0B 0D           6074 	.dw	0,2829
      000FAB 50 57 4D 31 48        6075 	.ascii "PWM1H"
      000FB0 00                    6076 	.db	0
      000FB1 00 00 0B 1F           6077 	.dw	0,2847
      000FB5 50 57 4D 32 48        6078 	.ascii "PWM2H"
      000FBA 00                    6079 	.db	0
      000FBB 00 00 0B 31           6080 	.dw	0,2865
      000FBF 50 57 4D 33 48        6081 	.ascii "PWM3H"
      000FC4 00                    6082 	.db	0
      000FC5 00 00 0B 43           6083 	.dw	0,2883
      000FC9 50 4E 50              6084 	.ascii "PNP"
      000FCC 00                    6085 	.db	0
      000FCD 00 00 0B 53           6086 	.dw	0,2899
      000FD1 46 42 44              6087 	.ascii "FBD"
      000FD4 00                    6088 	.db	0
      000FD5 00 00 0B 63           6089 	.dw	0,2915
      000FD9 50 57 4D 43 4F 4E 30  6090 	.ascii "PWMCON0"
      000FE0 00                    6091 	.db	0
      000FE1 00 00 0B 77           6092 	.dw	0,2935
      000FE5 50 57 4D 50 4C        6093 	.ascii "PWMPL"
      000FEA 00                    6094 	.db	0
      000FEB 00 00 0B 89           6095 	.dw	0,2953
      000FEF 50 57 4D 30 4C        6096 	.ascii "PWM0L"
      000FF4 00                    6097 	.db	0
      000FF5 00 00 0B 9B           6098 	.dw	0,2971
      000FF9 50 57 4D 31 4C        6099 	.ascii "PWM1L"
      000FFE 00                    6100 	.db	0
      000FFF 00 00 0B AD           6101 	.dw	0,2989
      001003 50 57 4D 32 4C        6102 	.ascii "PWM2L"
      001008 00                    6103 	.db	0
      001009 00 00 0B BF           6104 	.dw	0,3007
      00100D 50 57 4D 33 4C        6105 	.ascii "PWM3L"
      001012 00                    6106 	.db	0
      001013 00 00 0B D1           6107 	.dw	0,3025
      001017 50 49 4F 43 4F 4E 30  6108 	.ascii "PIOCON0"
      00101E 00                    6109 	.db	0
      00101F 00 00 0B E5           6110 	.dw	0,3045
      001023 50 57 4D 43 4F 4E 31  6111 	.ascii "PWMCON1"
      00102A 00                    6112 	.db	0
      00102B 00 00 0B F9           6113 	.dw	0,3065
      00102F 41 43 43              6114 	.ascii "ACC"
      001032 00                    6115 	.db	0
      001033 00 00 0C 09           6116 	.dw	0,3081
      001037 41 44 43 43 4F 4E 31  6117 	.ascii "ADCCON1"
      00103E 00                    6118 	.db	0
      00103F 00 00 0C 1D           6119 	.dw	0,3101
      001043 41 44 43 43 4F 4E 32  6120 	.ascii "ADCCON2"
      00104A 00                    6121 	.db	0
      00104B 00 00 0C 31           6122 	.dw	0,3121
      00104F 41 44 43 44 4C 59     6123 	.ascii "ADCDLY"
      001055 00                    6124 	.db	0
      001056 00 00 0C 44           6125 	.dw	0,3140
      00105A 43 30 4C              6126 	.ascii "C0L"
      00105D 00                    6127 	.db	0
      00105E 00 00 0C 54           6128 	.dw	0,3156
      001062 43 30 48              6129 	.ascii "C0H"
      001065 00                    6130 	.db	0
      001066 00 00 0C 64           6131 	.dw	0,3172
      00106A 43 31 4C              6132 	.ascii "C1L"
      00106D 00                    6133 	.db	0
      00106E 00 00 0C 74           6134 	.dw	0,3188
      001072 43 31 48              6135 	.ascii "C1H"
      001075 00                    6136 	.db	0
      001076 00 00 0C 84           6137 	.dw	0,3204
      00107A 41 44 43 43 4F 4E 30  6138 	.ascii "ADCCON0"
      001081 00                    6139 	.db	0
      001082 00 00 0C 98           6140 	.dw	0,3224
      001086 50 49 43 4F 4E        6141 	.ascii "PICON"
      00108B 00                    6142 	.db	0
      00108C 00 00 0C AA           6143 	.dw	0,3242
      001090 50 49 4E 45 4E        6144 	.ascii "PINEN"
      001095 00                    6145 	.db	0
      001096 00 00 0C BC           6146 	.dw	0,3260
      00109A 50 49 50 45 4E        6147 	.ascii "PIPEN"
      00109F 00                    6148 	.db	0
      0010A0 00 00 0C CE           6149 	.dw	0,3278
      0010A4 50 49 46              6150 	.ascii "PIF"
      0010A7 00                    6151 	.db	0
      0010A8 00 00 0C DE           6152 	.dw	0,3294
      0010AC 43 32 4C              6153 	.ascii "C2L"
      0010AF 00                    6154 	.db	0
      0010B0 00 00 0C EE           6155 	.dw	0,3310
      0010B4 43 32 48              6156 	.ascii "C2H"
      0010B7 00                    6157 	.db	0
      0010B8 00 00 0C FE           6158 	.dw	0,3326
      0010BC 45 49 50              6159 	.ascii "EIP"
      0010BF 00                    6160 	.db	0
      0010C0 00 00 0D 0E           6161 	.dw	0,3342
      0010C4 42                    6162 	.ascii "B"
      0010C5 00                    6163 	.db	0
      0010C6 00 00 0D 1C           6164 	.dw	0,3356
      0010CA 43 41 50 43 4F 4E 33  6165 	.ascii "CAPCON3"
      0010D1 00                    6166 	.db	0
      0010D2 00 00 0D 30           6167 	.dw	0,3376
      0010D6 43 41 50 43 4F 4E 34  6168 	.ascii "CAPCON4"
      0010DD 00                    6169 	.db	0
      0010DE 00 00 0D 44           6170 	.dw	0,3396
      0010E2 53 50 43 52           6171 	.ascii "SPCR"
      0010E6 00                    6172 	.db	0
      0010E7 00 00 0D 55           6173 	.dw	0,3413
      0010EB 53 50 43 52 32        6174 	.ascii "SPCR2"
      0010F0 00                    6175 	.db	0
      0010F1 00 00 0D 67           6176 	.dw	0,3431
      0010F5 53 50 53 52           6177 	.ascii "SPSR"
      0010F9 00                    6178 	.db	0
      0010FA 00 00 0D 78           6179 	.dw	0,3448
      0010FE 53 50 44 52           6180 	.ascii "SPDR"
      001102 00                    6181 	.db	0
      001103 00 00 0D 89           6182 	.dw	0,3465
      001107 41 49 4E 44 49 44 53  6183 	.ascii "AINDIDS"
      00110E 00                    6184 	.db	0
      00110F 00 00 0D 9D           6185 	.dw	0,3485
      001113 45 49 50 48           6186 	.ascii "EIPH"
      001117 00                    6187 	.db	0
      001118 00 00 0D AE           6188 	.dw	0,3502
      00111C 53 43 4F 4E 5F 31     6189 	.ascii "SCON_1"
      001122 00                    6190 	.db	0
      001123 00 00 0D C1           6191 	.dw	0,3521
      001127 50 44 54 45 4E        6192 	.ascii "PDTEN"
      00112C 00                    6193 	.db	0
      00112D 00 00 0D D3           6194 	.dw	0,3539
      001131 50 44 54 43 4E 54     6195 	.ascii "PDTCNT"
      001137 00                    6196 	.db	0
      001138 00 00 0D E6           6197 	.dw	0,3558
      00113C 50 4D 45 4E           6198 	.ascii "PMEN"
      001140 00                    6199 	.db	0
      001141 00 00 0D F7           6200 	.dw	0,3575
      001145 50 4D 44              6201 	.ascii "PMD"
      001148 00                    6202 	.db	0
      001149 00 00 0E 07           6203 	.dw	0,3591
      00114D 45 49 50 31           6204 	.ascii "EIP1"
      001151 00                    6205 	.db	0
      001152 00 00 0E 18           6206 	.dw	0,3608
      001156 45 49 50 48 31        6207 	.ascii "EIPH1"
      00115B 00                    6208 	.db	0
      00115C 00 00 0E 38           6209 	.dw	0,3640
      001160 53 4D 30 5F 31        6210 	.ascii "SM0_1"
      001165 00                    6211 	.db	0
      001166 00 00 0E 4A           6212 	.dw	0,3658
      00116A 46 45 5F 31           6213 	.ascii "FE_1"
      00116E 00                    6214 	.db	0
      00116F 00 00 0E 5B           6215 	.dw	0,3675
      001173 53 4D 31 5F 31        6216 	.ascii "SM1_1"
      001178 00                    6217 	.db	0
      001179 00 00 0E 6D           6218 	.dw	0,3693
      00117D 53 4D 32 5F 31        6219 	.ascii "SM2_1"
      001182 00                    6220 	.db	0
      001183 00 00 0E 7F           6221 	.dw	0,3711
      001187 52 45 4E 5F 31        6222 	.ascii "REN_1"
      00118C 00                    6223 	.db	0
      00118D 00 00 0E 91           6224 	.dw	0,3729
      001191 54 42 38 5F 31        6225 	.ascii "TB8_1"
      001196 00                    6226 	.db	0
      001197 00 00 0E A3           6227 	.dw	0,3747
      00119B 52 42 38 5F 31        6228 	.ascii "RB8_1"
      0011A0 00                    6229 	.db	0
      0011A1 00 00 0E B5           6230 	.dw	0,3765
      0011A5 54 49 5F 31           6231 	.ascii "TI_1"
      0011A9 00                    6232 	.db	0
      0011AA 00 00 0E C6           6233 	.dw	0,3782
      0011AE 52 49 5F 31           6234 	.ascii "RI_1"
      0011B2 00                    6235 	.db	0
      0011B3 00 00 0E D7           6236 	.dw	0,3799
      0011B7 41 44 43 46           6237 	.ascii "ADCF"
      0011BB 00                    6238 	.db	0
      0011BC 00 00 0E E8           6239 	.dw	0,3816
      0011C0 41 44 43 53           6240 	.ascii "ADCS"
      0011C4 00                    6241 	.db	0
      0011C5 00 00 0E F9           6242 	.dw	0,3833
      0011C9 45 54 47 53 45 4C 31  6243 	.ascii "ETGSEL1"
      0011D0 00                    6244 	.db	0
      0011D1 00 00 0F 0D           6245 	.dw	0,3853
      0011D5 45 54 47 53 45 4C 30  6246 	.ascii "ETGSEL0"
      0011DC 00                    6247 	.db	0
      0011DD 00 00 0F 21           6248 	.dw	0,3873
      0011E1 41 44 43 48 53 33     6249 	.ascii "ADCHS3"
      0011E7 00                    6250 	.db	0
      0011E8 00 00 0F 34           6251 	.dw	0,3892
      0011EC 41 44 43 48 53 32     6252 	.ascii "ADCHS2"
      0011F2 00                    6253 	.db	0
      0011F3 00 00 0F 47           6254 	.dw	0,3911
      0011F7 41 44 43 48 53 31     6255 	.ascii "ADCHS1"
      0011FD 00                    6256 	.db	0
      0011FE 00 00 0F 5A           6257 	.dw	0,3930
      001202 41 44 43 48 53 30     6258 	.ascii "ADCHS0"
      001208 00                    6259 	.db	0
      001209 00 00 0F 6D           6260 	.dw	0,3949
      00120D 50 57 4D 52 55 4E     6261 	.ascii "PWMRUN"
      001213 00                    6262 	.db	0
      001214 00 00 0F 80           6263 	.dw	0,3968
      001218 4C 4F 41 44           6264 	.ascii "LOAD"
      00121C 00                    6265 	.db	0
      00121D 00 00 0F 91           6266 	.dw	0,3985
      001221 50 57 4D 46           6267 	.ascii "PWMF"
      001225 00                    6268 	.db	0
      001226 00 00 0F A2           6269 	.dw	0,4002
      00122A 43 4C 52 50 57 4D     6270 	.ascii "CLRPWM"
      001230 00                    6271 	.db	0
      001231 00 00 0F B5           6272 	.dw	0,4021
      001235 43 59                 6273 	.ascii "CY"
      001237 00                    6274 	.db	0
      001238 00 00 0F C4           6275 	.dw	0,4036
      00123C 41 43                 6276 	.ascii "AC"
      00123E 00                    6277 	.db	0
      00123F 00 00 0F D3           6278 	.dw	0,4051
      001243 46 30                 6279 	.ascii "F0"
      001245 00                    6280 	.db	0
      001246 00 00 0F E2           6281 	.dw	0,4066
      00124A 52 53 31              6282 	.ascii "RS1"
      00124D 00                    6283 	.db	0
      00124E 00 00 0F F2           6284 	.dw	0,4082
      001252 52 53 30              6285 	.ascii "RS0"
      001255 00                    6286 	.db	0
      001256 00 00 10 02           6287 	.dw	0,4098
      00125A 4F 56                 6288 	.ascii "OV"
      00125C 00                    6289 	.db	0
      00125D 00 00 10 11           6290 	.dw	0,4113
      001261 50                    6291 	.ascii "P"
      001262 00                    6292 	.db	0
      001263 00 00 10 1F           6293 	.dw	0,4127
      001267 54 46 32              6294 	.ascii "TF2"
      00126A 00                    6295 	.db	0
      00126B 00 00 10 2F           6296 	.dw	0,4143
      00126F 54 52 32              6297 	.ascii "TR2"
      001272 00                    6298 	.db	0
      001273 00 00 10 3F           6299 	.dw	0,4159
      001277 43 4D 5F 52 4C 32     6300 	.ascii "CM_RL2"
      00127D 00                    6301 	.db	0
      00127E 00 00 10 52           6302 	.dw	0,4178
      001282 49 32 43 45 4E        6303 	.ascii "I2CEN"
      001287 00                    6304 	.db	0
      001288 00 00 10 64           6305 	.dw	0,4196
      00128C 53 54 41              6306 	.ascii "STA"
      00128F 00                    6307 	.db	0
      001290 00 00 10 74           6308 	.dw	0,4212
      001294 53 54 4F              6309 	.ascii "STO"
      001297 00                    6310 	.db	0
      001298 00 00 10 84           6311 	.dw	0,4228
      00129C 53 49                 6312 	.ascii "SI"
      00129E 00                    6313 	.db	0
      00129F 00 00 10 93           6314 	.dw	0,4243
      0012A3 41 41                 6315 	.ascii "AA"
      0012A5 00                    6316 	.db	0
      0012A6 00 00 10 A2           6317 	.dw	0,4258
      0012AA 49 32 43 50 58        6318 	.ascii "I2CPX"
      0012AF 00                    6319 	.db	0
      0012B0 00 00 10 B4           6320 	.dw	0,4276
      0012B4 50 41 44 43           6321 	.ascii "PADC"
      0012B8 00                    6322 	.db	0
      0012B9 00 00 10 C5           6323 	.dw	0,4293
      0012BD 50 42 4F 44           6324 	.ascii "PBOD"
      0012C1 00                    6325 	.db	0
      0012C2 00 00 10 D6           6326 	.dw	0,4310
      0012C6 50 53                 6327 	.ascii "PS"
      0012C8 00                    6328 	.db	0
      0012C9 00 00 10 E5           6329 	.dw	0,4325
      0012CD 50 54 31              6330 	.ascii "PT1"
      0012D0 00                    6331 	.db	0
      0012D1 00 00 10 F5           6332 	.dw	0,4341
      0012D5 50 58 31              6333 	.ascii "PX1"
      0012D8 00                    6334 	.db	0
      0012D9 00 00 11 05           6335 	.dw	0,4357
      0012DD 50 54 30              6336 	.ascii "PT0"
      0012E0 00                    6337 	.db	0
      0012E1 00 00 11 15           6338 	.dw	0,4373
      0012E5 50 58 30              6339 	.ascii "PX0"
      0012E8 00                    6340 	.db	0
      0012E9 00 00 11 25           6341 	.dw	0,4389
      0012ED 50 33 30              6342 	.ascii "P30"
      0012F0 00                    6343 	.db	0
      0012F1 00 00 11 35           6344 	.dw	0,4405
      0012F5 45 41                 6345 	.ascii "EA"
      0012F7 00                    6346 	.db	0
      0012F8 00 00 11 44           6347 	.dw	0,4420
      0012FC 45 41 44 43           6348 	.ascii "EADC"
      001300 00                    6349 	.db	0
      001301 00 00 11 55           6350 	.dw	0,4437
      001305 45 42 4F 44           6351 	.ascii "EBOD"
      001309 00                    6352 	.db	0
      00130A 00 00 11 66           6353 	.dw	0,4454
      00130E 45 53                 6354 	.ascii "ES"
      001310 00                    6355 	.db	0
      001311 00 00 11 75           6356 	.dw	0,4469
      001315 45 54 31              6357 	.ascii "ET1"
      001318 00                    6358 	.db	0
      001319 00 00 11 85           6359 	.dw	0,4485
      00131D 45 58 31              6360 	.ascii "EX1"
      001320 00                    6361 	.db	0
      001321 00 00 11 95           6362 	.dw	0,4501
      001325 45 54 30              6363 	.ascii "ET0"
      001328 00                    6364 	.db	0
      001329 00 00 11 A5           6365 	.dw	0,4517
      00132D 45 58 30              6366 	.ascii "EX0"
      001330 00                    6367 	.db	0
      001331 00 00 11 B5           6368 	.dw	0,4533
      001335 50 32 30              6369 	.ascii "P20"
      001338 00                    6370 	.db	0
      001339 00 00 11 C5           6371 	.dw	0,4549
      00133D 53 4D 30              6372 	.ascii "SM0"
      001340 00                    6373 	.db	0
      001341 00 00 11 D5           6374 	.dw	0,4565
      001345 46 45                 6375 	.ascii "FE"
      001347 00                    6376 	.db	0
      001348 00 00 11 E4           6377 	.dw	0,4580
      00134C 53 4D 31              6378 	.ascii "SM1"
      00134F 00                    6379 	.db	0
      001350 00 00 11 F4           6380 	.dw	0,4596
      001354 53 4D 32              6381 	.ascii "SM2"
      001357 00                    6382 	.db	0
      001358 00 00 12 04           6383 	.dw	0,4612
      00135C 52 45 4E              6384 	.ascii "REN"
      00135F 00                    6385 	.db	0
      001360 00 00 12 14           6386 	.dw	0,4628
      001364 54 42 38              6387 	.ascii "TB8"
      001367 00                    6388 	.db	0
      001368 00 00 12 24           6389 	.dw	0,4644
      00136C 52 42 38              6390 	.ascii "RB8"
      00136F 00                    6391 	.db	0
      001370 00 00 12 34           6392 	.dw	0,4660
      001374 54 49                 6393 	.ascii "TI"
      001376 00                    6394 	.db	0
      001377 00 00 12 43           6395 	.dw	0,4675
      00137B 52 49                 6396 	.ascii "RI"
      00137D 00                    6397 	.db	0
      00137E 00 00 12 52           6398 	.dw	0,4690
      001382 50 31 37              6399 	.ascii "P17"
      001385 00                    6400 	.db	0
      001386 00 00 12 62           6401 	.dw	0,4706
      00138A 50 31 36              6402 	.ascii "P16"
      00138D 00                    6403 	.db	0
      00138E 00 00 12 72           6404 	.dw	0,4722
      001392 54 58 44 5F 31        6405 	.ascii "TXD_1"
      001397 00                    6406 	.db	0
      001398 00 00 12 84           6407 	.dw	0,4740
      00139C 50 31 35              6408 	.ascii "P15"
      00139F 00                    6409 	.db	0
      0013A0 00 00 12 94           6410 	.dw	0,4756
      0013A4 50 31 34              6411 	.ascii "P14"
      0013A7 00                    6412 	.db	0
      0013A8 00 00 12 A4           6413 	.dw	0,4772
      0013AC 53 44 41              6414 	.ascii "SDA"
      0013AF 00                    6415 	.db	0
      0013B0 00 00 12 B4           6416 	.dw	0,4788
      0013B4 50 31 33              6417 	.ascii "P13"
      0013B7 00                    6418 	.db	0
      0013B8 00 00 12 C4           6419 	.dw	0,4804
      0013BC 53 43 4C              6420 	.ascii "SCL"
      0013BF 00                    6421 	.db	0
      0013C0 00 00 12 D4           6422 	.dw	0,4820
      0013C4 50 31 32              6423 	.ascii "P12"
      0013C7 00                    6424 	.db	0
      0013C8 00 00 12 E4           6425 	.dw	0,4836
      0013CC 50 31 31              6426 	.ascii "P11"
      0013CF 00                    6427 	.db	0
      0013D0 00 00 12 F4           6428 	.dw	0,4852
      0013D4 50 31 30              6429 	.ascii "P10"
      0013D7 00                    6430 	.db	0
      0013D8 00 00 13 04           6431 	.dw	0,4868
      0013DC 54 46 31              6432 	.ascii "TF1"
      0013DF 00                    6433 	.db	0
      0013E0 00 00 13 14           6434 	.dw	0,4884
      0013E4 54 52 31              6435 	.ascii "TR1"
      0013E7 00                    6436 	.db	0
      0013E8 00 00 13 24           6437 	.dw	0,4900
      0013EC 54 46 30              6438 	.ascii "TF0"
      0013EF 00                    6439 	.db	0
      0013F0 00 00 13 34           6440 	.dw	0,4916
      0013F4 54 52 30              6441 	.ascii "TR0"
      0013F7 00                    6442 	.db	0
      0013F8 00 00 13 44           6443 	.dw	0,4932
      0013FC 49 45 31              6444 	.ascii "IE1"
      0013FF 00                    6445 	.db	0
      001400 00 00 13 54           6446 	.dw	0,4948
      001404 49 54 31              6447 	.ascii "IT1"
      001407 00                    6448 	.db	0
      001408 00 00 13 64           6449 	.dw	0,4964
      00140C 49 45 30              6450 	.ascii "IE0"
      00140F 00                    6451 	.db	0
      001410 00 00 13 74           6452 	.dw	0,4980
      001414 49 54 30              6453 	.ascii "IT0"
      001417 00                    6454 	.db	0
      001418 00 00 13 84           6455 	.dw	0,4996
      00141C 50 30 37              6456 	.ascii "P07"
      00141F 00                    6457 	.db	0
      001420 00 00 13 94           6458 	.dw	0,5012
      001424 52 58 44              6459 	.ascii "RXD"
      001427 00                    6460 	.db	0
      001428 00 00 13 A4           6461 	.dw	0,5028
      00142C 50 30 36              6462 	.ascii "P06"
      00142F 00                    6463 	.db	0
      001430 00 00 13 B4           6464 	.dw	0,5044
      001434 54 58 44              6465 	.ascii "TXD"
      001437 00                    6466 	.db	0
      001438 00 00 13 C4           6467 	.dw	0,5060
      00143C 50 30 35              6468 	.ascii "P05"
      00143F 00                    6469 	.db	0
      001440 00 00 13 D4           6470 	.dw	0,5076
      001444 50 30 34              6471 	.ascii "P04"
      001447 00                    6472 	.db	0
      001448 00 00 13 E4           6473 	.dw	0,5092
      00144C 53 54 41 44 43        6474 	.ascii "STADC"
      001451 00                    6475 	.db	0
      001452 00 00 13 F6           6476 	.dw	0,5110
      001456 50 30 33              6477 	.ascii "P03"
      001459 00                    6478 	.db	0
      00145A 00 00 14 06           6479 	.dw	0,5126
      00145E 50 30 32              6480 	.ascii "P02"
      001461 00                    6481 	.db	0
      001462 00 00 14 16           6482 	.dw	0,5142
      001466 52 58 44 5F 31        6483 	.ascii "RXD_1"
      00146B 00                    6484 	.db	0
      00146C 00 00 14 28           6485 	.dw	0,5160
      001470 50 30 31              6486 	.ascii "P01"
      001473 00                    6487 	.db	0
      001474 00 00 14 38           6488 	.dw	0,5176
      001478 4D 49 53 4F           6489 	.ascii "MISO"
      00147C 00                    6490 	.db	0
      00147D 00 00 14 49           6491 	.dw	0,5193
      001481 50 30 30              6492 	.ascii "P00"
      001484 00                    6493 	.db	0
      001485 00 00 14 59           6494 	.dw	0,5209
      001489 4D 4F 53 49           6495 	.ascii "MOSI"
      00148D 00                    6496 	.db	0
      00148E 00 00 00 00           6497 	.dw	0,0
      001492                       6498 Ldebug_pubnames_end:
                                   6499 
                                   6500 	.area .debug_frame (NOLOAD)
      000160 00 00                 6501 	.dw	0
      000162 00 10                 6502 	.dw	Ldebug_CIE0_end-Ldebug_CIE0_start
      000164                       6503 Ldebug_CIE0_start:
      000164 FF FF                 6504 	.dw	0xffff
      000166 FF FF                 6505 	.dw	0xffff
      000168 01                    6506 	.db	1
      000169 00                    6507 	.db	0
      00016A 01                    6508 	.uleb128	1
      00016B 01                    6509 	.sleb128	1
      00016C 09                    6510 	.db	9
      00016D 0C                    6511 	.db	12
      00016E 16                    6512 	.uleb128	22
      00016F 02                    6513 	.uleb128	2
      000170 89                    6514 	.db	137
      000171 01                    6515 	.uleb128	1
      000172 00                    6516 	.db	0
      000173 00                    6517 	.db	0
      000174                       6518 Ldebug_CIE0_end:
      000174 00 00 00 14           6519 	.dw	0,20
      000178 00 00 01 60           6520 	.dw	0,(Ldebug_CIE0_start-4)
      00017C 00 00 03 F1           6521 	.dw	0,(Smain$main$48)	;initial loc
      000180 00 00 04 71           6522 	.dw	0,Smain$main$264-Smain$main$48
      000184 01                    6523 	.db	1
      000185 00 00 03 F1           6524 	.dw	0,(Smain$main$48)
      000189 0E                    6525 	.db	14
      00018A 02                    6526 	.uleb128	2
      00018B 00                    6527 	.db	0
                                   6528 
                                   6529 	.area .debug_frame (NOLOAD)
      00018C 00 00                 6530 	.dw	0
      00018E 00 10                 6531 	.dw	Ldebug_CIE1_end-Ldebug_CIE1_start
      000190                       6532 Ldebug_CIE1_start:
      000190 FF FF                 6533 	.dw	0xffff
      000192 FF FF                 6534 	.dw	0xffff
      000194 01                    6535 	.db	1
      000195 00                    6536 	.db	0
      000196 01                    6537 	.uleb128	1
      000197 01                    6538 	.sleb128	1
      000198 09                    6539 	.db	9
      000199 0C                    6540 	.db	12
      00019A 16                    6541 	.uleb128	22
      00019B 06                    6542 	.uleb128	6
      00019C 89                    6543 	.db	137
      00019D 01                    6544 	.uleb128	1
      00019E 00                    6545 	.db	0
      00019F 00                    6546 	.db	0
      0001A0                       6547 Ldebug_CIE1_end:
      0001A0 00 00 00 14           6548 	.dw	0,20
      0001A4 00 00 01 8C           6549 	.dw	0,(Ldebug_CIE1_start-4)
      0001A8 00 00 03 BD           6550 	.dw	0,(Smain$Timer0_ISR$29)	;initial loc
      0001AC 00 00 00 34           6551 	.dw	0,Smain$Timer0_ISR$46-Smain$Timer0_ISR$29
      0001B0 01                    6552 	.db	1
      0001B1 00 00 03 BD           6553 	.dw	0,(Smain$Timer0_ISR$29)
      0001B5 0E                    6554 	.db	14
      0001B6 06                    6555 	.uleb128	6
      0001B7 00                    6556 	.db	0
                                   6557 
                                   6558 	.area .debug_frame (NOLOAD)
      0001B8 00 00                 6559 	.dw	0
      0001BA 00 10                 6560 	.dw	Ldebug_CIE2_end-Ldebug_CIE2_start
      0001BC                       6561 Ldebug_CIE2_start:
      0001BC FF FF                 6562 	.dw	0xffff
      0001BE FF FF                 6563 	.dw	0xffff
      0001C0 01                    6564 	.db	1
      0001C1 00                    6565 	.db	0
      0001C2 01                    6566 	.uleb128	1
      0001C3 01                    6567 	.sleb128	1
      0001C4 09                    6568 	.db	9
      0001C5 0C                    6569 	.db	12
      0001C6 16                    6570 	.uleb128	22
      0001C7 06                    6571 	.uleb128	6
      0001C8 89                    6572 	.db	137
      0001C9 01                    6573 	.uleb128	1
      0001CA 00                    6574 	.db	0
      0001CB 00                    6575 	.db	0
      0001CC                       6576 Ldebug_CIE2_end:
      0001CC 00 00 00 14           6577 	.dw	0,20
      0001D0 00 00 01 B8           6578 	.dw	0,(Ldebug_CIE2_start-4)
      0001D4 00 00 03 62           6579 	.dw	0,(Smain$UART1_ISR$1)	;initial loc
      0001D8 00 00 00 50           6580 	.dw	0,Smain$UART1_ISR$27-Smain$UART1_ISR$1
      0001DC 01                    6581 	.db	1
      0001DD 00 00 03 62           6582 	.dw	0,(Smain$UART1_ISR$1)
      0001E1 0E                    6583 	.db	14
      0001E2 06                    6584 	.uleb128	6
      0001E3 00                    6585 	.db	0
