                                      1 ;--------------------------------------------------------
                                      2 ; File Created by SDCC : free open source ISO C Compiler 
                                      3 ; Version 4.2.6 #13647 (MINGW32)
                                      4 ;--------------------------------------------------------
                                      5 	.module eeprom
                                      6 	.optsdcc -mmcs51 --model-large
                                      7 	
                                      8 ;--------------------------------------------------------
                                      9 ; Public variables in this module
                                     10 ;--------------------------------------------------------
                                     11 	.globl _Read_APROM_BYTE
                                     12 	.globl _MOSI
                                     13 	.globl _P00
                                     14 	.globl _MISO
                                     15 	.globl _P01
                                     16 	.globl _RXD_1
                                     17 	.globl _P02
                                     18 	.globl _P03
                                     19 	.globl _STADC
                                     20 	.globl _P04
                                     21 	.globl _P05
                                     22 	.globl _TXD
                                     23 	.globl _P06
                                     24 	.globl _RXD
                                     25 	.globl _P07
                                     26 	.globl _IT0
                                     27 	.globl _IE0
                                     28 	.globl _IT1
                                     29 	.globl _IE1
                                     30 	.globl _TR0
                                     31 	.globl _TF0
                                     32 	.globl _TR1
                                     33 	.globl _TF1
                                     34 	.globl _P10
                                     35 	.globl _P11
                                     36 	.globl _P12
                                     37 	.globl _SCL
                                     38 	.globl _P13
                                     39 	.globl _SDA
                                     40 	.globl _P14
                                     41 	.globl _P15
                                     42 	.globl _TXD_1
                                     43 	.globl _P16
                                     44 	.globl _P17
                                     45 	.globl _RI
                                     46 	.globl _TI
                                     47 	.globl _RB8
                                     48 	.globl _TB8
                                     49 	.globl _REN
                                     50 	.globl _SM2
                                     51 	.globl _SM1
                                     52 	.globl _FE
                                     53 	.globl _SM0
                                     54 	.globl _P20
                                     55 	.globl _EX0
                                     56 	.globl _ET0
                                     57 	.globl _EX1
                                     58 	.globl _ET1
                                     59 	.globl _ES
                                     60 	.globl _EBOD
                                     61 	.globl _EADC
                                     62 	.globl _EA
                                     63 	.globl _P30
                                     64 	.globl _PX0
                                     65 	.globl _PT0
                                     66 	.globl _PX1
                                     67 	.globl _PT1
                                     68 	.globl _PS
                                     69 	.globl _PBOD
                                     70 	.globl _PADC
                                     71 	.globl _I2CPX
                                     72 	.globl _AA
                                     73 	.globl _SI
                                     74 	.globl _STO
                                     75 	.globl _STA
                                     76 	.globl _I2CEN
                                     77 	.globl _CM_RL2
                                     78 	.globl _TR2
                                     79 	.globl _TF2
                                     80 	.globl _P
                                     81 	.globl _OV
                                     82 	.globl _RS0
                                     83 	.globl _RS1
                                     84 	.globl _F0
                                     85 	.globl _AC
                                     86 	.globl _CY
                                     87 	.globl _CLRPWM
                                     88 	.globl _PWMF
                                     89 	.globl _LOAD
                                     90 	.globl _PWMRUN
                                     91 	.globl _ADCHS0
                                     92 	.globl _ADCHS1
                                     93 	.globl _ADCHS2
                                     94 	.globl _ADCHS3
                                     95 	.globl _ETGSEL0
                                     96 	.globl _ETGSEL1
                                     97 	.globl _ADCS
                                     98 	.globl _ADCF
                                     99 	.globl _RI_1
                                    100 	.globl _TI_1
                                    101 	.globl _RB8_1
                                    102 	.globl _TB8_1
                                    103 	.globl _REN_1
                                    104 	.globl _SM2_1
                                    105 	.globl _SM1_1
                                    106 	.globl _FE_1
                                    107 	.globl _SM0_1
                                    108 	.globl _EIPH1
                                    109 	.globl _EIP1
                                    110 	.globl _PMD
                                    111 	.globl _PMEN
                                    112 	.globl _PDTCNT
                                    113 	.globl _PDTEN
                                    114 	.globl _SCON_1
                                    115 	.globl _EIPH
                                    116 	.globl _AINDIDS
                                    117 	.globl _SPDR
                                    118 	.globl _SPSR
                                    119 	.globl _SPCR2
                                    120 	.globl _SPCR
                                    121 	.globl _CAPCON4
                                    122 	.globl _CAPCON3
                                    123 	.globl _B
                                    124 	.globl _EIP
                                    125 	.globl _C2H
                                    126 	.globl _C2L
                                    127 	.globl _PIF
                                    128 	.globl _PIPEN
                                    129 	.globl _PINEN
                                    130 	.globl _PICON
                                    131 	.globl _ADCCON0
                                    132 	.globl _C1H
                                    133 	.globl _C1L
                                    134 	.globl _C0H
                                    135 	.globl _C0L
                                    136 	.globl _ADCDLY
                                    137 	.globl _ADCCON2
                                    138 	.globl _ADCCON1
                                    139 	.globl _ACC
                                    140 	.globl _PWMCON1
                                    141 	.globl _PIOCON0
                                    142 	.globl _PWM3L
                                    143 	.globl _PWM2L
                                    144 	.globl _PWM1L
                                    145 	.globl _PWM0L
                                    146 	.globl _PWMPL
                                    147 	.globl _PWMCON0
                                    148 	.globl _FBD
                                    149 	.globl _PNP
                                    150 	.globl _PWM3H
                                    151 	.globl _PWM2H
                                    152 	.globl _PWM1H
                                    153 	.globl _PWM0H
                                    154 	.globl _PWMPH
                                    155 	.globl _PSW
                                    156 	.globl _ADCMPH
                                    157 	.globl _ADCMPL
                                    158 	.globl _PWM5L
                                    159 	.globl _TH2
                                    160 	.globl _PWM4L
                                    161 	.globl _TL2
                                    162 	.globl _RCMP2H
                                    163 	.globl _RCMP2L
                                    164 	.globl _T2MOD
                                    165 	.globl _T2CON
                                    166 	.globl _TA
                                    167 	.globl _PIOCON1
                                    168 	.globl _RH3
                                    169 	.globl _PWM5H
                                    170 	.globl _RL3
                                    171 	.globl _PWM4H
                                    172 	.globl _T3CON
                                    173 	.globl _ADCRH
                                    174 	.globl _ADCRL
                                    175 	.globl _I2ADDR
                                    176 	.globl _I2CON
                                    177 	.globl _I2TOC
                                    178 	.globl _I2CLK
                                    179 	.globl _I2STAT
                                    180 	.globl _I2DAT
                                    181 	.globl _SADDR_1
                                    182 	.globl _SADEN_1
                                    183 	.globl _SADEN
                                    184 	.globl _IP
                                    185 	.globl _PWMINTC
                                    186 	.globl _IPH
                                    187 	.globl _P2S
                                    188 	.globl _P1SR
                                    189 	.globl _P1M2
                                    190 	.globl _P1S
                                    191 	.globl _P1M1
                                    192 	.globl _P0SR
                                    193 	.globl _P0M2
                                    194 	.globl _P0S
                                    195 	.globl _P0M1
                                    196 	.globl _P3
                                    197 	.globl _IAPCN
                                    198 	.globl _IAPFD
                                    199 	.globl _P3SR
                                    200 	.globl _P3M2
                                    201 	.globl _P3S
                                    202 	.globl _P3M1
                                    203 	.globl _BODCON1
                                    204 	.globl _WDCON
                                    205 	.globl _SADDR
                                    206 	.globl _IE
                                    207 	.globl _IAPAH
                                    208 	.globl _IAPAL
                                    209 	.globl _IAPUEN
                                    210 	.globl _IAPTRG
                                    211 	.globl _BODCON0
                                    212 	.globl _AUXR1
                                    213 	.globl _P2
                                    214 	.globl _CHPCON
                                    215 	.globl _EIE1
                                    216 	.globl _EIE
                                    217 	.globl _SBUF_1
                                    218 	.globl _SBUF
                                    219 	.globl _SCON
                                    220 	.globl _CKEN
                                    221 	.globl _CKSWT
                                    222 	.globl _CKDIV
                                    223 	.globl _CAPCON2
                                    224 	.globl _CAPCON1
                                    225 	.globl _CAPCON0
                                    226 	.globl _SFRS
                                    227 	.globl _P1
                                    228 	.globl _WKCON
                                    229 	.globl _CKCON
                                    230 	.globl _TH1
                                    231 	.globl _TH0
                                    232 	.globl _TL1
                                    233 	.globl _TL0
                                    234 	.globl _TMOD
                                    235 	.globl _TCON
                                    236 	.globl _PCON
                                    237 	.globl _RWK
                                    238 	.globl _RCTRIM1
                                    239 	.globl _RCTRIM0
                                    240 	.globl _DPH
                                    241 	.globl _DPL
                                    242 	.globl _SP
                                    243 	.globl _P0
                                    244 	.globl _WriteDataToOnePage_PARM_3
                                    245 	.globl _WriteDataToOnePage_PARM_2
                                    246 	.globl _Write_DATAFLASH_ARRAY_PARM_3
                                    247 	.globl _Write_DATAFLASH_ARRAY_PARM_2
                                    248 	.globl _Read_DATAFLASH_ARRAY_PARM_3
                                    249 	.globl _Read_DATAFLASH_ARRAY_PARM_2
                                    250 	.globl _Write_DATAFLASH_BYTE_PARM_2
                                    251 	.globl _xd_tmp
                                    252 	.globl _page_buffer
                                    253 	.globl _EECHECKFLAG
                                    254 	.globl _Write_DATAFLASH_BYTE
                                    255 	.globl _Read_DATAFLASH_ARRAY
                                    256 	.globl _Write_DATAFLASH_ARRAY
                                    257 	.globl _WriteDataToOnePage
                                    258 ;--------------------------------------------------------
                                    259 ; special function registers
                                    260 ;--------------------------------------------------------
                                    261 	.area RSEG    (ABS,DATA)
      000000                        262 	.org 0x0000
                           000080   263 G$P0$0_0$0 == 0x0080
                           000080   264 _P0	=	0x0080
                           000081   265 G$SP$0_0$0 == 0x0081
                           000081   266 _SP	=	0x0081
                           000082   267 G$DPL$0_0$0 == 0x0082
                           000082   268 _DPL	=	0x0082
                           000083   269 G$DPH$0_0$0 == 0x0083
                           000083   270 _DPH	=	0x0083
                           000084   271 G$RCTRIM0$0_0$0 == 0x0084
                           000084   272 _RCTRIM0	=	0x0084
                           000085   273 G$RCTRIM1$0_0$0 == 0x0085
                           000085   274 _RCTRIM1	=	0x0085
                           000086   275 G$RWK$0_0$0 == 0x0086
                           000086   276 _RWK	=	0x0086
                           000087   277 G$PCON$0_0$0 == 0x0087
                           000087   278 _PCON	=	0x0087
                           000088   279 G$TCON$0_0$0 == 0x0088
                           000088   280 _TCON	=	0x0088
                           000089   281 G$TMOD$0_0$0 == 0x0089
                           000089   282 _TMOD	=	0x0089
                           00008A   283 G$TL0$0_0$0 == 0x008a
                           00008A   284 _TL0	=	0x008a
                           00008B   285 G$TL1$0_0$0 == 0x008b
                           00008B   286 _TL1	=	0x008b
                           00008C   287 G$TH0$0_0$0 == 0x008c
                           00008C   288 _TH0	=	0x008c
                           00008D   289 G$TH1$0_0$0 == 0x008d
                           00008D   290 _TH1	=	0x008d
                           00008E   291 G$CKCON$0_0$0 == 0x008e
                           00008E   292 _CKCON	=	0x008e
                           00008F   293 G$WKCON$0_0$0 == 0x008f
                           00008F   294 _WKCON	=	0x008f
                           000090   295 G$P1$0_0$0 == 0x0090
                           000090   296 _P1	=	0x0090
                           000091   297 G$SFRS$0_0$0 == 0x0091
                           000091   298 _SFRS	=	0x0091
                           000092   299 G$CAPCON0$0_0$0 == 0x0092
                           000092   300 _CAPCON0	=	0x0092
                           000093   301 G$CAPCON1$0_0$0 == 0x0093
                           000093   302 _CAPCON1	=	0x0093
                           000094   303 G$CAPCON2$0_0$0 == 0x0094
                           000094   304 _CAPCON2	=	0x0094
                           000095   305 G$CKDIV$0_0$0 == 0x0095
                           000095   306 _CKDIV	=	0x0095
                           000096   307 G$CKSWT$0_0$0 == 0x0096
                           000096   308 _CKSWT	=	0x0096
                           000097   309 G$CKEN$0_0$0 == 0x0097
                           000097   310 _CKEN	=	0x0097
                           000098   311 G$SCON$0_0$0 == 0x0098
                           000098   312 _SCON	=	0x0098
                           000099   313 G$SBUF$0_0$0 == 0x0099
                           000099   314 _SBUF	=	0x0099
                           00009A   315 G$SBUF_1$0_0$0 == 0x009a
                           00009A   316 _SBUF_1	=	0x009a
                           00009B   317 G$EIE$0_0$0 == 0x009b
                           00009B   318 _EIE	=	0x009b
                           00009C   319 G$EIE1$0_0$0 == 0x009c
                           00009C   320 _EIE1	=	0x009c
                           00009F   321 G$CHPCON$0_0$0 == 0x009f
                           00009F   322 _CHPCON	=	0x009f
                           0000A0   323 G$P2$0_0$0 == 0x00a0
                           0000A0   324 _P2	=	0x00a0
                           0000A2   325 G$AUXR1$0_0$0 == 0x00a2
                           0000A2   326 _AUXR1	=	0x00a2
                           0000A3   327 G$BODCON0$0_0$0 == 0x00a3
                           0000A3   328 _BODCON0	=	0x00a3
                           0000A4   329 G$IAPTRG$0_0$0 == 0x00a4
                           0000A4   330 _IAPTRG	=	0x00a4
                           0000A5   331 G$IAPUEN$0_0$0 == 0x00a5
                           0000A5   332 _IAPUEN	=	0x00a5
                           0000A6   333 G$IAPAL$0_0$0 == 0x00a6
                           0000A6   334 _IAPAL	=	0x00a6
                           0000A7   335 G$IAPAH$0_0$0 == 0x00a7
                           0000A7   336 _IAPAH	=	0x00a7
                           0000A8   337 G$IE$0_0$0 == 0x00a8
                           0000A8   338 _IE	=	0x00a8
                           0000A9   339 G$SADDR$0_0$0 == 0x00a9
                           0000A9   340 _SADDR	=	0x00a9
                           0000AA   341 G$WDCON$0_0$0 == 0x00aa
                           0000AA   342 _WDCON	=	0x00aa
                           0000AB   343 G$BODCON1$0_0$0 == 0x00ab
                           0000AB   344 _BODCON1	=	0x00ab
                           0000AC   345 G$P3M1$0_0$0 == 0x00ac
                           0000AC   346 _P3M1	=	0x00ac
                           0000AC   347 G$P3S$0_0$0 == 0x00ac
                           0000AC   348 _P3S	=	0x00ac
                           0000AD   349 G$P3M2$0_0$0 == 0x00ad
                           0000AD   350 _P3M2	=	0x00ad
                           0000AD   351 G$P3SR$0_0$0 == 0x00ad
                           0000AD   352 _P3SR	=	0x00ad
                           0000AE   353 G$IAPFD$0_0$0 == 0x00ae
                           0000AE   354 _IAPFD	=	0x00ae
                           0000AF   355 G$IAPCN$0_0$0 == 0x00af
                           0000AF   356 _IAPCN	=	0x00af
                           0000B0   357 G$P3$0_0$0 == 0x00b0
                           0000B0   358 _P3	=	0x00b0
                           0000B1   359 G$P0M1$0_0$0 == 0x00b1
                           0000B1   360 _P0M1	=	0x00b1
                           0000B1   361 G$P0S$0_0$0 == 0x00b1
                           0000B1   362 _P0S	=	0x00b1
                           0000B2   363 G$P0M2$0_0$0 == 0x00b2
                           0000B2   364 _P0M2	=	0x00b2
                           0000B2   365 G$P0SR$0_0$0 == 0x00b2
                           0000B2   366 _P0SR	=	0x00b2
                           0000B3   367 G$P1M1$0_0$0 == 0x00b3
                           0000B3   368 _P1M1	=	0x00b3
                           0000B3   369 G$P1S$0_0$0 == 0x00b3
                           0000B3   370 _P1S	=	0x00b3
                           0000B4   371 G$P1M2$0_0$0 == 0x00b4
                           0000B4   372 _P1M2	=	0x00b4
                           0000B4   373 G$P1SR$0_0$0 == 0x00b4
                           0000B4   374 _P1SR	=	0x00b4
                           0000B5   375 G$P2S$0_0$0 == 0x00b5
                           0000B5   376 _P2S	=	0x00b5
                           0000B7   377 G$IPH$0_0$0 == 0x00b7
                           0000B7   378 _IPH	=	0x00b7
                           0000B7   379 G$PWMINTC$0_0$0 == 0x00b7
                           0000B7   380 _PWMINTC	=	0x00b7
                           0000B8   381 G$IP$0_0$0 == 0x00b8
                           0000B8   382 _IP	=	0x00b8
                           0000B9   383 G$SADEN$0_0$0 == 0x00b9
                           0000B9   384 _SADEN	=	0x00b9
                           0000BA   385 G$SADEN_1$0_0$0 == 0x00ba
                           0000BA   386 _SADEN_1	=	0x00ba
                           0000BB   387 G$SADDR_1$0_0$0 == 0x00bb
                           0000BB   388 _SADDR_1	=	0x00bb
                           0000BC   389 G$I2DAT$0_0$0 == 0x00bc
                           0000BC   390 _I2DAT	=	0x00bc
                           0000BD   391 G$I2STAT$0_0$0 == 0x00bd
                           0000BD   392 _I2STAT	=	0x00bd
                           0000BE   393 G$I2CLK$0_0$0 == 0x00be
                           0000BE   394 _I2CLK	=	0x00be
                           0000BF   395 G$I2TOC$0_0$0 == 0x00bf
                           0000BF   396 _I2TOC	=	0x00bf
                           0000C0   397 G$I2CON$0_0$0 == 0x00c0
                           0000C0   398 _I2CON	=	0x00c0
                           0000C1   399 G$I2ADDR$0_0$0 == 0x00c1
                           0000C1   400 _I2ADDR	=	0x00c1
                           0000C2   401 G$ADCRL$0_0$0 == 0x00c2
                           0000C2   402 _ADCRL	=	0x00c2
                           0000C3   403 G$ADCRH$0_0$0 == 0x00c3
                           0000C3   404 _ADCRH	=	0x00c3
                           0000C4   405 G$T3CON$0_0$0 == 0x00c4
                           0000C4   406 _T3CON	=	0x00c4
                           0000C4   407 G$PWM4H$0_0$0 == 0x00c4
                           0000C4   408 _PWM4H	=	0x00c4
                           0000C5   409 G$RL3$0_0$0 == 0x00c5
                           0000C5   410 _RL3	=	0x00c5
                           0000C5   411 G$PWM5H$0_0$0 == 0x00c5
                           0000C5   412 _PWM5H	=	0x00c5
                           0000C6   413 G$RH3$0_0$0 == 0x00c6
                           0000C6   414 _RH3	=	0x00c6
                           0000C6   415 G$PIOCON1$0_0$0 == 0x00c6
                           0000C6   416 _PIOCON1	=	0x00c6
                           0000C7   417 G$TA$0_0$0 == 0x00c7
                           0000C7   418 _TA	=	0x00c7
                           0000C8   419 G$T2CON$0_0$0 == 0x00c8
                           0000C8   420 _T2CON	=	0x00c8
                           0000C9   421 G$T2MOD$0_0$0 == 0x00c9
                           0000C9   422 _T2MOD	=	0x00c9
                           0000CA   423 G$RCMP2L$0_0$0 == 0x00ca
                           0000CA   424 _RCMP2L	=	0x00ca
                           0000CB   425 G$RCMP2H$0_0$0 == 0x00cb
                           0000CB   426 _RCMP2H	=	0x00cb
                           0000CC   427 G$TL2$0_0$0 == 0x00cc
                           0000CC   428 _TL2	=	0x00cc
                           0000CC   429 G$PWM4L$0_0$0 == 0x00cc
                           0000CC   430 _PWM4L	=	0x00cc
                           0000CD   431 G$TH2$0_0$0 == 0x00cd
                           0000CD   432 _TH2	=	0x00cd
                           0000CD   433 G$PWM5L$0_0$0 == 0x00cd
                           0000CD   434 _PWM5L	=	0x00cd
                           0000CE   435 G$ADCMPL$0_0$0 == 0x00ce
                           0000CE   436 _ADCMPL	=	0x00ce
                           0000CF   437 G$ADCMPH$0_0$0 == 0x00cf
                           0000CF   438 _ADCMPH	=	0x00cf
                           0000D0   439 G$PSW$0_0$0 == 0x00d0
                           0000D0   440 _PSW	=	0x00d0
                           0000D1   441 G$PWMPH$0_0$0 == 0x00d1
                           0000D1   442 _PWMPH	=	0x00d1
                           0000D2   443 G$PWM0H$0_0$0 == 0x00d2
                           0000D2   444 _PWM0H	=	0x00d2
                           0000D3   445 G$PWM1H$0_0$0 == 0x00d3
                           0000D3   446 _PWM1H	=	0x00d3
                           0000D4   447 G$PWM2H$0_0$0 == 0x00d4
                           0000D4   448 _PWM2H	=	0x00d4
                           0000D5   449 G$PWM3H$0_0$0 == 0x00d5
                           0000D5   450 _PWM3H	=	0x00d5
                           0000D6   451 G$PNP$0_0$0 == 0x00d6
                           0000D6   452 _PNP	=	0x00d6
                           0000D7   453 G$FBD$0_0$0 == 0x00d7
                           0000D7   454 _FBD	=	0x00d7
                           0000D8   455 G$PWMCON0$0_0$0 == 0x00d8
                           0000D8   456 _PWMCON0	=	0x00d8
                           0000D9   457 G$PWMPL$0_0$0 == 0x00d9
                           0000D9   458 _PWMPL	=	0x00d9
                           0000DA   459 G$PWM0L$0_0$0 == 0x00da
                           0000DA   460 _PWM0L	=	0x00da
                           0000DB   461 G$PWM1L$0_0$0 == 0x00db
                           0000DB   462 _PWM1L	=	0x00db
                           0000DC   463 G$PWM2L$0_0$0 == 0x00dc
                           0000DC   464 _PWM2L	=	0x00dc
                           0000DD   465 G$PWM3L$0_0$0 == 0x00dd
                           0000DD   466 _PWM3L	=	0x00dd
                           0000DE   467 G$PIOCON0$0_0$0 == 0x00de
                           0000DE   468 _PIOCON0	=	0x00de
                           0000DF   469 G$PWMCON1$0_0$0 == 0x00df
                           0000DF   470 _PWMCON1	=	0x00df
                           0000E0   471 G$ACC$0_0$0 == 0x00e0
                           0000E0   472 _ACC	=	0x00e0
                           0000E1   473 G$ADCCON1$0_0$0 == 0x00e1
                           0000E1   474 _ADCCON1	=	0x00e1
                           0000E2   475 G$ADCCON2$0_0$0 == 0x00e2
                           0000E2   476 _ADCCON2	=	0x00e2
                           0000E3   477 G$ADCDLY$0_0$0 == 0x00e3
                           0000E3   478 _ADCDLY	=	0x00e3
                           0000E4   479 G$C0L$0_0$0 == 0x00e4
                           0000E4   480 _C0L	=	0x00e4
                           0000E5   481 G$C0H$0_0$0 == 0x00e5
                           0000E5   482 _C0H	=	0x00e5
                           0000E6   483 G$C1L$0_0$0 == 0x00e6
                           0000E6   484 _C1L	=	0x00e6
                           0000E7   485 G$C1H$0_0$0 == 0x00e7
                           0000E7   486 _C1H	=	0x00e7
                           0000E8   487 G$ADCCON0$0_0$0 == 0x00e8
                           0000E8   488 _ADCCON0	=	0x00e8
                           0000E9   489 G$PICON$0_0$0 == 0x00e9
                           0000E9   490 _PICON	=	0x00e9
                           0000EA   491 G$PINEN$0_0$0 == 0x00ea
                           0000EA   492 _PINEN	=	0x00ea
                           0000EB   493 G$PIPEN$0_0$0 == 0x00eb
                           0000EB   494 _PIPEN	=	0x00eb
                           0000EC   495 G$PIF$0_0$0 == 0x00ec
                           0000EC   496 _PIF	=	0x00ec
                           0000ED   497 G$C2L$0_0$0 == 0x00ed
                           0000ED   498 _C2L	=	0x00ed
                           0000EE   499 G$C2H$0_0$0 == 0x00ee
                           0000EE   500 _C2H	=	0x00ee
                           0000EF   501 G$EIP$0_0$0 == 0x00ef
                           0000EF   502 _EIP	=	0x00ef
                           0000F0   503 G$B$0_0$0 == 0x00f0
                           0000F0   504 _B	=	0x00f0
                           0000F1   505 G$CAPCON3$0_0$0 == 0x00f1
                           0000F1   506 _CAPCON3	=	0x00f1
                           0000F2   507 G$CAPCON4$0_0$0 == 0x00f2
                           0000F2   508 _CAPCON4	=	0x00f2
                           0000F3   509 G$SPCR$0_0$0 == 0x00f3
                           0000F3   510 _SPCR	=	0x00f3
                           0000F3   511 G$SPCR2$0_0$0 == 0x00f3
                           0000F3   512 _SPCR2	=	0x00f3
                           0000F4   513 G$SPSR$0_0$0 == 0x00f4
                           0000F4   514 _SPSR	=	0x00f4
                           0000F5   515 G$SPDR$0_0$0 == 0x00f5
                           0000F5   516 _SPDR	=	0x00f5
                           0000F6   517 G$AINDIDS$0_0$0 == 0x00f6
                           0000F6   518 _AINDIDS	=	0x00f6
                           0000F7   519 G$EIPH$0_0$0 == 0x00f7
                           0000F7   520 _EIPH	=	0x00f7
                           0000F8   521 G$SCON_1$0_0$0 == 0x00f8
                           0000F8   522 _SCON_1	=	0x00f8
                           0000F9   523 G$PDTEN$0_0$0 == 0x00f9
                           0000F9   524 _PDTEN	=	0x00f9
                           0000FA   525 G$PDTCNT$0_0$0 == 0x00fa
                           0000FA   526 _PDTCNT	=	0x00fa
                           0000FB   527 G$PMEN$0_0$0 == 0x00fb
                           0000FB   528 _PMEN	=	0x00fb
                           0000FC   529 G$PMD$0_0$0 == 0x00fc
                           0000FC   530 _PMD	=	0x00fc
                           0000FE   531 G$EIP1$0_0$0 == 0x00fe
                           0000FE   532 _EIP1	=	0x00fe
                           0000FF   533 G$EIPH1$0_0$0 == 0x00ff
                           0000FF   534 _EIPH1	=	0x00ff
                                    535 ;--------------------------------------------------------
                                    536 ; special function bits
                                    537 ;--------------------------------------------------------
                                    538 	.area RSEG    (ABS,DATA)
      000000                        539 	.org 0x0000
                           0000FF   540 G$SM0_1$0_0$0 == 0x00ff
                           0000FF   541 _SM0_1	=	0x00ff
                           0000FF   542 G$FE_1$0_0$0 == 0x00ff
                           0000FF   543 _FE_1	=	0x00ff
                           0000FE   544 G$SM1_1$0_0$0 == 0x00fe
                           0000FE   545 _SM1_1	=	0x00fe
                           0000FD   546 G$SM2_1$0_0$0 == 0x00fd
                           0000FD   547 _SM2_1	=	0x00fd
                           0000FC   548 G$REN_1$0_0$0 == 0x00fc
                           0000FC   549 _REN_1	=	0x00fc
                           0000FB   550 G$TB8_1$0_0$0 == 0x00fb
                           0000FB   551 _TB8_1	=	0x00fb
                           0000FA   552 G$RB8_1$0_0$0 == 0x00fa
                           0000FA   553 _RB8_1	=	0x00fa
                           0000F9   554 G$TI_1$0_0$0 == 0x00f9
                           0000F9   555 _TI_1	=	0x00f9
                           0000F8   556 G$RI_1$0_0$0 == 0x00f8
                           0000F8   557 _RI_1	=	0x00f8
                           0000EF   558 G$ADCF$0_0$0 == 0x00ef
                           0000EF   559 _ADCF	=	0x00ef
                           0000EE   560 G$ADCS$0_0$0 == 0x00ee
                           0000EE   561 _ADCS	=	0x00ee
                           0000ED   562 G$ETGSEL1$0_0$0 == 0x00ed
                           0000ED   563 _ETGSEL1	=	0x00ed
                           0000EC   564 G$ETGSEL0$0_0$0 == 0x00ec
                           0000EC   565 _ETGSEL0	=	0x00ec
                           0000EB   566 G$ADCHS3$0_0$0 == 0x00eb
                           0000EB   567 _ADCHS3	=	0x00eb
                           0000EA   568 G$ADCHS2$0_0$0 == 0x00ea
                           0000EA   569 _ADCHS2	=	0x00ea
                           0000E9   570 G$ADCHS1$0_0$0 == 0x00e9
                           0000E9   571 _ADCHS1	=	0x00e9
                           0000E8   572 G$ADCHS0$0_0$0 == 0x00e8
                           0000E8   573 _ADCHS0	=	0x00e8
                           0000DF   574 G$PWMRUN$0_0$0 == 0x00df
                           0000DF   575 _PWMRUN	=	0x00df
                           0000DE   576 G$LOAD$0_0$0 == 0x00de
                           0000DE   577 _LOAD	=	0x00de
                           0000DD   578 G$PWMF$0_0$0 == 0x00dd
                           0000DD   579 _PWMF	=	0x00dd
                           0000DC   580 G$CLRPWM$0_0$0 == 0x00dc
                           0000DC   581 _CLRPWM	=	0x00dc
                           0000D7   582 G$CY$0_0$0 == 0x00d7
                           0000D7   583 _CY	=	0x00d7
                           0000D6   584 G$AC$0_0$0 == 0x00d6
                           0000D6   585 _AC	=	0x00d6
                           0000D5   586 G$F0$0_0$0 == 0x00d5
                           0000D5   587 _F0	=	0x00d5
                           0000D4   588 G$RS1$0_0$0 == 0x00d4
                           0000D4   589 _RS1	=	0x00d4
                           0000D3   590 G$RS0$0_0$0 == 0x00d3
                           0000D3   591 _RS0	=	0x00d3
                           0000D2   592 G$OV$0_0$0 == 0x00d2
                           0000D2   593 _OV	=	0x00d2
                           0000D0   594 G$P$0_0$0 == 0x00d0
                           0000D0   595 _P	=	0x00d0
                           0000CF   596 G$TF2$0_0$0 == 0x00cf
                           0000CF   597 _TF2	=	0x00cf
                           0000CA   598 G$TR2$0_0$0 == 0x00ca
                           0000CA   599 _TR2	=	0x00ca
                           0000C8   600 G$CM_RL2$0_0$0 == 0x00c8
                           0000C8   601 _CM_RL2	=	0x00c8
                           0000C6   602 G$I2CEN$0_0$0 == 0x00c6
                           0000C6   603 _I2CEN	=	0x00c6
                           0000C5   604 G$STA$0_0$0 == 0x00c5
                           0000C5   605 _STA	=	0x00c5
                           0000C4   606 G$STO$0_0$0 == 0x00c4
                           0000C4   607 _STO	=	0x00c4
                           0000C3   608 G$SI$0_0$0 == 0x00c3
                           0000C3   609 _SI	=	0x00c3
                           0000C2   610 G$AA$0_0$0 == 0x00c2
                           0000C2   611 _AA	=	0x00c2
                           0000C0   612 G$I2CPX$0_0$0 == 0x00c0
                           0000C0   613 _I2CPX	=	0x00c0
                           0000BE   614 G$PADC$0_0$0 == 0x00be
                           0000BE   615 _PADC	=	0x00be
                           0000BD   616 G$PBOD$0_0$0 == 0x00bd
                           0000BD   617 _PBOD	=	0x00bd
                           0000BC   618 G$PS$0_0$0 == 0x00bc
                           0000BC   619 _PS	=	0x00bc
                           0000BB   620 G$PT1$0_0$0 == 0x00bb
                           0000BB   621 _PT1	=	0x00bb
                           0000BA   622 G$PX1$0_0$0 == 0x00ba
                           0000BA   623 _PX1	=	0x00ba
                           0000B9   624 G$PT0$0_0$0 == 0x00b9
                           0000B9   625 _PT0	=	0x00b9
                           0000B8   626 G$PX0$0_0$0 == 0x00b8
                           0000B8   627 _PX0	=	0x00b8
                           0000B0   628 G$P30$0_0$0 == 0x00b0
                           0000B0   629 _P30	=	0x00b0
                           0000AF   630 G$EA$0_0$0 == 0x00af
                           0000AF   631 _EA	=	0x00af
                           0000AE   632 G$EADC$0_0$0 == 0x00ae
                           0000AE   633 _EADC	=	0x00ae
                           0000AD   634 G$EBOD$0_0$0 == 0x00ad
                           0000AD   635 _EBOD	=	0x00ad
                           0000AC   636 G$ES$0_0$0 == 0x00ac
                           0000AC   637 _ES	=	0x00ac
                           0000AB   638 G$ET1$0_0$0 == 0x00ab
                           0000AB   639 _ET1	=	0x00ab
                           0000AA   640 G$EX1$0_0$0 == 0x00aa
                           0000AA   641 _EX1	=	0x00aa
                           0000A9   642 G$ET0$0_0$0 == 0x00a9
                           0000A9   643 _ET0	=	0x00a9
                           0000A8   644 G$EX0$0_0$0 == 0x00a8
                           0000A8   645 _EX0	=	0x00a8
                           0000A0   646 G$P20$0_0$0 == 0x00a0
                           0000A0   647 _P20	=	0x00a0
                           00009F   648 G$SM0$0_0$0 == 0x009f
                           00009F   649 _SM0	=	0x009f
                           00009F   650 G$FE$0_0$0 == 0x009f
                           00009F   651 _FE	=	0x009f
                           00009E   652 G$SM1$0_0$0 == 0x009e
                           00009E   653 _SM1	=	0x009e
                           00009D   654 G$SM2$0_0$0 == 0x009d
                           00009D   655 _SM2	=	0x009d
                           00009C   656 G$REN$0_0$0 == 0x009c
                           00009C   657 _REN	=	0x009c
                           00009B   658 G$TB8$0_0$0 == 0x009b
                           00009B   659 _TB8	=	0x009b
                           00009A   660 G$RB8$0_0$0 == 0x009a
                           00009A   661 _RB8	=	0x009a
                           000099   662 G$TI$0_0$0 == 0x0099
                           000099   663 _TI	=	0x0099
                           000098   664 G$RI$0_0$0 == 0x0098
                           000098   665 _RI	=	0x0098
                           000097   666 G$P17$0_0$0 == 0x0097
                           000097   667 _P17	=	0x0097
                           000096   668 G$P16$0_0$0 == 0x0096
                           000096   669 _P16	=	0x0096
                           000096   670 G$TXD_1$0_0$0 == 0x0096
                           000096   671 _TXD_1	=	0x0096
                           000095   672 G$P15$0_0$0 == 0x0095
                           000095   673 _P15	=	0x0095
                           000094   674 G$P14$0_0$0 == 0x0094
                           000094   675 _P14	=	0x0094
                           000094   676 G$SDA$0_0$0 == 0x0094
                           000094   677 _SDA	=	0x0094
                           000093   678 G$P13$0_0$0 == 0x0093
                           000093   679 _P13	=	0x0093
                           000093   680 G$SCL$0_0$0 == 0x0093
                           000093   681 _SCL	=	0x0093
                           000092   682 G$P12$0_0$0 == 0x0092
                           000092   683 _P12	=	0x0092
                           000091   684 G$P11$0_0$0 == 0x0091
                           000091   685 _P11	=	0x0091
                           000090   686 G$P10$0_0$0 == 0x0090
                           000090   687 _P10	=	0x0090
                           00008F   688 G$TF1$0_0$0 == 0x008f
                           00008F   689 _TF1	=	0x008f
                           00008E   690 G$TR1$0_0$0 == 0x008e
                           00008E   691 _TR1	=	0x008e
                           00008D   692 G$TF0$0_0$0 == 0x008d
                           00008D   693 _TF0	=	0x008d
                           00008C   694 G$TR0$0_0$0 == 0x008c
                           00008C   695 _TR0	=	0x008c
                           00008B   696 G$IE1$0_0$0 == 0x008b
                           00008B   697 _IE1	=	0x008b
                           00008A   698 G$IT1$0_0$0 == 0x008a
                           00008A   699 _IT1	=	0x008a
                           000089   700 G$IE0$0_0$0 == 0x0089
                           000089   701 _IE0	=	0x0089
                           000088   702 G$IT0$0_0$0 == 0x0088
                           000088   703 _IT0	=	0x0088
                           000087   704 G$P07$0_0$0 == 0x0087
                           000087   705 _P07	=	0x0087
                           000087   706 G$RXD$0_0$0 == 0x0087
                           000087   707 _RXD	=	0x0087
                           000086   708 G$P06$0_0$0 == 0x0086
                           000086   709 _P06	=	0x0086
                           000086   710 G$TXD$0_0$0 == 0x0086
                           000086   711 _TXD	=	0x0086
                           000085   712 G$P05$0_0$0 == 0x0085
                           000085   713 _P05	=	0x0085
                           000084   714 G$P04$0_0$0 == 0x0084
                           000084   715 _P04	=	0x0084
                           000084   716 G$STADC$0_0$0 == 0x0084
                           000084   717 _STADC	=	0x0084
                           000083   718 G$P03$0_0$0 == 0x0083
                           000083   719 _P03	=	0x0083
                           000082   720 G$P02$0_0$0 == 0x0082
                           000082   721 _P02	=	0x0082
                           000082   722 G$RXD_1$0_0$0 == 0x0082
                           000082   723 _RXD_1	=	0x0082
                           000081   724 G$P01$0_0$0 == 0x0081
                           000081   725 _P01	=	0x0081
                           000081   726 G$MISO$0_0$0 == 0x0081
                           000081   727 _MISO	=	0x0081
                           000080   728 G$P00$0_0$0 == 0x0080
                           000080   729 _P00	=	0x0080
                           000080   730 G$MOSI$0_0$0 == 0x0080
                           000080   731 _MOSI	=	0x0080
                                    732 ;--------------------------------------------------------
                                    733 ; overlayable register banks
                                    734 ;--------------------------------------------------------
                                    735 	.area REG_BANK_0	(REL,OVR,DATA)
      000000                        736 	.ds 8
                                    737 ;--------------------------------------------------------
                                    738 ; internal ram data
                                    739 ;--------------------------------------------------------
                                    740 	.area DSEG    (DATA)
                                    741 ;--------------------------------------------------------
                                    742 ; internal ram data
                                    743 ;--------------------------------------------------------
                                    744 	.area INITIALIZED
                                    745 ;--------------------------------------------------------
                                    746 ; overlayable items in internal ram
                                    747 ;--------------------------------------------------------
                                    748 	.area	OSEG    (OVR,DATA)
                           000000   749 Leeprom.Read_DATAFLASH_ARRAY$sloc0$0_1$0==.
      000000                        750 _Read_DATAFLASH_ARRAY_sloc0_1_0:
      000000                        751 	.ds 2
                           000002   752 Leeprom.Read_DATAFLASH_ARRAY$sloc1$0_1$0==.
      000002                        753 _Read_DATAFLASH_ARRAY_sloc1_1_0:
      000002                        754 	.ds 2
                                    755 	.area	OSEG    (OVR,DATA)
                           000000   756 Leeprom.WriteDataToOnePage$sloc0$0_1$0==.
      000000                        757 _WriteDataToOnePage_sloc0_1_0:
      000000                        758 	.ds 1
                           000001   759 Leeprom.WriteDataToOnePage$sloc1$0_1$0==.
      000001                        760 _WriteDataToOnePage_sloc1_1_0:
      000001                        761 	.ds 3
                           000004   762 Leeprom.WriteDataToOnePage$sloc2$0_1$0==.
      000004                        763 _WriteDataToOnePage_sloc2_1_0:
      000004                        764 	.ds 3
                                    765 ;--------------------------------------------------------
                                    766 ; indirectly addressable internal ram data
                                    767 ;--------------------------------------------------------
                                    768 	.area ISEG    (DATA)
                                    769 ;--------------------------------------------------------
                                    770 ; absolute internal ram data
                                    771 ;--------------------------------------------------------
                                    772 	.area IABS    (ABS,DATA)
                                    773 	.area IABS    (ABS,DATA)
                                    774 ;--------------------------------------------------------
                                    775 ; bit data
                                    776 ;--------------------------------------------------------
                                    777 	.area BSEG    (BIT)
                           000000   778 G$EECHECKFLAG$0_0$0==.
      000000                        779 _EECHECKFLAG::
      000000                        780 	.ds 1
                                    781 ;--------------------------------------------------------
                                    782 ; paged external ram data
                                    783 ;--------------------------------------------------------
                                    784 	.area PSEG    (PAG,XDATA)
                                    785 ;--------------------------------------------------------
                                    786 ; uninitialized external ram data
                                    787 ;--------------------------------------------------------
                                    788 	.area XSEG    (XDATA)
                           000000   789 G$page_buffer$0_0$0==.
      000000                        790 _page_buffer::
      000000                        791 	.ds 128
                           000080   792 G$xd_tmp$0_0$0==.
      000080                        793 _xd_tmp::
      000080                        794 	.ds 128
                           000100   795 Leeprom.Write_DATAFLASH_BYTE$u8EPData$1_0$154==.
      000100                        796 _Write_DATAFLASH_BYTE_PARM_2:
      000100                        797 	.ds 1
                           000101   798 Leeprom.Write_DATAFLASH_BYTE$u16EPAddr$1_0$154==.
      000101                        799 _Write_DATAFLASH_BYTE_u16EPAddr_65536_154:
      000101                        800 	.ds 2
                           000103   801 Leeprom.Write_DATAFLASH_BYTE$checkdatatemp$1_0$155==.
      000103                        802 _Write_DATAFLASH_BYTE_checkdatatemp_65536_155:
      000103                        803 	.ds 1
                           000104   804 Leeprom.Read_DATAFLASH_ARRAY$pDat$1_0$161==.
      000104                        805 _Read_DATAFLASH_ARRAY_PARM_2:
      000104                        806 	.ds 3
                           000107   807 Leeprom.Read_DATAFLASH_ARRAY$num$1_0$161==.
      000107                        808 _Read_DATAFLASH_ARRAY_PARM_3:
      000107                        809 	.ds 2
                           000109   810 Leeprom.Read_DATAFLASH_ARRAY$u16_addr$1_0$161==.
      000109                        811 _Read_DATAFLASH_ARRAY_u16_addr_65536_161:
      000109                        812 	.ds 2
                           00010B   813 Leeprom.Write_DATAFLASH_ARRAY$pDat$1_0$165==.
      00010B                        814 _Write_DATAFLASH_ARRAY_PARM_2:
      00010B                        815 	.ds 3
                           00010E   816 Leeprom.Write_DATAFLASH_ARRAY$num$1_0$165==.
      00010E                        817 _Write_DATAFLASH_ARRAY_PARM_3:
      00010E                        818 	.ds 2
                           000110   819 Leeprom.Write_DATAFLASH_ARRAY$u16_addr$1_0$165==.
      000110                        820 _Write_DATAFLASH_ARRAY_u16_addr_65536_165:
      000110                        821 	.ds 2
                           000112   822 Leeprom.Write_DATAFLASH_ARRAY$CPageAddr$1_0$166==.
      000112                        823 _Write_DATAFLASH_ARRAY_CPageAddr_65536_166:
      000112                        824 	.ds 1
                           000113   825 Leeprom.WriteDataToOnePage$pDat$1_0$169==.
      000113                        826 _WriteDataToOnePage_PARM_2:
      000113                        827 	.ds 3
                           000116   828 Leeprom.WriteDataToOnePage$num$1_0$169==.
      000116                        829 _WriteDataToOnePage_PARM_3:
      000116                        830 	.ds 1
                           000117   831 Leeprom.WriteDataToOnePage$u16_addr$1_0$169==.
      000117                        832 _WriteDataToOnePage_u16_addr_65536_169:
      000117                        833 	.ds 2
                           000119   834 Leeprom.WriteDataToOnePage$checkdatatemp$1_0$170==.
      000119                        835 _WriteDataToOnePage_checkdatatemp_65536_170:
      000119                        836 	.ds 1
                                    837 ;--------------------------------------------------------
                                    838 ; absolute external ram data
                                    839 ;--------------------------------------------------------
                                    840 	.area XABS    (ABS,XDATA)
                                    841 ;--------------------------------------------------------
                                    842 ; initialized external ram data
                                    843 ;--------------------------------------------------------
                                    844 	.area XISEG   (XDATA)
                                    845 	.area HOME    (CODE)
                                    846 	.area GSINIT0 (CODE)
                                    847 	.area GSINIT1 (CODE)
                                    848 	.area GSINIT2 (CODE)
                                    849 	.area GSINIT3 (CODE)
                                    850 	.area GSINIT4 (CODE)
                                    851 	.area GSINIT5 (CODE)
                                    852 	.area GSINIT  (CODE)
                                    853 	.area GSFINAL (CODE)
                                    854 	.area CSEG    (CODE)
                                    855 ;--------------------------------------------------------
                                    856 ; global & static initialisations
                                    857 ;--------------------------------------------------------
                                    858 	.area HOME    (CODE)
                                    859 	.area GSINIT  (CODE)
                                    860 	.area GSFINAL (CODE)
                                    861 	.area GSINIT  (CODE)
                                    862 ;--------------------------------------------------------
                                    863 ; Home
                                    864 ;--------------------------------------------------------
                                    865 	.area HOME    (CODE)
                                    866 	.area HOME    (CODE)
                                    867 ;--------------------------------------------------------
                                    868 ; code
                                    869 ;--------------------------------------------------------
                                    870 	.area CSEG    (CODE)
                                    871 ;------------------------------------------------------------
                                    872 ;Allocation info for local variables in function 'Write_DATAFLASH_BYTE'
                                    873 ;------------------------------------------------------------
                                    874 ;u8EPData                  Allocated with name '_Write_DATAFLASH_BYTE_PARM_2'
                                    875 ;u16EPAddr                 Allocated with name '_Write_DATAFLASH_BYTE_u16EPAddr_65536_154'
                                    876 ;looptmp                   Allocated with name '_Write_DATAFLASH_BYTE_looptmp_65536_155'
                                    877 ;RAMtmp                    Allocated with name '_Write_DATAFLASH_BYTE_RAMtmp_65536_155'
                                    878 ;checkdatatemp             Allocated with name '_Write_DATAFLASH_BYTE_checkdatatemp_65536_155'
                                    879 ;u16_addrl_r               Allocated with name '_Write_DATAFLASH_BYTE_u16_addrl_r_65536_155'
                                    880 ;------------------------------------------------------------
                           000000   881 	Seeprom$Write_DATAFLASH_BYTE$0 ==.
                                    882 ;	C:/BSP/MG51xC9AE_MG51xB9AE_Series/Library/StdDriver/src/eeprom.c:33: uint8_t Write_DATAFLASH_BYTE(uint16_t u16EPAddr, uint8_t u8EPData)
                                    883 ;	-----------------------------------------
                                    884 ;	 function Write_DATAFLASH_BYTE
                                    885 ;	-----------------------------------------
      000000                        886 _Write_DATAFLASH_BYTE:
                           000007   887 	ar7 = 0x07
                           000006   888 	ar6 = 0x06
                           000005   889 	ar5 = 0x05
                           000004   890 	ar4 = 0x04
                           000003   891 	ar3 = 0x03
                           000002   892 	ar2 = 0x02
                           000001   893 	ar1 = 0x01
                           000000   894 	ar0 = 0x00
                           000000   895 	Seeprom$Write_DATAFLASH_BYTE$1 ==.
      000000 AF 83            [24]  896 	mov	r7,dph
      000002 E5 82            [12]  897 	mov	a,dpl
      000004 90r01r01         [24]  898 	mov	dptr,#_Write_DATAFLASH_BYTE_u16EPAddr_65536_154
      000007 F0               [24]  899 	movx	@dptr,a
      000008 EF               [12]  900 	mov	a,r7
      000009 A3               [24]  901 	inc	dptr
      00000A F0               [24]  902 	movx	@dptr,a
                           00000B   903 	Seeprom$Write_DATAFLASH_BYTE$2 ==.
                                    904 ;	C:/BSP/MG51xC9AE_MG51xB9AE_Series/Library/StdDriver/src/eeprom.c:38: EECHECKFLAG = 0;
                                    905 ;	assignBit
      00000B C2*00            [12]  906 	clr	_EECHECKFLAG
                           00000D   907 	Seeprom$Write_DATAFLASH_BYTE$3 ==.
                                    908 ;	C:/BSP/MG51xC9AE_MG51xB9AE_Series/Library/StdDriver/src/eeprom.c:40: u16_addrl_r=(u16EPAddr/128)*128;
      00000D 90r01r01         [24]  909 	mov	dptr,#_Write_DATAFLASH_BYTE_u16EPAddr_65536_154
      000010 E0               [24]  910 	movx	a,@dptr
      000011 FE               [12]  911 	mov	r6,a
      000012 A3               [24]  912 	inc	dptr
      000013 E0               [24]  913 	movx	a,@dptr
      000014 A2 E7            [12]  914 	mov	c,acc.7
      000016 CE               [12]  915 	xch	a,r6
      000017 33               [12]  916 	rlc	a
      000018 CE               [12]  917 	xch	a,r6
      000019 33               [12]  918 	rlc	a
      00001A CE               [12]  919 	xch	a,r6
      00001B 54 01            [12]  920 	anl	a,#0x01
      00001D 54 01            [12]  921 	anl	a,#0x01
      00001F A2 E0            [12]  922 	mov	c,acc.0
      000021 CE               [12]  923 	xch	a,r6
      000022 13               [12]  924 	rrc	a
      000023 CE               [12]  925 	xch	a,r6
      000024 13               [12]  926 	rrc	a
      000025 CE               [12]  927 	xch	a,r6
      000026 FF               [12]  928 	mov	r7,a
                           000027   929 	Seeprom$Write_DATAFLASH_BYTE$4 ==.
                           000027   930 	Seeprom$Write_DATAFLASH_BYTE$5 ==.
                                    931 ;	C:/BSP/MG51xC9AE_MG51xB9AE_Series/Library/StdDriver/src/eeprom.c:42: for(looptmp=0;looptmp<0x80;looptmp++)
                           000027   932 	Seeprom$Write_DATAFLASH_BYTE$6 ==.
      000027 7D 00            [12]  933 	mov	r5,#0x00
      000029                        934 00106$:
                           000029   935 	Seeprom$Write_DATAFLASH_BYTE$7 ==.
                                    936 ;	C:/BSP/MG51xC9AE_MG51xB9AE_Series/Library/StdDriver/src/eeprom.c:49: RAMtmp = Read_APROM_BYTE((uint16_t __code *)(u16_addrl_r+looptmp));
      000029 8D 03            [24]  937 	mov	ar3,r5
      00002B 7C 00            [12]  938 	mov	r4,#0x00
      00002D 8E 01            [24]  939 	mov	ar1,r6
      00002F 8F 02            [24]  940 	mov	ar2,r7
      000031 EB               [12]  941 	mov	a,r3
      000032 29               [12]  942 	add	a,r1
      000033 F9               [12]  943 	mov	r1,a
      000034 EC               [12]  944 	mov	a,r4
      000035 3A               [12]  945 	addc	a,r2
      000036 FA               [12]  946 	mov	r2,a
      000037 89 82            [24]  947 	mov	dpl,r1
      000039 8A 83            [24]  948 	mov	dph,r2
      00003B C0 07            [24]  949 	push	ar7
      00003D C0 06            [24]  950 	push	ar6
      00003F C0 05            [24]  951 	push	ar5
      000041 12r00r00         [24]  952 	lcall	_Read_APROM_BYTE
      000044 AC 82            [24]  953 	mov	r4,dpl
      000046 D0 05            [24]  954 	pop	ar5
      000048 D0 06            [24]  955 	pop	ar6
      00004A D0 07            [24]  956 	pop	ar7
                           00004C   957 	Seeprom$Write_DATAFLASH_BYTE$8 ==.
                                    958 ;	C:/BSP/MG51xC9AE_MG51xB9AE_Series/Library/StdDriver/src/eeprom.c:51: page_buffer[looptmp]=RAMtmp;
      00004C ED               [12]  959 	mov	a,r5
      00004D 24r00            [12]  960 	add	a,#_page_buffer
      00004F F5 82            [12]  961 	mov	dpl,a
      000051 E4               [12]  962 	clr	a
      000052 34s00            [12]  963 	addc	a,#(_page_buffer >> 8)
      000054 F5 83            [12]  964 	mov	dph,a
      000056 EC               [12]  965 	mov	a,r4
      000057 F0               [24]  966 	movx	@dptr,a
                           000058   967 	Seeprom$Write_DATAFLASH_BYTE$9 ==.
                                    968 ;	C:/BSP/MG51xC9AE_MG51xB9AE_Series/Library/StdDriver/src/eeprom.c:42: for(looptmp=0;looptmp<0x80;looptmp++)
      000058 0D               [12]  969 	inc	r5
      000059 BD 80 00         [24]  970 	cjne	r5,#0x80,00129$
      00005C                        971 00129$:
      00005C 40 CB            [24]  972 	jc	00106$
                           00005E   973 	Seeprom$Write_DATAFLASH_BYTE$10 ==.
                                    974 ;	C:/BSP/MG51xC9AE_MG51xB9AE_Series/Library/StdDriver/src/eeprom.c:54: page_buffer[u16EPAddr&0x7f] = u8EPData;
      00005E 90r01r01         [24]  975 	mov	dptr,#_Write_DATAFLASH_BYTE_u16EPAddr_65536_154
      000061 E0               [24]  976 	movx	a,@dptr
      000062 FC               [12]  977 	mov	r4,a
      000063 A3               [24]  978 	inc	dptr
      000064 E0               [24]  979 	movx	a,@dptr
      000065 53 04 7F         [24]  980 	anl	ar4,#0x7f
      000068 7D 00            [12]  981 	mov	r5,#0x00
      00006A EC               [12]  982 	mov	a,r4
      00006B 24r00            [12]  983 	add	a,#_page_buffer
      00006D FC               [12]  984 	mov	r4,a
      00006E ED               [12]  985 	mov	a,r5
      00006F 34s00            [12]  986 	addc	a,#(_page_buffer >> 8)
      000071 FD               [12]  987 	mov	r5,a
      000072 90r01r00         [24]  988 	mov	dptr,#_Write_DATAFLASH_BYTE_PARM_2
      000075 E0               [24]  989 	movx	a,@dptr
      000076 FB               [12]  990 	mov	r3,a
      000077 8C 82            [24]  991 	mov	dpl,r4
      000079 8D 83            [24]  992 	mov	dph,r5
      00007B F0               [24]  993 	movx	@dptr,a
                           00007C   994 	Seeprom$Write_DATAFLASH_BYTE$11 ==.
                                    995 ;	C:/BSP/MG51xC9AE_MG51xB9AE_Series/Library/StdDriver/src/eeprom.c:57: IAPAL = u16_addrl_r&0xff;
      00007C 8E 05            [24]  996 	mov	ar5,r6
      00007E 8D A6            [24]  997 	mov	_IAPAL,r5
                           000080   998 	Seeprom$Write_DATAFLASH_BYTE$12 ==.
                                    999 ;	C:/BSP/MG51xC9AE_MG51xB9AE_Series/Library/StdDriver/src/eeprom.c:58: IAPAH = (u16_addrl_r>>8)&0xff;
      000080 8F A7            [24] 1000 	mov	_IAPAH,r7
                           000082  1001 	Seeprom$Write_DATAFLASH_BYTE$13 ==.
                                   1002 ;	C:/BSP/MG51xC9AE_MG51xB9AE_Series/Library/StdDriver/src/eeprom.c:59: IAPFD = 0xFF;
      000082 75 AE FF         [24] 1003 	mov	_IAPFD,#0xff
                           000085  1004 	Seeprom$Write_DATAFLASH_BYTE$14 ==.
                                   1005 ;	C:/BSP/MG51xC9AE_MG51xB9AE_Series/Library/StdDriver/src/eeprom.c:60: set_CHPCON_IAPEN; 
                                   1006 ;	assignBit
      000085 A2 AF            [12] 1007 	mov	c,_EA
      000087 92*00            [24] 1008 	mov	_BIT_TMP,c
                                   1009 ;	assignBit
      000089 C2 AF            [12] 1010 	clr	_EA
      00008B 75 C7 AA         [24] 1011 	mov	_TA,#0xaa
      00008E 75 C7 55         [24] 1012 	mov	_TA,#0x55
      000091 43 9F 01         [24] 1013 	orl	_CHPCON,#0x01
                                   1014 ;	assignBit
      000094 A2*00            [12] 1015 	mov	c,_BIT_TMP
      000096 92 AF            [24] 1016 	mov	_EA,c
                           000098  1017 	Seeprom$Write_DATAFLASH_BYTE$15 ==.
                                   1018 ;	C:/BSP/MG51xC9AE_MG51xB9AE_Series/Library/StdDriver/src/eeprom.c:61: set_IAPUEN_APUEN;
                                   1019 ;	assignBit
      000098 A2 AF            [12] 1020 	mov	c,_EA
      00009A 92*00            [24] 1021 	mov	_BIT_TMP,c
                                   1022 ;	assignBit
      00009C C2 AF            [12] 1023 	clr	_EA
      00009E 75 C7 AA         [24] 1024 	mov	_TA,#0xaa
      0000A1 75 C7 55         [24] 1025 	mov	_TA,#0x55
      0000A4 43 A5 01         [24] 1026 	orl	_IAPUEN,#0x01
                                   1027 ;	assignBit
      0000A7 A2*00            [12] 1028 	mov	c,_BIT_TMP
      0000A9 92 AF            [24] 1029 	mov	_EA,c
                           0000AB  1030 	Seeprom$Write_DATAFLASH_BYTE$16 ==.
                                   1031 ;	C:/BSP/MG51xC9AE_MG51xB9AE_Series/Library/StdDriver/src/eeprom.c:62: IAPCN = PAGE_ERASE_APROM;
      0000AB 75 AF 22         [24] 1032 	mov	_IAPCN,#0x22
                           0000AE  1033 	Seeprom$Write_DATAFLASH_BYTE$17 ==.
                                   1034 ;	C:/BSP/MG51xC9AE_MG51xB9AE_Series/Library/StdDriver/src/eeprom.c:63: set_IAPTRG_IAPGO; 
                                   1035 ;	assignBit
      0000AE A2 AF            [12] 1036 	mov	c,_EA
      0000B0 92*00            [24] 1037 	mov	_BIT_TMP,c
                                   1038 ;	assignBit
      0000B2 C2 AF            [12] 1039 	clr	_EA
      0000B4 75 C7 AA         [24] 1040 	mov	_TA,#0xaa
      0000B7 75 C7 55         [24] 1041 	mov	_TA,#0x55
      0000BA 43 A4 01         [24] 1042 	orl	_IAPTRG,#0x01
                                   1043 ;	assignBit
      0000BD A2*00            [12] 1044 	mov	c,_BIT_TMP
      0000BF 92 AF            [24] 1045 	mov	_EA,c
                           0000C1  1046 	Seeprom$Write_DATAFLASH_BYTE$18 ==.
                                   1047 ;	C:/BSP/MG51xC9AE_MG51xB9AE_Series/Library/StdDriver/src/eeprom.c:67: for(looptmp=0;looptmp<0x80;looptmp++)
      0000C1 7E 00            [12] 1048 	mov	r6,#0x00
      0000C3                       1049 00108$:
                           0000C3  1050 	Seeprom$Write_DATAFLASH_BYTE$19 ==.
                           0000C3  1051 	Seeprom$Write_DATAFLASH_BYTE$20 ==.
                                   1052 ;	C:/BSP/MG51xC9AE_MG51xB9AE_Series/Library/StdDriver/src/eeprom.c:69: IAPAL = (u16_addrl_r&0xff)+looptmp;
      0000C3 EE               [12] 1053 	mov	a,r6
      0000C4 2D               [12] 1054 	add	a,r5
      0000C5 F5 A6            [12] 1055 	mov	_IAPAL,a
                           0000C7  1056 	Seeprom$Write_DATAFLASH_BYTE$21 ==.
                                   1057 ;	C:/BSP/MG51xC9AE_MG51xB9AE_Series/Library/StdDriver/src/eeprom.c:70: IAPAH = (u16_addrl_r>>8)&0xff;
      0000C7 8F A7            [24] 1058 	mov	_IAPAH,r7
                           0000C9  1059 	Seeprom$Write_DATAFLASH_BYTE$22 ==.
                                   1060 ;	C:/BSP/MG51xC9AE_MG51xB9AE_Series/Library/StdDriver/src/eeprom.c:71: IAPCN = BYTE_PROGRAM_APROM;
      0000C9 75 AF 21         [24] 1061 	mov	_IAPCN,#0x21
                           0000CC  1062 	Seeprom$Write_DATAFLASH_BYTE$23 ==.
                                   1063 ;	C:/BSP/MG51xC9AE_MG51xB9AE_Series/Library/StdDriver/src/eeprom.c:72: IAPFD = page_buffer[looptmp];
      0000CC EE               [12] 1064 	mov	a,r6
      0000CD 24r00            [12] 1065 	add	a,#_page_buffer
      0000CF F5 82            [12] 1066 	mov	dpl,a
      0000D1 E4               [12] 1067 	clr	a
      0000D2 34s00            [12] 1068 	addc	a,#(_page_buffer >> 8)
      0000D4 F5 83            [12] 1069 	mov	dph,a
      0000D6 E0               [24] 1070 	movx	a,@dptr
      0000D7 FC               [12] 1071 	mov	r4,a
      0000D8 8C AE            [24] 1072 	mov	_IAPFD,r4
                           0000DA  1073 	Seeprom$Write_DATAFLASH_BYTE$24 ==.
                                   1074 ;	C:/BSP/MG51xC9AE_MG51xB9AE_Series/Library/StdDriver/src/eeprom.c:73: set_IAPTRG_IAPGO;
                                   1075 ;	assignBit
      0000DA A2 AF            [12] 1076 	mov	c,_EA
      0000DC 92*00            [24] 1077 	mov	_BIT_TMP,c
                                   1078 ;	assignBit
      0000DE C2 AF            [12] 1079 	clr	_EA
      0000E0 75 C7 AA         [24] 1080 	mov	_TA,#0xaa
      0000E3 75 C7 55         [24] 1081 	mov	_TA,#0x55
      0000E6 43 A4 01         [24] 1082 	orl	_IAPTRG,#0x01
                                   1083 ;	assignBit
      0000E9 A2*00            [12] 1084 	mov	c,_BIT_TMP
      0000EB 92 AF            [24] 1085 	mov	_EA,c
                           0000ED  1086 	Seeprom$Write_DATAFLASH_BYTE$25 ==.
                                   1087 ;	C:/BSP/MG51xC9AE_MG51xB9AE_Series/Library/StdDriver/src/eeprom.c:74: IAPCN = BYTE_READ_APROM;
      0000ED 75 AF 00         [24] 1088 	mov	_IAPCN,#0x00
                           0000F0  1089 	Seeprom$Write_DATAFLASH_BYTE$26 ==.
                                   1090 ;	C:/BSP/MG51xC9AE_MG51xB9AE_Series/Library/StdDriver/src/eeprom.c:75: IAPFD = 0xFF;
      0000F0 75 AE FF         [24] 1091 	mov	_IAPFD,#0xff
                           0000F3  1092 	Seeprom$Write_DATAFLASH_BYTE$27 ==.
                                   1093 ;	C:/BSP/MG51xC9AE_MG51xB9AE_Series/Library/StdDriver/src/eeprom.c:76: set_IAPTRG_IAPGO;
                                   1094 ;	assignBit
      0000F3 A2 AF            [12] 1095 	mov	c,_EA
      0000F5 92*00            [24] 1096 	mov	_BIT_TMP,c
                                   1097 ;	assignBit
      0000F7 C2 AF            [12] 1098 	clr	_EA
      0000F9 75 C7 AA         [24] 1099 	mov	_TA,#0xaa
      0000FC 75 C7 55         [24] 1100 	mov	_TA,#0x55
      0000FF 43 A4 01         [24] 1101 	orl	_IAPTRG,#0x01
                                   1102 ;	assignBit
      000102 A2*00            [12] 1103 	mov	c,_BIT_TMP
      000104 92 AF            [24] 1104 	mov	_EA,c
                           000106  1105 	Seeprom$Write_DATAFLASH_BYTE$28 ==.
                                   1106 ;	C:/BSP/MG51xC9AE_MG51xB9AE_Series/Library/StdDriver/src/eeprom.c:77: checkdatatemp = IAPFD;
      000106 90r01r03         [24] 1107 	mov	dptr,#_Write_DATAFLASH_BYTE_checkdatatemp_65536_155
      000109 E5 AE            [12] 1108 	mov	a,_IAPFD
      00010B F0               [24] 1109 	movx	@dptr,a
                           00010C  1110 	Seeprom$Write_DATAFLASH_BYTE$29 ==.
                                   1111 ;	C:/BSP/MG51xC9AE_MG51xB9AE_Series/Library/StdDriver/src/eeprom.c:78: if (checkdatatemp!= page_buffer[looptmp])
      00010C E0               [24] 1112 	movx	a,@dptr
      00010D FB               [12] 1113 	mov	r3,a
      00010E B5 04 02         [24] 1114 	cjne	a,ar4,00131$
      000111 80 04            [24] 1115 	sjmp	00109$
      000113                       1116 00131$:
                           000113  1117 	Seeprom$Write_DATAFLASH_BYTE$30 ==.
                           000113  1118 	Seeprom$Write_DATAFLASH_BYTE$31 ==.
                                   1119 ;	C:/BSP/MG51xC9AE_MG51xB9AE_Series/Library/StdDriver/src/eeprom.c:80: EECHECKFLAG = 1;
                                   1120 ;	assignBit
      000113 D2*00            [12] 1121 	setb	_EECHECKFLAG
                           000115  1122 	Seeprom$Write_DATAFLASH_BYTE$32 ==.
                                   1123 ;	C:/BSP/MG51xC9AE_MG51xB9AE_Series/Library/StdDriver/src/eeprom.c:81: goto WriteByteEnd;
                           000115  1124 	Seeprom$Write_DATAFLASH_BYTE$33 ==.
      000115 80 06            [24] 1125 	sjmp	00105$
      000117                       1126 00109$:
                           000117  1127 	Seeprom$Write_DATAFLASH_BYTE$34 ==.
                           000117  1128 	Seeprom$Write_DATAFLASH_BYTE$35 ==.
                                   1129 ;	C:/BSP/MG51xC9AE_MG51xB9AE_Series/Library/StdDriver/src/eeprom.c:67: for(looptmp=0;looptmp<0x80;looptmp++)
      000117 0E               [12] 1130 	inc	r6
      000118 BE 80 00         [24] 1131 	cjne	r6,#0x80,00132$
      00011B                       1132 00132$:
      00011B 40 A6            [24] 1133 	jc	00108$
                           00011D  1134 	Seeprom$Write_DATAFLASH_BYTE$36 ==.
                                   1135 ;	C:/BSP/MG51xC9AE_MG51xB9AE_Series/Library/StdDriver/src/eeprom.c:84: WriteByteEnd:
      00011D                       1136 00105$:
                           00011D  1137 	Seeprom$Write_DATAFLASH_BYTE$37 ==.
                                   1138 ;	C:/BSP/MG51xC9AE_MG51xB9AE_Series/Library/StdDriver/src/eeprom.c:85: clr_IAPUEN_APUEN;
                                   1139 ;	assignBit
      00011D A2 AF            [12] 1140 	mov	c,_EA
      00011F 92*00            [24] 1141 	mov	_BIT_TMP,c
                                   1142 ;	assignBit
      000121 C2 AF            [12] 1143 	clr	_EA
      000123 75 C7 AA         [24] 1144 	mov	_TA,#0xaa
      000126 75 C7 55         [24] 1145 	mov	_TA,#0x55
      000129 53 A5 FE         [24] 1146 	anl	_IAPUEN,#0xfe
                                   1147 ;	assignBit
      00012C A2*00            [12] 1148 	mov	c,_BIT_TMP
      00012E 92 AF            [24] 1149 	mov	_EA,c
                           000130  1150 	Seeprom$Write_DATAFLASH_BYTE$38 ==.
                                   1151 ;	C:/BSP/MG51xC9AE_MG51xB9AE_Series/Library/StdDriver/src/eeprom.c:86: clr_CHPCON_IAPEN;
                                   1152 ;	assignBit
      000130 A2 AF            [12] 1153 	mov	c,_EA
      000132 92*00            [24] 1154 	mov	_BIT_TMP,c
                                   1155 ;	assignBit
      000134 C2 AF            [12] 1156 	clr	_EA
      000136 75 C7 AA         [24] 1157 	mov	_TA,#0xaa
      000139 75 C7 55         [24] 1158 	mov	_TA,#0x55
      00013C 53 9F FE         [24] 1159 	anl	_CHPCON,#0xfe
                                   1160 ;	assignBit
      00013F A2*00            [12] 1161 	mov	c,_BIT_TMP
      000141 92 AF            [24] 1162 	mov	_EA,c
                           000143  1163 	Seeprom$Write_DATAFLASH_BYTE$39 ==.
                                   1164 ;	C:/BSP/MG51xC9AE_MG51xB9AE_Series/Library/StdDriver/src/eeprom.c:88: return EECHECKFLAG;
      000143 A2*00            [12] 1165 	mov	c,_EECHECKFLAG
      000145 E4               [12] 1166 	clr	a
      000146 33               [12] 1167 	rlc	a
                           000147  1168 	Seeprom$Write_DATAFLASH_BYTE$40 ==.
                                   1169 ;	C:/BSP/MG51xC9AE_MG51xB9AE_Series/Library/StdDriver/src/eeprom.c:89: }
                           000147  1170 	Seeprom$Write_DATAFLASH_BYTE$41 ==.
                           000147  1171 	XG$Write_DATAFLASH_BYTE$0$0 ==.
      000147 F5 82            [12] 1172 	mov	dpl,a
      000149 22               [24] 1173 	ret
                           00014A  1174 	Seeprom$Write_DATAFLASH_BYTE$42 ==.
                                   1175 ;------------------------------------------------------------
                                   1176 ;Allocation info for local variables in function 'Read_DATAFLASH_ARRAY'
                                   1177 ;------------------------------------------------------------
                                   1178 ;pDat                      Allocated with name '_Read_DATAFLASH_ARRAY_PARM_2'
                                   1179 ;num                       Allocated with name '_Read_DATAFLASH_ARRAY_PARM_3'
                                   1180 ;u16_addr                  Allocated with name '_Read_DATAFLASH_ARRAY_u16_addr_65536_161'
                                   1181 ;i                         Allocated with name '_Read_DATAFLASH_ARRAY_i_65536_162'
                                   1182 ;sloc0                     Allocated with name '_Read_DATAFLASH_ARRAY_sloc0_1_0'
                                   1183 ;sloc1                     Allocated with name '_Read_DATAFLASH_ARRAY_sloc1_1_0'
                                   1184 ;------------------------------------------------------------
                           00014A  1185 	Seeprom$Read_DATAFLASH_ARRAY$43 ==.
                                   1186 ;	C:/BSP/MG51xC9AE_MG51xB9AE_Series/Library/StdDriver/src/eeprom.c:99: void Read_DATAFLASH_ARRAY(uint16_t u16_addr, uint8_t *pDat, uint16_t num)
                                   1187 ;	-----------------------------------------
                                   1188 ;	 function Read_DATAFLASH_ARRAY
                                   1189 ;	-----------------------------------------
      00014A                       1190 _Read_DATAFLASH_ARRAY:
                           00014A  1191 	Seeprom$Read_DATAFLASH_ARRAY$44 ==.
      00014A AF 83            [24] 1192 	mov	r7,dph
      00014C E5 82            [12] 1193 	mov	a,dpl
      00014E 90r01r09         [24] 1194 	mov	dptr,#_Read_DATAFLASH_ARRAY_u16_addr_65536_161
      000151 F0               [24] 1195 	movx	@dptr,a
      000152 EF               [12] 1196 	mov	a,r7
      000153 A3               [24] 1197 	inc	dptr
      000154 F0               [24] 1198 	movx	@dptr,a
                           000155  1199 	Seeprom$Read_DATAFLASH_ARRAY$45 ==.
                           000155  1200 	Seeprom$Read_DATAFLASH_ARRAY$46 ==.
                                   1201 ;	C:/BSP/MG51xC9AE_MG51xB9AE_Series/Library/StdDriver/src/eeprom.c:103: for(i=0;i<num;i++)
      000155 90r01r04         [24] 1202 	mov	dptr,#_Read_DATAFLASH_ARRAY_PARM_2
      000158 E0               [24] 1203 	movx	a,@dptr
      000159 FD               [12] 1204 	mov	r5,a
      00015A A3               [24] 1205 	inc	dptr
      00015B E0               [24] 1206 	movx	a,@dptr
      00015C FE               [12] 1207 	mov	r6,a
      00015D A3               [24] 1208 	inc	dptr
      00015E E0               [24] 1209 	movx	a,@dptr
      00015F FF               [12] 1210 	mov	r7,a
      000160 90r01r09         [24] 1211 	mov	dptr,#_Read_DATAFLASH_ARRAY_u16_addr_65536_161
      000163 E0               [24] 1212 	movx	a,@dptr
      000164 F5*02            [12] 1213 	mov	_Read_DATAFLASH_ARRAY_sloc1_1_0,a
      000166 A3               [24] 1214 	inc	dptr
      000167 E0               [24] 1215 	movx	a,@dptr
      000168 F5*03            [12] 1216 	mov	(_Read_DATAFLASH_ARRAY_sloc1_1_0 + 1),a
                           00016A  1217 	Seeprom$Read_DATAFLASH_ARRAY$47 ==.
      00016A 90r01r07         [24] 1218 	mov	dptr,#_Read_DATAFLASH_ARRAY_PARM_3
      00016D E0               [24] 1219 	movx	a,@dptr
      00016E F9               [12] 1220 	mov	r1,a
      00016F A3               [24] 1221 	inc	dptr
      000170 E0               [24] 1222 	movx	a,@dptr
      000171 FA               [12] 1223 	mov	r2,a
      000172 E4               [12] 1224 	clr	a
      000173 F5*00            [12] 1225 	mov	_Read_DATAFLASH_ARRAY_sloc0_1_0,a
      000175 F5*01            [12] 1226 	mov	(_Read_DATAFLASH_ARRAY_sloc0_1_0 + 1),a
      000177                       1227 00103$:
      000177 C3               [12] 1228 	clr	c
      000178 E5*00            [12] 1229 	mov	a,_Read_DATAFLASH_ARRAY_sloc0_1_0
      00017A 99               [12] 1230 	subb	a,r1
      00017B E5*01            [12] 1231 	mov	a,(_Read_DATAFLASH_ARRAY_sloc0_1_0 + 1)
      00017D 9A               [12] 1232 	subb	a,r2
      00017E 50 36            [24] 1233 	jnc	00105$
                           000180  1234 	Seeprom$Read_DATAFLASH_ARRAY$48 ==.
                                   1235 ;	C:/BSP/MG51xC9AE_MG51xB9AE_Series/Library/StdDriver/src/eeprom.c:110: pDat[i] = *(uint8_t __code *)(u16_addr+i);
      000180 C0 01            [24] 1236 	push	ar1
      000182 C0 02            [24] 1237 	push	ar2
      000184 E5*00            [12] 1238 	mov	a,_Read_DATAFLASH_ARRAY_sloc0_1_0
      000186 2D               [12] 1239 	add	a,r5
      000187 F8               [12] 1240 	mov	r0,a
      000188 E5*01            [12] 1241 	mov	a,(_Read_DATAFLASH_ARRAY_sloc0_1_0 + 1)
      00018A 3E               [12] 1242 	addc	a,r6
      00018B F9               [12] 1243 	mov	r1,a
      00018C 8F 02            [24] 1244 	mov	ar2,r7
      00018E E5*00            [12] 1245 	mov	a,_Read_DATAFLASH_ARRAY_sloc0_1_0
      000190 25*02            [12] 1246 	add	a,_Read_DATAFLASH_ARRAY_sloc1_1_0
      000192 FB               [12] 1247 	mov	r3,a
      000193 E5*01            [12] 1248 	mov	a,(_Read_DATAFLASH_ARRAY_sloc0_1_0 + 1)
      000195 35*03            [12] 1249 	addc	a,(_Read_DATAFLASH_ARRAY_sloc1_1_0 + 1)
      000197 FC               [12] 1250 	mov	r4,a
      000198 8B 82            [24] 1251 	mov	dpl,r3
      00019A 8C 83            [24] 1252 	mov	dph,r4
      00019C E4               [12] 1253 	clr	a
      00019D 93               [24] 1254 	movc	a,@a+dptr
      00019E FC               [12] 1255 	mov	r4,a
      00019F 88 82            [24] 1256 	mov	dpl,r0
      0001A1 89 83            [24] 1257 	mov	dph,r1
      0001A3 8A F0            [24] 1258 	mov	b,r2
      0001A5 12r00r00         [24] 1259 	lcall	__gptrput
                           0001A8  1260 	Seeprom$Read_DATAFLASH_ARRAY$49 ==.
                                   1261 ;	C:/BSP/MG51xC9AE_MG51xB9AE_Series/Library/StdDriver/src/eeprom.c:103: for(i=0;i<num;i++)
      0001A8 05*00            [12] 1262 	inc	_Read_DATAFLASH_ARRAY_sloc0_1_0
      0001AA E4               [12] 1263 	clr	a
      0001AB B5*00 02         [24] 1264 	cjne	a,_Read_DATAFLASH_ARRAY_sloc0_1_0,00117$
      0001AE 05*01            [12] 1265 	inc	(_Read_DATAFLASH_ARRAY_sloc0_1_0 + 1)
      0001B0                       1266 00117$:
      0001B0 D0 02            [24] 1267 	pop	ar2
      0001B2 D0 01            [24] 1268 	pop	ar1
      0001B4 80 C1            [24] 1269 	sjmp	00103$
      0001B6                       1270 00105$:
                           0001B6  1271 	Seeprom$Read_DATAFLASH_ARRAY$50 ==.
                                   1272 ;	C:/BSP/MG51xC9AE_MG51xB9AE_Series/Library/StdDriver/src/eeprom.c:113: }
                           0001B6  1273 	Seeprom$Read_DATAFLASH_ARRAY$51 ==.
                           0001B6  1274 	XG$Read_DATAFLASH_ARRAY$0$0 ==.
      0001B6 22               [24] 1275 	ret
                           0001B7  1276 	Seeprom$Read_DATAFLASH_ARRAY$52 ==.
                                   1277 ;------------------------------------------------------------
                                   1278 ;Allocation info for local variables in function 'Write_DATAFLASH_ARRAY'
                                   1279 ;------------------------------------------------------------
                                   1280 ;pDat                      Allocated with name '_Write_DATAFLASH_ARRAY_PARM_2'
                                   1281 ;num                       Allocated with name '_Write_DATAFLASH_ARRAY_PARM_3'
                                   1282 ;u16_addr                  Allocated with name '_Write_DATAFLASH_ARRAY_u16_addr_65536_165'
                                   1283 ;CPageAddr                 Allocated with name '_Write_DATAFLASH_ARRAY_CPageAddr_65536_166'
                                   1284 ;EPageAddr                 Allocated with name '_Write_DATAFLASH_ARRAY_EPageAddr_65536_166'
                                   1285 ;cnt                       Allocated with name '_Write_DATAFLASH_ARRAY_cnt_65536_166'
                                   1286 ;------------------------------------------------------------
                           0001B7  1287 	Seeprom$Write_DATAFLASH_ARRAY$53 ==.
                                   1288 ;	C:/BSP/MG51xC9AE_MG51xB9AE_Series/Library/StdDriver/src/eeprom.c:123: uint8_t  Write_DATAFLASH_ARRAY(uint16_t u16_addr, uint8_t *pDat, uint16_t num)
                                   1289 ;	-----------------------------------------
                                   1290 ;	 function Write_DATAFLASH_ARRAY
                                   1291 ;	-----------------------------------------
      0001B7                       1292 _Write_DATAFLASH_ARRAY:
                           0001B7  1293 	Seeprom$Write_DATAFLASH_ARRAY$54 ==.
      0001B7 AF 83            [24] 1294 	mov	r7,dph
      0001B9 E5 82            [12] 1295 	mov	a,dpl
      0001BB 90r01r10         [24] 1296 	mov	dptr,#_Write_DATAFLASH_ARRAY_u16_addr_65536_165
      0001BE F0               [24] 1297 	movx	@dptr,a
      0001BF EF               [12] 1298 	mov	a,r7
      0001C0 A3               [24] 1299 	inc	dptr
      0001C1 F0               [24] 1300 	movx	@dptr,a
                           0001C2  1301 	Seeprom$Write_DATAFLASH_ARRAY$55 ==.
                                   1302 ;	C:/BSP/MG51xC9AE_MG51xB9AE_Series/Library/StdDriver/src/eeprom.c:127: EECHECKFLAG=0;
                                   1303 ;	assignBit
      0001C2 C2*00            [12] 1304 	clr	_EECHECKFLAG
                           0001C4  1305 	Seeprom$Write_DATAFLASH_ARRAY$56 ==.
                                   1306 ;	C:/BSP/MG51xC9AE_MG51xB9AE_Series/Library/StdDriver/src/eeprom.c:128: CPageAddr=u16_addr>>7;
      0001C4 90r01r10         [24] 1307 	mov	dptr,#_Write_DATAFLASH_ARRAY_u16_addr_65536_165
      0001C7 E0               [24] 1308 	movx	a,@dptr
      0001C8 FE               [12] 1309 	mov	r6,a
      0001C9 A3               [24] 1310 	inc	dptr
      0001CA E0               [24] 1311 	movx	a,@dptr
      0001CB FF               [12] 1312 	mov	r7,a
      0001CC 8E 04            [24] 1313 	mov	ar4,r6
      0001CE A2 E7            [12] 1314 	mov	c,acc.7
      0001D0 CC               [12] 1315 	xch	a,r4
      0001D1 33               [12] 1316 	rlc	a
      0001D2 CC               [12] 1317 	xch	a,r4
      0001D3 33               [12] 1318 	rlc	a
      0001D4 CC               [12] 1319 	xch	a,r4
      0001D5 54 01            [12] 1320 	anl	a,#0x01
      0001D7 90r01r12         [24] 1321 	mov	dptr,#_Write_DATAFLASH_ARRAY_CPageAddr_65536_166
      0001DA EC               [12] 1322 	mov	a,r4
      0001DB F0               [24] 1323 	movx	@dptr,a
                           0001DC  1324 	Seeprom$Write_DATAFLASH_ARRAY$57 ==.
                                   1325 ;	C:/BSP/MG51xC9AE_MG51xB9AE_Series/Library/StdDriver/src/eeprom.c:129: EPageAddr=(u16_addr+num)>>7;
      0001DC 90r01r0E         [24] 1326 	mov	dptr,#_Write_DATAFLASH_ARRAY_PARM_3
      0001DF E0               [24] 1327 	movx	a,@dptr
      0001E0 FC               [12] 1328 	mov	r4,a
      0001E1 A3               [24] 1329 	inc	dptr
      0001E2 E0               [24] 1330 	movx	a,@dptr
      0001E3 FD               [12] 1331 	mov	r5,a
      0001E4 EC               [12] 1332 	mov	a,r4
      0001E5 2E               [12] 1333 	add	a,r6
      0001E6 FE               [12] 1334 	mov	r6,a
      0001E7 ED               [12] 1335 	mov	a,r5
      0001E8 3F               [12] 1336 	addc	a,r7
      0001E9 A2 E7            [12] 1337 	mov	c,acc.7
      0001EB CE               [12] 1338 	xch	a,r6
      0001EC 33               [12] 1339 	rlc	a
      0001ED CE               [12] 1340 	xch	a,r6
      0001EE 33               [12] 1341 	rlc	a
      0001EF CE               [12] 1342 	xch	a,r6
      0001F0 54 01            [12] 1343 	anl	a,#0x01
      0001F2 FF               [12] 1344 	mov	r7,a
                           0001F3  1345 	Seeprom$Write_DATAFLASH_ARRAY$58 ==.
                                   1346 ;	C:/BSP/MG51xC9AE_MG51xB9AE_Series/Library/StdDriver/src/eeprom.c:130: while(CPageAddr!=EPageAddr)
      0001F3                       1347 00101$:
      0001F3 90r01r12         [24] 1348 	mov	dptr,#_Write_DATAFLASH_ARRAY_CPageAddr_65536_166
      0001F6 E0               [24] 1349 	movx	a,@dptr
      0001F7 FF               [12] 1350 	mov	r7,a
      0001F8 B5 06 03         [24] 1351 	cjne	a,ar6,00120$
      0001FB 02r02r91         [24] 1352 	ljmp	00103$
      0001FE                       1353 00120$:
                           0001FE  1354 	Seeprom$Write_DATAFLASH_ARRAY$59 ==.
                           0001FE  1355 	Seeprom$Write_DATAFLASH_ARRAY$60 ==.
                                   1356 ;	C:/BSP/MG51xC9AE_MG51xB9AE_Series/Library/StdDriver/src/eeprom.c:132: cnt=WriteDataToOnePage(u16_addr,pDat,128);
      0001FE 90r01r10         [24] 1357 	mov	dptr,#_Write_DATAFLASH_ARRAY_u16_addr_65536_165
      000201 E0               [24] 1358 	movx	a,@dptr
      000202 FD               [12] 1359 	mov	r5,a
      000203 A3               [24] 1360 	inc	dptr
      000204 E0               [24] 1361 	movx	a,@dptr
      000205 FF               [12] 1362 	mov	r7,a
      000206 90r01r0B         [24] 1363 	mov	dptr,#_Write_DATAFLASH_ARRAY_PARM_2
      000209 E0               [24] 1364 	movx	a,@dptr
      00020A FA               [12] 1365 	mov	r2,a
      00020B A3               [24] 1366 	inc	dptr
      00020C E0               [24] 1367 	movx	a,@dptr
      00020D FB               [12] 1368 	mov	r3,a
      00020E A3               [24] 1369 	inc	dptr
      00020F E0               [24] 1370 	movx	a,@dptr
      000210 FC               [12] 1371 	mov	r4,a
      000211 90r01r13         [24] 1372 	mov	dptr,#_WriteDataToOnePage_PARM_2
      000214 EA               [12] 1373 	mov	a,r2
      000215 F0               [24] 1374 	movx	@dptr,a
      000216 EB               [12] 1375 	mov	a,r3
      000217 A3               [24] 1376 	inc	dptr
      000218 F0               [24] 1377 	movx	@dptr,a
      000219 EC               [12] 1378 	mov	a,r4
      00021A A3               [24] 1379 	inc	dptr
      00021B F0               [24] 1380 	movx	@dptr,a
      00021C 90r01r16         [24] 1381 	mov	dptr,#_WriteDataToOnePage_PARM_3
      00021F 74 80            [12] 1382 	mov	a,#0x80
      000221 F0               [24] 1383 	movx	@dptr,a
      000222 8D 82            [24] 1384 	mov	dpl,r5
      000224 8F 83            [24] 1385 	mov	dph,r7
      000226 C0 07            [24] 1386 	push	ar7
      000228 C0 06            [24] 1387 	push	ar6
      00022A C0 05            [24] 1388 	push	ar5
      00022C 12r02rD5         [24] 1389 	lcall	_WriteDataToOnePage
      00022F AC 82            [24] 1390 	mov	r4,dpl
      000231 D0 05            [24] 1391 	pop	ar5
      000233 D0 06            [24] 1392 	pop	ar6
      000235 D0 07            [24] 1393 	pop	ar7
                           000237  1394 	Seeprom$Write_DATAFLASH_ARRAY$61 ==.
                                   1395 ;	C:/BSP/MG51xC9AE_MG51xB9AE_Series/Library/StdDriver/src/eeprom.c:133: u16_addr+=cnt;
      000237 8C 02            [24] 1396 	mov	ar2,r4
      000239 7B 00            [12] 1397 	mov	r3,#0x00
      00023B EA               [12] 1398 	mov	a,r2
      00023C 2D               [12] 1399 	add	a,r5
      00023D FD               [12] 1400 	mov	r5,a
      00023E EB               [12] 1401 	mov	a,r3
      00023F 3F               [12] 1402 	addc	a,r7
      000240 FF               [12] 1403 	mov	r7,a
      000241 90r01r10         [24] 1404 	mov	dptr,#_Write_DATAFLASH_ARRAY_u16_addr_65536_165
      000244 ED               [12] 1405 	mov	a,r5
      000245 F0               [24] 1406 	movx	@dptr,a
      000246 EF               [12] 1407 	mov	a,r7
      000247 A3               [24] 1408 	inc	dptr
      000248 F0               [24] 1409 	movx	@dptr,a
                           000249  1410 	Seeprom$Write_DATAFLASH_ARRAY$62 ==.
                                   1411 ;	C:/BSP/MG51xC9AE_MG51xB9AE_Series/Library/StdDriver/src/eeprom.c:134: pDat+=cnt;
      000249 90r01r0B         [24] 1412 	mov	dptr,#_Write_DATAFLASH_ARRAY_PARM_2
      00024C E0               [24] 1413 	movx	a,@dptr
      00024D F9               [12] 1414 	mov	r1,a
      00024E A3               [24] 1415 	inc	dptr
      00024F E0               [24] 1416 	movx	a,@dptr
      000250 FD               [12] 1417 	mov	r5,a
      000251 A3               [24] 1418 	inc	dptr
      000252 E0               [24] 1419 	movx	a,@dptr
      000253 FF               [12] 1420 	mov	r7,a
      000254 90r01r0B         [24] 1421 	mov	dptr,#_Write_DATAFLASH_ARRAY_PARM_2
      000257 EC               [12] 1422 	mov	a,r4
      000258 29               [12] 1423 	add	a,r1
      000259 F0               [24] 1424 	movx	@dptr,a
      00025A E4               [12] 1425 	clr	a
      00025B 3D               [12] 1426 	addc	a,r5
      00025C A3               [24] 1427 	inc	dptr
      00025D F0               [24] 1428 	movx	@dptr,a
      00025E EF               [12] 1429 	mov	a,r7
      00025F A3               [24] 1430 	inc	dptr
      000260 F0               [24] 1431 	movx	@dptr,a
                           000261  1432 	Seeprom$Write_DATAFLASH_ARRAY$63 ==.
                                   1433 ;	C:/BSP/MG51xC9AE_MG51xB9AE_Series/Library/StdDriver/src/eeprom.c:135: num-=cnt;
      000261 90r01r0E         [24] 1434 	mov	dptr,#_Write_DATAFLASH_ARRAY_PARM_3
      000264 E0               [24] 1435 	movx	a,@dptr
      000265 FD               [12] 1436 	mov	r5,a
      000266 A3               [24] 1437 	inc	dptr
      000267 E0               [24] 1438 	movx	a,@dptr
      000268 FF               [12] 1439 	mov	r7,a
      000269 ED               [12] 1440 	mov	a,r5
      00026A C3               [12] 1441 	clr	c
      00026B 9A               [12] 1442 	subb	a,r2
      00026C FA               [12] 1443 	mov	r2,a
      00026D EF               [12] 1444 	mov	a,r7
      00026E 9B               [12] 1445 	subb	a,r3
      00026F FB               [12] 1446 	mov	r3,a
      000270 90r01r0E         [24] 1447 	mov	dptr,#_Write_DATAFLASH_ARRAY_PARM_3
      000273 EA               [12] 1448 	mov	a,r2
      000274 F0               [24] 1449 	movx	@dptr,a
      000275 EB               [12] 1450 	mov	a,r3
      000276 A3               [24] 1451 	inc	dptr
      000277 F0               [24] 1452 	movx	@dptr,a
                           000278  1453 	Seeprom$Write_DATAFLASH_ARRAY$64 ==.
                                   1454 ;	C:/BSP/MG51xC9AE_MG51xB9AE_Series/Library/StdDriver/src/eeprom.c:136: CPageAddr=u16_addr>>7;
      000278 90r01r10         [24] 1455 	mov	dptr,#_Write_DATAFLASH_ARRAY_u16_addr_65536_165
      00027B E0               [24] 1456 	movx	a,@dptr
      00027C FD               [12] 1457 	mov	r5,a
      00027D A3               [24] 1458 	inc	dptr
      00027E E0               [24] 1459 	movx	a,@dptr
      00027F A2 E7            [12] 1460 	mov	c,acc.7
      000281 CD               [12] 1461 	xch	a,r5
      000282 33               [12] 1462 	rlc	a
      000283 CD               [12] 1463 	xch	a,r5
      000284 33               [12] 1464 	rlc	a
      000285 CD               [12] 1465 	xch	a,r5
      000286 54 01            [12] 1466 	anl	a,#0x01
      000288 FF               [12] 1467 	mov	r7,a
      000289 90r01r12         [24] 1468 	mov	dptr,#_Write_DATAFLASH_ARRAY_CPageAddr_65536_166
      00028C ED               [12] 1469 	mov	a,r5
      00028D F0               [24] 1470 	movx	@dptr,a
                           00028E  1471 	Seeprom$Write_DATAFLASH_ARRAY$65 ==.
      00028E 02r01rF3         [24] 1472 	ljmp	00101$
      000291                       1473 00103$:
                           000291  1474 	Seeprom$Write_DATAFLASH_ARRAY$66 ==.
                                   1475 ;	C:/BSP/MG51xC9AE_MG51xB9AE_Series/Library/StdDriver/src/eeprom.c:138: if(num)
      000291 90r01r0E         [24] 1476 	mov	dptr,#_Write_DATAFLASH_ARRAY_PARM_3
      000294 E0               [24] 1477 	movx	a,@dptr
      000295 FE               [12] 1478 	mov	r6,a
      000296 A3               [24] 1479 	inc	dptr
      000297 E0               [24] 1480 	movx	a,@dptr
      000298 90r01r0E         [24] 1481 	mov	dptr,#_Write_DATAFLASH_ARRAY_PARM_3
      00029B E0               [24] 1482 	movx	a,@dptr
      00029C F5 F0            [12] 1483 	mov	b,a
      00029E A3               [24] 1484 	inc	dptr
      00029F E0               [24] 1485 	movx	a,@dptr
      0002A0 45 F0            [12] 1486 	orl	a,b
      0002A2 60 2A            [24] 1487 	jz	00105$
                           0002A4  1488 	Seeprom$Write_DATAFLASH_ARRAY$67 ==.
                           0002A4  1489 	Seeprom$Write_DATAFLASH_ARRAY$68 ==.
                                   1490 ;	C:/BSP/MG51xC9AE_MG51xB9AE_Series/Library/StdDriver/src/eeprom.c:140: WriteDataToOnePage(u16_addr,pDat,num);
      0002A4 90r01r10         [24] 1491 	mov	dptr,#_Write_DATAFLASH_ARRAY_u16_addr_65536_165
      0002A7 E0               [24] 1492 	movx	a,@dptr
      0002A8 FC               [12] 1493 	mov	r4,a
      0002A9 A3               [24] 1494 	inc	dptr
      0002AA E0               [24] 1495 	movx	a,@dptr
      0002AB FD               [12] 1496 	mov	r5,a
      0002AC 90r01r0B         [24] 1497 	mov	dptr,#_Write_DATAFLASH_ARRAY_PARM_2
      0002AF E0               [24] 1498 	movx	a,@dptr
      0002B0 F9               [12] 1499 	mov	r1,a
      0002B1 A3               [24] 1500 	inc	dptr
      0002B2 E0               [24] 1501 	movx	a,@dptr
      0002B3 FA               [12] 1502 	mov	r2,a
      0002B4 A3               [24] 1503 	inc	dptr
      0002B5 E0               [24] 1504 	movx	a,@dptr
      0002B6 FB               [12] 1505 	mov	r3,a
      0002B7 90r01r13         [24] 1506 	mov	dptr,#_WriteDataToOnePage_PARM_2
      0002BA E9               [12] 1507 	mov	a,r1
      0002BB F0               [24] 1508 	movx	@dptr,a
      0002BC EA               [12] 1509 	mov	a,r2
      0002BD A3               [24] 1510 	inc	dptr
      0002BE F0               [24] 1511 	movx	@dptr,a
      0002BF EB               [12] 1512 	mov	a,r3
      0002C0 A3               [24] 1513 	inc	dptr
      0002C1 F0               [24] 1514 	movx	@dptr,a
      0002C2 90r01r16         [24] 1515 	mov	dptr,#_WriteDataToOnePage_PARM_3
      0002C5 EE               [12] 1516 	mov	a,r6
      0002C6 F0               [24] 1517 	movx	@dptr,a
      0002C7 8C 82            [24] 1518 	mov	dpl,r4
      0002C9 8D 83            [24] 1519 	mov	dph,r5
      0002CB 12r02rD5         [24] 1520 	lcall	_WriteDataToOnePage
                           0002CE  1521 	Seeprom$Write_DATAFLASH_ARRAY$69 ==.
      0002CE                       1522 00105$:
                           0002CE  1523 	Seeprom$Write_DATAFLASH_ARRAY$70 ==.
                                   1524 ;	C:/BSP/MG51xC9AE_MG51xB9AE_Series/Library/StdDriver/src/eeprom.c:142: return EECHECKFLAG;
      0002CE A2*00            [12] 1525 	mov	c,_EECHECKFLAG
      0002D0 E4               [12] 1526 	clr	a
      0002D1 33               [12] 1527 	rlc	a
                           0002D2  1528 	Seeprom$Write_DATAFLASH_ARRAY$71 ==.
                                   1529 ;	C:/BSP/MG51xC9AE_MG51xB9AE_Series/Library/StdDriver/src/eeprom.c:143: }
                           0002D2  1530 	Seeprom$Write_DATAFLASH_ARRAY$72 ==.
                           0002D2  1531 	XG$Write_DATAFLASH_ARRAY$0$0 ==.
      0002D2 F5 82            [12] 1532 	mov	dpl,a
      0002D4 22               [24] 1533 	ret
                           0002D5  1534 	Seeprom$Write_DATAFLASH_ARRAY$73 ==.
                                   1535 ;------------------------------------------------------------
                                   1536 ;Allocation info for local variables in function 'WriteDataToOnePage'
                                   1537 ;------------------------------------------------------------
                                   1538 ;pDat                      Allocated with name '_WriteDataToOnePage_PARM_2'
                                   1539 ;num                       Allocated with name '_WriteDataToOnePage_PARM_3'
                                   1540 ;u16_addr                  Allocated with name '_WriteDataToOnePage_u16_addr_65536_169'
                                   1541 ;pCode                     Allocated with name '_WriteDataToOnePage_pCode_65536_170'
                                   1542 ;i                         Allocated with name '_WriteDataToOnePage_i_65536_170'
                                   1543 ;offset                    Allocated with name '_WriteDataToOnePage_offset_65536_170'
                                   1544 ;checkdatatemp             Allocated with name '_WriteDataToOnePage_checkdatatemp_65536_170'
                                   1545 ;sloc0                     Allocated with name '_WriteDataToOnePage_sloc0_1_0'
                                   1546 ;sloc1                     Allocated with name '_WriteDataToOnePage_sloc1_1_0'
                                   1547 ;sloc2                     Allocated with name '_WriteDataToOnePage_sloc2_1_0'
                                   1548 ;------------------------------------------------------------
                           0002D5  1549 	Seeprom$WriteDataToOnePage$74 ==.
                                   1550 ;	C:/BSP/MG51xC9AE_MG51xB9AE_Series/Library/StdDriver/src/eeprom.c:146: uint8_t WriteDataToOnePage(uint16_t u16_addr,const uint8_t *pDat,uint8_t num)
                                   1551 ;	-----------------------------------------
                                   1552 ;	 function WriteDataToOnePage
                                   1553 ;	-----------------------------------------
      0002D5                       1554 _WriteDataToOnePage:
                           0002D5  1555 	Seeprom$WriteDataToOnePage$75 ==.
      0002D5 AF 83            [24] 1556 	mov	r7,dph
      0002D7 E5 82            [12] 1557 	mov	a,dpl
      0002D9 90r01r17         [24] 1558 	mov	dptr,#_WriteDataToOnePage_u16_addr_65536_169
      0002DC F0               [24] 1559 	movx	@dptr,a
      0002DD EF               [12] 1560 	mov	a,r7
      0002DE A3               [24] 1561 	inc	dptr
      0002DF F0               [24] 1562 	movx	@dptr,a
                           0002E0  1563 	Seeprom$WriteDataToOnePage$76 ==.
                                   1564 ;	C:/BSP/MG51xC9AE_MG51xB9AE_Series/Library/StdDriver/src/eeprom.c:158: set_CHPCON_IAPEN; 
                                   1565 ;	assignBit
      0002E0 A2 AF            [12] 1566 	mov	c,_EA
      0002E2 92*00            [24] 1567 	mov	_BIT_TMP,c
                                   1568 ;	assignBit
      0002E4 C2 AF            [12] 1569 	clr	_EA
      0002E6 75 C7 AA         [24] 1570 	mov	_TA,#0xaa
      0002E9 75 C7 55         [24] 1571 	mov	_TA,#0x55
      0002EC 43 9F 01         [24] 1572 	orl	_CHPCON,#0x01
                                   1573 ;	assignBit
      0002EF A2*00            [12] 1574 	mov	c,_BIT_TMP
      0002F1 92 AF            [24] 1575 	mov	_EA,c
                           0002F3  1576 	Seeprom$WriteDataToOnePage$77 ==.
                                   1577 ;	C:/BSP/MG51xC9AE_MG51xB9AE_Series/Library/StdDriver/src/eeprom.c:159: set_IAPUEN_APUEN;
                                   1578 ;	assignBit
      0002F3 A2 AF            [12] 1579 	mov	c,_EA
      0002F5 92*00            [24] 1580 	mov	_BIT_TMP,c
                                   1581 ;	assignBit
      0002F7 C2 AF            [12] 1582 	clr	_EA
      0002F9 75 C7 AA         [24] 1583 	mov	_TA,#0xaa
      0002FC 75 C7 55         [24] 1584 	mov	_TA,#0x55
      0002FF 43 A5 01         [24] 1585 	orl	_IAPUEN,#0x01
                                   1586 ;	assignBit
      000302 A2*00            [12] 1587 	mov	c,_BIT_TMP
      000304 92 AF            [24] 1588 	mov	_EA,c
                           000306  1589 	Seeprom$WriteDataToOnePage$78 ==.
                                   1590 ;	C:/BSP/MG51xC9AE_MG51xB9AE_Series/Library/StdDriver/src/eeprom.c:161: offset=u16_addr&0x007F;
      000306 90r01r17         [24] 1591 	mov	dptr,#_WriteDataToOnePage_u16_addr_65536_169
      000309 E0               [24] 1592 	movx	a,@dptr
      00030A FE               [12] 1593 	mov	r6,a
      00030B A3               [24] 1594 	inc	dptr
      00030C E0               [24] 1595 	movx	a,@dptr
      00030D FF               [12] 1596 	mov	r7,a
      00030E 74 7F            [12] 1597 	mov	a,#0x7f
      000310 5E               [12] 1598 	anl	a,r6
      000311 F5*00            [12] 1599 	mov	_WriteDataToOnePage_sloc0_1_0,a
                           000313  1600 	Seeprom$WriteDataToOnePage$79 ==.
                                   1601 ;	C:/BSP/MG51xC9AE_MG51xB9AE_Series/Library/StdDriver/src/eeprom.c:162: i = PAGE_SIZE - offset;
      000313 AE*00            [24] 1602 	mov	r6,_WriteDataToOnePage_sloc0_1_0
      000315 74 80            [12] 1603 	mov	a,#0x80
      000317 C3               [12] 1604 	clr	c
      000318 9E               [12] 1605 	subb	a,r6
      000319 FE               [12] 1606 	mov	r6,a
                           00031A  1607 	Seeprom$WriteDataToOnePage$80 ==.
                                   1608 ;	C:/BSP/MG51xC9AE_MG51xB9AE_Series/Library/StdDriver/src/eeprom.c:163: if(num>i)num=i;
      00031A 90r01r16         [24] 1609 	mov	dptr,#_WriteDataToOnePage_PARM_3
      00031D E0               [24] 1610 	movx	a,@dptr
      00031E FD               [12] 1611 	mov	r5,a
      00031F 8E 04            [24] 1612 	mov	ar4,r6
      000321 C3               [12] 1613 	clr	c
      000322 EC               [12] 1614 	mov	a,r4
      000323 9D               [12] 1615 	subb	a,r5
      000324 50 05            [24] 1616 	jnc	00102$
      000326 90r01r16         [24] 1617 	mov	dptr,#_WriteDataToOnePage_PARM_3
      000329 EE               [12] 1618 	mov	a,r6
      00032A F0               [24] 1619 	movx	@dptr,a
      00032B                       1620 00102$:
                           00032B  1621 	Seeprom$WriteDataToOnePage$81 ==.
                                   1622 ;	C:/BSP/MG51xC9AE_MG51xB9AE_Series/Library/StdDriver/src/eeprom.c:169: pCode = (uint8_t __code *)u16_addr;
      00032B 90r01r17         [24] 1623 	mov	dptr,#_WriteDataToOnePage_u16_addr_65536_169
      00032E E0               [24] 1624 	movx	a,@dptr
      00032F FD               [12] 1625 	mov	r5,a
      000330 A3               [24] 1626 	inc	dptr
      000331 E0               [24] 1627 	movx	a,@dptr
      000332 FE               [12] 1628 	mov	r6,a
                           000333  1629 	Seeprom$WriteDataToOnePage$82 ==.
                                   1630 ;	C:/BSP/MG51xC9AE_MG51xB9AE_Series/Library/StdDriver/src/eeprom.c:172: for(i=0;i<num;i++)
      000333 90r01r16         [24] 1631 	mov	dptr,#_WriteDataToOnePage_PARM_3
      000336 E0               [24] 1632 	movx	a,@dptr
      000337 FC               [12] 1633 	mov	r4,a
      000338 7B 00            [12] 1634 	mov	r3,#0x00
      00033A                       1635 00131$:
      00033A C3               [12] 1636 	clr	c
      00033B EB               [12] 1637 	mov	a,r3
      00033C 9C               [12] 1638 	subb	a,r4
      00033D 50 11            [24] 1639 	jnc	00105$
                           00033F  1640 	Seeprom$WriteDataToOnePage$83 ==.
                           00033F  1641 	Seeprom$WriteDataToOnePage$84 ==.
                                   1642 ;	C:/BSP/MG51xC9AE_MG51xB9AE_Series/Library/StdDriver/src/eeprom.c:174: if(pCode[i]!=0xFF)break;
      00033F EB               [12] 1643 	mov	a,r3
      000340 2D               [12] 1644 	add	a,r5
      000341 F5 82            [12] 1645 	mov	dpl,a
      000343 E4               [12] 1646 	clr	a
      000344 3E               [12] 1647 	addc	a,r6
      000345 F5 83            [12] 1648 	mov	dph,a
      000347 E4               [12] 1649 	clr	a
      000348 93               [24] 1650 	movc	a,@a+dptr
      000349 FA               [12] 1651 	mov	r2,a
      00034A BA FF 03         [24] 1652 	cjne	r2,#0xff,00105$
                           00034D  1653 	Seeprom$WriteDataToOnePage$85 ==.
                           00034D  1654 	Seeprom$WriteDataToOnePage$86 ==.
                                   1655 ;	C:/BSP/MG51xC9AE_MG51xB9AE_Series/Library/StdDriver/src/eeprom.c:172: for(i=0;i<num;i++)
      00034D 0B               [12] 1656 	inc	r3
      00034E 80 EA            [24] 1657 	sjmp	00131$
      000350                       1658 00105$:
                           000350  1659 	Seeprom$WriteDataToOnePage$87 ==.
                                   1660 ;	C:/BSP/MG51xC9AE_MG51xB9AE_Series/Library/StdDriver/src/eeprom.c:176: if(i==num)
      000350 90r01r16         [24] 1661 	mov	dptr,#_WriteDataToOnePage_PARM_3
      000353 E0               [24] 1662 	movx	a,@dptr
      000354 FC               [12] 1663 	mov	r4,a
      000355 EB               [12] 1664 	mov	a,r3
      000356 B5 04 02         [24] 1665 	cjne	a,ar4,00243$
      000359 80 03            [24] 1666 	sjmp	00244$
      00035B                       1667 00243$:
      00035B 02r04r41         [24] 1668 	ljmp	00114$
      00035E                       1669 00244$:
                           00035E  1670 	Seeprom$WriteDataToOnePage$88 ==.
                           00035E  1671 	Seeprom$WriteDataToOnePage$89 ==.
                                   1672 ;	C:/BSP/MG51xC9AE_MG51xB9AE_Series/Library/StdDriver/src/eeprom.c:179: IAPAL = u16_addr;
      00035E 90r01r17         [24] 1673 	mov	dptr,#_WriteDataToOnePage_u16_addr_65536_169
      000361 E0               [24] 1674 	movx	a,@dptr
      000362 FA               [12] 1675 	mov	r2,a
      000363 A3               [24] 1676 	inc	dptr
      000364 E0               [24] 1677 	movx	a,@dptr
      000365 FB               [12] 1678 	mov	r3,a
      000366 8A A6            [24] 1679 	mov	_IAPAL,r2
                           000368  1680 	Seeprom$WriteDataToOnePage$90 ==.
                                   1681 ;	C:/BSP/MG51xC9AE_MG51xB9AE_Series/Library/StdDriver/src/eeprom.c:180: IAPAH = u16_addr>>8;
      000368 8B A7            [24] 1682 	mov	_IAPAH,r3
                           00036A  1683 	Seeprom$WriteDataToOnePage$91 ==.
                           00036A  1684 	Seeprom$WriteDataToOnePage$92 ==.
                                   1685 ;	C:/BSP/MG51xC9AE_MG51xB9AE_Series/Library/StdDriver/src/eeprom.c:181: for(i=0;i<num;i++)
      00036A 90r01r13         [24] 1686 	mov	dptr,#_WriteDataToOnePage_PARM_2
      00036D E0               [24] 1687 	movx	a,@dptr
      00036E F5*01            [12] 1688 	mov	_WriteDataToOnePage_sloc1_1_0,a
      000370 A3               [24] 1689 	inc	dptr
      000371 E0               [24] 1690 	movx	a,@dptr
      000372 F5*02            [12] 1691 	mov	(_WriteDataToOnePage_sloc1_1_0 + 1),a
      000374 A3               [24] 1692 	inc	dptr
      000375 E0               [24] 1693 	movx	a,@dptr
      000376 F5*03            [12] 1694 	mov	(_WriteDataToOnePage_sloc1_1_0 + 2),a
                           000378  1695 	Seeprom$WriteDataToOnePage$93 ==.
      000378 78 00            [12] 1696 	mov	r0,#0x00
      00037A                       1697 00134$:
      00037A C3               [12] 1698 	clr	c
      00037B E8               [12] 1699 	mov	a,r0
      00037C 9C               [12] 1700 	subb	a,r4
      00037D 50 71            [24] 1701 	jnc	00160$
                           00037F  1702 	Seeprom$WriteDataToOnePage$94 ==.
                                   1703 ;	C:/BSP/MG51xC9AE_MG51xB9AE_Series/Library/StdDriver/src/eeprom.c:183: IAPCN =BYTE_PROGRAM_APROM;
      00037F C0 04            [24] 1704 	push	ar4
      000381 75 AF 21         [24] 1705 	mov	_IAPCN,#0x21
                           000384  1706 	Seeprom$WriteDataToOnePage$95 ==.
                                   1707 ;	C:/BSP/MG51xC9AE_MG51xB9AE_Series/Library/StdDriver/src/eeprom.c:184: IAPFD = pDat[i];
      000384 E8               [12] 1708 	mov	a,r0
      000385 25*01            [12] 1709 	add	a,_WriteDataToOnePage_sloc1_1_0
      000387 FB               [12] 1710 	mov	r3,a
      000388 E4               [12] 1711 	clr	a
      000389 35*02            [12] 1712 	addc	a,(_WriteDataToOnePage_sloc1_1_0 + 1)
      00038B FC               [12] 1713 	mov	r4,a
      00038C AF*03            [24] 1714 	mov	r7,(_WriteDataToOnePage_sloc1_1_0 + 2)
      00038E 8B 82            [24] 1715 	mov	dpl,r3
      000390 8C 83            [24] 1716 	mov	dph,r4
      000392 8F F0            [24] 1717 	mov	b,r7
      000394 12r00r00         [24] 1718 	lcall	__gptrget
      000397 F5 AE            [12] 1719 	mov	_IAPFD,a
                           000399  1720 	Seeprom$WriteDataToOnePage$96 ==.
                                   1721 ;	C:/BSP/MG51xC9AE_MG51xB9AE_Series/Library/StdDriver/src/eeprom.c:185: set_IAPTRG_IAPGO;
                                   1722 ;	assignBit
      000399 A2 AF            [12] 1723 	mov	c,_EA
      00039B 92*00            [24] 1724 	mov	_BIT_TMP,c
                                   1725 ;	assignBit
      00039D C2 AF            [12] 1726 	clr	_EA
      00039F 75 C7 AA         [24] 1727 	mov	_TA,#0xaa
      0003A2 75 C7 55         [24] 1728 	mov	_TA,#0x55
      0003A5 43 A4 01         [24] 1729 	orl	_IAPTRG,#0x01
                                   1730 ;	assignBit
      0003A8 A2*00            [12] 1731 	mov	c,_BIT_TMP
      0003AA 92 AF            [24] 1732 	mov	_EA,c
                           0003AC  1733 	Seeprom$WriteDataToOnePage$97 ==.
                                   1734 ;	C:/BSP/MG51xC9AE_MG51xB9AE_Series/Library/StdDriver/src/eeprom.c:186: IAPCN =BYTE_PROGRAM_APROM;
      0003AC 75 AF 21         [24] 1735 	mov	_IAPCN,#0x21
                           0003AF  1736 	Seeprom$WriteDataToOnePage$98 ==.
                                   1737 ;	C:/BSP/MG51xC9AE_MG51xB9AE_Series/Library/StdDriver/src/eeprom.c:187: IAPFD = 0xFF;
      0003AF 75 AE FF         [24] 1738 	mov	_IAPFD,#0xff
                           0003B2  1739 	Seeprom$WriteDataToOnePage$99 ==.
                                   1740 ;	C:/BSP/MG51xC9AE_MG51xB9AE_Series/Library/StdDriver/src/eeprom.c:188: set_IAPTRG_IAPGO;
                                   1741 ;	assignBit
      0003B2 A2 AF            [12] 1742 	mov	c,_EA
      0003B4 92*00            [24] 1743 	mov	_BIT_TMP,c
                                   1744 ;	assignBit
      0003B6 C2 AF            [12] 1745 	clr	_EA
      0003B8 75 C7 AA         [24] 1746 	mov	_TA,#0xaa
      0003BB 75 C7 55         [24] 1747 	mov	_TA,#0x55
      0003BE 43 A4 01         [24] 1748 	orl	_IAPTRG,#0x01
                                   1749 ;	assignBit
      0003C1 A2*00            [12] 1750 	mov	c,_BIT_TMP
      0003C3 92 AF            [24] 1751 	mov	_EA,c
                           0003C5  1752 	Seeprom$WriteDataToOnePage$100 ==.
                                   1753 ;	C:/BSP/MG51xC9AE_MG51xB9AE_Series/Library/StdDriver/src/eeprom.c:189: checkdatatemp = IAPFD;
      0003C5 90r01r19         [24] 1754 	mov	dptr,#_WriteDataToOnePage_checkdatatemp_65536_170
      0003C8 E5 AE            [12] 1755 	mov	a,_IAPFD
      0003CA F0               [24] 1756 	movx	@dptr,a
                           0003CB  1757 	Seeprom$WriteDataToOnePage$101 ==.
                                   1758 ;	C:/BSP/MG51xC9AE_MG51xB9AE_Series/Library/StdDriver/src/eeprom.c:190: if (checkdatatemp!=pDat[i])
      0003CB 8B 82            [24] 1759 	mov	dpl,r3
      0003CD 8C 83            [24] 1760 	mov	dph,r4
      0003CF 8F F0            [24] 1761 	mov	b,r7
      0003D1 12r00r00         [24] 1762 	lcall	__gptrget
      0003D4 FB               [12] 1763 	mov	r3,a
      0003D5 90r01r19         [24] 1764 	mov	dptr,#_WriteDataToOnePage_checkdatatemp_65536_170
      0003D8 E0               [24] 1765 	movx	a,@dptr
      0003D9 FF               [12] 1766 	mov	r7,a
      0003DA B5 03 04         [24] 1767 	cjne	a,ar3,00246$
      0003DD D0 04            [24] 1768 	pop	ar4
      0003DF 80 07            [24] 1769 	sjmp	00107$
      0003E1                       1770 00246$:
      0003E1 D0 04            [24] 1771 	pop	ar4
                           0003E3  1772 	Seeprom$WriteDataToOnePage$102 ==.
                           0003E3  1773 	Seeprom$WriteDataToOnePage$103 ==.
                                   1774 ;	C:/BSP/MG51xC9AE_MG51xB9AE_Series/Library/StdDriver/src/eeprom.c:192: EECHECKFLAG = 1; 
                                   1775 ;	assignBit
      0003E3 D2*00            [12] 1776 	setb	_EECHECKFLAG
                           0003E5  1777 	Seeprom$WriteDataToOnePage$104 ==.
                                   1778 ;	C:/BSP/MG51xC9AE_MG51xB9AE_Series/Library/StdDriver/src/eeprom.c:193: goto WriteDataEnd;
      0003E5 02r05r74         [24] 1779 	ljmp	00129$
                           0003E8  1780 	Seeprom$WriteDataToOnePage$105 ==.
      0003E8                       1781 00107$:
                           0003E8  1782 	Seeprom$WriteDataToOnePage$106 ==.
                                   1783 ;	C:/BSP/MG51xC9AE_MG51xB9AE_Series/Library/StdDriver/src/eeprom.c:195: IAPAL++;
      0003E8 E5 A6            [12] 1784 	mov	a,_IAPAL
      0003EA 04               [12] 1785 	inc	a
      0003EB F5 A6            [12] 1786 	mov	_IAPAL,a
                           0003ED  1787 	Seeprom$WriteDataToOnePage$107 ==.
                           0003ED  1788 	Seeprom$WriteDataToOnePage$108 ==.
                                   1789 ;	C:/BSP/MG51xC9AE_MG51xB9AE_Series/Library/StdDriver/src/eeprom.c:181: for(i=0;i<num;i++)
      0003ED 08               [12] 1790 	inc	r0
                           0003EE  1791 	Seeprom$WriteDataToOnePage$109 ==.
                                   1792 ;	C:/BSP/MG51xC9AE_MG51xB9AE_Series/Library/StdDriver/src/eeprom.c:197: for(i=0;i<num;i++)
      0003EE 80 8A            [24] 1793 	sjmp	00134$
      0003F0                       1794 00160$:
                           0003F0  1795 	Seeprom$WriteDataToOnePage$110 ==.
      0003F0 85*01*04         [24] 1796 	mov	_WriteDataToOnePage_sloc2_1_0,_WriteDataToOnePage_sloc1_1_0
      0003F3 85*02*05         [24] 1797 	mov	(_WriteDataToOnePage_sloc2_1_0 + 1),(_WriteDataToOnePage_sloc1_1_0 + 1)
      0003F6 85*03*06         [24] 1798 	mov	(_WriteDataToOnePage_sloc2_1_0 + 2),(_WriteDataToOnePage_sloc1_1_0 + 2)
                           0003F9  1799 	Seeprom$WriteDataToOnePage$111 ==.
      0003F9 90r01r16         [24] 1800 	mov	dptr,#_WriteDataToOnePage_PARM_3
      0003FC E0               [24] 1801 	movx	a,@dptr
      0003FD FA               [12] 1802 	mov	r2,a
      0003FE 79 00            [12] 1803 	mov	r1,#0x00
      000400                       1804 00137$:
      000400 C3               [12] 1805 	clr	c
      000401 E9               [12] 1806 	mov	a,r1
      000402 9A               [12] 1807 	subb	a,r2
      000403 50 30            [24] 1808 	jnc	00111$
                           000405  1809 	Seeprom$WriteDataToOnePage$112 ==.
                                   1810 ;	C:/BSP/MG51xC9AE_MG51xB9AE_Series/Library/StdDriver/src/eeprom.c:199: if(pCode[i]!=pDat[i])break;
      000405 C0 02            [24] 1811 	push	ar2
      000407 E9               [12] 1812 	mov	a,r1
      000408 2D               [12] 1813 	add	a,r5
      000409 F5 82            [12] 1814 	mov	dpl,a
      00040B E4               [12] 1815 	clr	a
      00040C 3E               [12] 1816 	addc	a,r6
      00040D F5 83            [12] 1817 	mov	dph,a
      00040F E4               [12] 1818 	clr	a
      000410 93               [24] 1819 	movc	a,@a+dptr
      000411 F5*01            [12] 1820 	mov	_WriteDataToOnePage_sloc1_1_0,a
      000413 E9               [12] 1821 	mov	a,r1
      000414 25*04            [12] 1822 	add	a,_WriteDataToOnePage_sloc2_1_0
      000416 F8               [12] 1823 	mov	r0,a
      000417 E4               [12] 1824 	clr	a
      000418 35*05            [12] 1825 	addc	a,(_WriteDataToOnePage_sloc2_1_0 + 1)
      00041A FA               [12] 1826 	mov	r2,a
      00041B AF*06            [24] 1827 	mov	r7,(_WriteDataToOnePage_sloc2_1_0 + 2)
      00041D 88 82            [24] 1828 	mov	dpl,r0
      00041F 8A 83            [24] 1829 	mov	dph,r2
      000421 8F F0            [24] 1830 	mov	b,r7
      000423 12r00r00         [24] 1831 	lcall	__gptrget
      000426 F8               [12] 1832 	mov	r0,a
      000427 B5*01 02         [24] 1833 	cjne	a,_WriteDataToOnePage_sloc1_1_0,00248$
      00042A 80 04            [24] 1834 	sjmp	00249$
      00042C                       1835 00248$:
      00042C D0 02            [24] 1836 	pop	ar2
      00042E 80 05            [24] 1837 	sjmp	00111$
      000430                       1838 00249$:
      000430 D0 02            [24] 1839 	pop	ar2
                           000432  1840 	Seeprom$WriteDataToOnePage$113 ==.
                                   1841 ;	C:/BSP/MG51xC9AE_MG51xB9AE_Series/Library/StdDriver/src/eeprom.c:197: for(i=0;i<num;i++)
      000432 09               [12] 1842 	inc	r1
      000433 80 CB            [24] 1843 	sjmp	00137$
      000435                       1844 00111$:
                           000435  1845 	Seeprom$WriteDataToOnePage$114 ==.
                                   1846 ;	C:/BSP/MG51xC9AE_MG51xB9AE_Series/Library/StdDriver/src/eeprom.c:201: if(i!=num) goto WriteDataToPage20;
      000435 90r01r16         [24] 1847 	mov	dptr,#_WriteDataToOnePage_PARM_3
      000438 E0               [24] 1848 	movx	a,@dptr
      000439 FF               [12] 1849 	mov	r7,a
      00043A E9               [12] 1850 	mov	a,r1
      00043B B5 07 03         [24] 1851 	cjne	a,ar7,00250$
      00043E 02r05r74         [24] 1852 	ljmp	00129$
      000441                       1853 00250$:
                           000441  1854 	Seeprom$WriteDataToOnePage$115 ==.
                           000441  1855 	Seeprom$WriteDataToOnePage$116 ==.
                                   1856 ;	C:/BSP/MG51xC9AE_MG51xB9AE_Series/Library/StdDriver/src/eeprom.c:205: WriteDataToPage20:
      000441                       1857 00114$:
                           000441  1858 	Seeprom$WriteDataToOnePage$117 ==.
                                   1859 ;	C:/BSP/MG51xC9AE_MG51xB9AE_Series/Library/StdDriver/src/eeprom.c:211: pCode = (uint8_t __code *)(u16_addr&0xff80);
      000441 90r01r17         [24] 1860 	mov	dptr,#_WriteDataToOnePage_u16_addr_65536_169
      000444 E0               [24] 1861 	movx	a,@dptr
      000445 FE               [12] 1862 	mov	r6,a
      000446 A3               [24] 1863 	inc	dptr
      000447 E0               [24] 1864 	movx	a,@dptr
      000448 FF               [12] 1865 	mov	r7,a
      000449 53 06 80         [24] 1866 	anl	ar6,#0x80
                           00044C  1867 	Seeprom$WriteDataToOnePage$118 ==.
                           00044C  1868 	Seeprom$WriteDataToOnePage$119 ==.
                                   1869 ;	C:/BSP/MG51xC9AE_MG51xB9AE_Series/Library/StdDriver/src/eeprom.c:214: for(i=0;i<128;i++)
                           00044C  1870 	Seeprom$WriteDataToOnePage$120 ==.
      00044C 7D 00            [12] 1871 	mov	r5,#0x00
      00044E                       1872 00139$:
                           00044E  1873 	Seeprom$WriteDataToOnePage$121 ==.
                                   1874 ;	C:/BSP/MG51xC9AE_MG51xB9AE_Series/Library/StdDriver/src/eeprom.c:216: xd_tmp[i] = pCode[i];
      00044E ED               [12] 1875 	mov	a,r5
      00044F 24r80            [12] 1876 	add	a,#_xd_tmp
      000451 FB               [12] 1877 	mov	r3,a
      000452 E4               [12] 1878 	clr	a
      000453 34s00            [12] 1879 	addc	a,#(_xd_tmp >> 8)
      000455 FC               [12] 1880 	mov	r4,a
      000456 ED               [12] 1881 	mov	a,r5
      000457 2E               [12] 1882 	add	a,r6
      000458 F5 82            [12] 1883 	mov	dpl,a
      00045A E4               [12] 1884 	clr	a
      00045B 3F               [12] 1885 	addc	a,r7
      00045C F5 83            [12] 1886 	mov	dph,a
      00045E E4               [12] 1887 	clr	a
      00045F 93               [24] 1888 	movc	a,@a+dptr
      000460 8B 82            [24] 1889 	mov	dpl,r3
      000462 8C 83            [24] 1890 	mov	dph,r4
      000464 F0               [24] 1891 	movx	@dptr,a
                           000465  1892 	Seeprom$WriteDataToOnePage$122 ==.
                                   1893 ;	C:/BSP/MG51xC9AE_MG51xB9AE_Series/Library/StdDriver/src/eeprom.c:214: for(i=0;i<128;i++)
      000465 0D               [12] 1894 	inc	r5
      000466 BD 80 00         [24] 1895 	cjne	r5,#0x80,00251$
      000469                       1896 00251$:
      000469 40 E3            [24] 1897 	jc	00139$
                           00046B  1898 	Seeprom$WriteDataToOnePage$123 ==.
                           00046B  1899 	Seeprom$WriteDataToOnePage$124 ==.
                                   1900 ;	C:/BSP/MG51xC9AE_MG51xB9AE_Series/Library/StdDriver/src/eeprom.c:218: for(i=0;i<num;i++)
      00046B 90r01r13         [24] 1901 	mov	dptr,#_WriteDataToOnePage_PARM_2
      00046E E0               [24] 1902 	movx	a,@dptr
      00046F F5*01            [12] 1903 	mov	_WriteDataToOnePage_sloc1_1_0,a
      000471 A3               [24] 1904 	inc	dptr
      000472 E0               [24] 1905 	movx	a,@dptr
      000473 F5*02            [12] 1906 	mov	(_WriteDataToOnePage_sloc1_1_0 + 1),a
      000475 A3               [24] 1907 	inc	dptr
      000476 E0               [24] 1908 	movx	a,@dptr
      000477 F5*03            [12] 1909 	mov	(_WriteDataToOnePage_sloc1_1_0 + 2),a
                           000479  1910 	Seeprom$WriteDataToOnePage$125 ==.
      000479 90r01r16         [24] 1911 	mov	dptr,#_WriteDataToOnePage_PARM_3
      00047C E0               [24] 1912 	movx	a,@dptr
      00047D FA               [12] 1913 	mov	r2,a
      00047E 79 00            [12] 1914 	mov	r1,#0x00
      000480                       1915 00142$:
      000480 C3               [12] 1916 	clr	c
      000481 E9               [12] 1917 	mov	a,r1
      000482 9A               [12] 1918 	subb	a,r2
      000483 50 3E            [24] 1919 	jnc	00170$
                           000485  1920 	Seeprom$WriteDataToOnePage$126 ==.
                                   1921 ;	C:/BSP/MG51xC9AE_MG51xB9AE_Series/Library/StdDriver/src/eeprom.c:220: xd_tmp[offset+i] = pDat[i];
      000485 C0 02            [24] 1922 	push	ar2
      000487 85*00*04         [24] 1923 	mov	_WriteDataToOnePage_sloc2_1_0,_WriteDataToOnePage_sloc0_1_0
      00048A 75*05 00         [24] 1924 	mov	(_WriteDataToOnePage_sloc2_1_0 + 1),#0x00
      00048D 89 00            [24] 1925 	mov	ar0,r1
      00048F 7A 00            [12] 1926 	mov	r2,#0x00
      000491 E8               [12] 1927 	mov	a,r0
      000492 25*04            [12] 1928 	add	a,_WriteDataToOnePage_sloc2_1_0
      000494 F8               [12] 1929 	mov	r0,a
      000495 EA               [12] 1930 	mov	a,r2
      000496 35*05            [12] 1931 	addc	a,(_WriteDataToOnePage_sloc2_1_0 + 1)
      000498 FA               [12] 1932 	mov	r2,a
      000499 E8               [12] 1933 	mov	a,r0
      00049A 24r80            [12] 1934 	add	a,#_xd_tmp
      00049C F5*04            [12] 1935 	mov	_WriteDataToOnePage_sloc2_1_0,a
      00049E EA               [12] 1936 	mov	a,r2
      00049F 34s00            [12] 1937 	addc	a,#(_xd_tmp >> 8)
      0004A1 F5*05            [12] 1938 	mov	(_WriteDataToOnePage_sloc2_1_0 + 1),a
      0004A3 E9               [12] 1939 	mov	a,r1
      0004A4 25*01            [12] 1940 	add	a,_WriteDataToOnePage_sloc1_1_0
      0004A6 F8               [12] 1941 	mov	r0,a
      0004A7 E4               [12] 1942 	clr	a
      0004A8 35*02            [12] 1943 	addc	a,(_WriteDataToOnePage_sloc1_1_0 + 1)
      0004AA FA               [12] 1944 	mov	r2,a
      0004AB AD*03            [24] 1945 	mov	r5,(_WriteDataToOnePage_sloc1_1_0 + 2)
      0004AD 88 82            [24] 1946 	mov	dpl,r0
      0004AF 8A 83            [24] 1947 	mov	dph,r2
      0004B1 8D F0            [24] 1948 	mov	b,r5
      0004B3 12r00r00         [24] 1949 	lcall	__gptrget
      0004B6 F8               [12] 1950 	mov	r0,a
      0004B7 85*04 82         [24] 1951 	mov	dpl,_WriteDataToOnePage_sloc2_1_0
      0004BA 85*05 83         [24] 1952 	mov	dph,(_WriteDataToOnePage_sloc2_1_0 + 1)
      0004BD F0               [24] 1953 	movx	@dptr,a
                           0004BE  1954 	Seeprom$WriteDataToOnePage$127 ==.
                                   1955 ;	C:/BSP/MG51xC9AE_MG51xB9AE_Series/Library/StdDriver/src/eeprom.c:218: for(i=0;i<num;i++)
      0004BE 09               [12] 1956 	inc	r1
      0004BF D0 02            [24] 1957 	pop	ar2
                           0004C1  1958 	Seeprom$WriteDataToOnePage$128 ==.
                                   1959 ;	C:/BSP/MG51xC9AE_MG51xB9AE_Series/Library/StdDriver/src/eeprom.c:222: do
      0004C1 80 BD            [24] 1960 	sjmp	00142$
      0004C3                       1961 00170$:
                           0004C3  1962 	Seeprom$WriteDataToOnePage$129 ==.
      0004C3 90r01r17         [24] 1963 	mov	dptr,#_WriteDataToOnePage_u16_addr_65536_169
      0004C6 E0               [24] 1964 	movx	a,@dptr
      0004C7 FC               [12] 1965 	mov	r4,a
      0004C8 A3               [24] 1966 	inc	dptr
      0004C9 E0               [24] 1967 	movx	a,@dptr
      0004CA FD               [12] 1968 	mov	r5,a
      0004CB FB               [12] 1969 	mov	r3,a
                           0004CC  1970 	Seeprom$WriteDataToOnePage$130 ==.
      0004CC                       1971 00123$:
                           0004CC  1972 	Seeprom$WriteDataToOnePage$131 ==.
                                   1973 ;	C:/BSP/MG51xC9AE_MG51xB9AE_Series/Library/StdDriver/src/eeprom.c:224: IAPAL = (u16_addr&0xff80);
      0004CC 8C 02            [24] 1974 	mov	ar2,r4
      0004CE 74 80            [12] 1975 	mov	a,#0x80
      0004D0 5A               [12] 1976 	anl	a,r2
      0004D1 F5 A6            [12] 1977 	mov	_IAPAL,a
                           0004D3  1978 	Seeprom$WriteDataToOnePage$132 ==.
                                   1979 ;	C:/BSP/MG51xC9AE_MG51xB9AE_Series/Library/StdDriver/src/eeprom.c:225: IAPAH = u16_addr>>8;
      0004D3 8B A7            [24] 1980 	mov	_IAPAH,r3
                           0004D5  1981 	Seeprom$WriteDataToOnePage$133 ==.
                                   1982 ;	C:/BSP/MG51xC9AE_MG51xB9AE_Series/Library/StdDriver/src/eeprom.c:226: IAPCN = PAGE_ERASE_APROM;
      0004D5 75 AF 22         [24] 1983 	mov	_IAPCN,#0x22
                           0004D8  1984 	Seeprom$WriteDataToOnePage$134 ==.
                                   1985 ;	C:/BSP/MG51xC9AE_MG51xB9AE_Series/Library/StdDriver/src/eeprom.c:227: IAPFD = 0xFF;  
      0004D8 75 AE FF         [24] 1986 	mov	_IAPFD,#0xff
                           0004DB  1987 	Seeprom$WriteDataToOnePage$135 ==.
                                   1988 ;	C:/BSP/MG51xC9AE_MG51xB9AE_Series/Library/StdDriver/src/eeprom.c:228: set_IAPTRG_IAPGO; 
                                   1989 ;	assignBit
      0004DB A2 AF            [12] 1990 	mov	c,_EA
      0004DD 92*00            [24] 1991 	mov	_BIT_TMP,c
                                   1992 ;	assignBit
      0004DF C2 AF            [12] 1993 	clr	_EA
      0004E1 75 C7 AA         [24] 1994 	mov	_TA,#0xaa
      0004E4 75 C7 55         [24] 1995 	mov	_TA,#0x55
      0004E7 43 A4 01         [24] 1996 	orl	_IAPTRG,#0x01
                                   1997 ;	assignBit
      0004EA A2*00            [12] 1998 	mov	c,_BIT_TMP
      0004EC 92 AF            [24] 1999 	mov	_EA,c
                           0004EE  2000 	Seeprom$WriteDataToOnePage$136 ==.
                           0004EE  2001 	Seeprom$WriteDataToOnePage$137 ==.
                                   2002 ;	C:/BSP/MG51xC9AE_MG51xB9AE_Series/Library/StdDriver/src/eeprom.c:229: for(i=0;i<128;i++)
      0004EE 7A 00            [12] 2003 	mov	r2,#0x00
      0004F0                       2004 00144$:
                           0004F0  2005 	Seeprom$WriteDataToOnePage$138 ==.
                           0004F0  2006 	Seeprom$WriteDataToOnePage$139 ==.
                                   2007 ;	C:/BSP/MG51xC9AE_MG51xB9AE_Series/Library/StdDriver/src/eeprom.c:231: IAPCN =BYTE_PROGRAM_APROM;
      0004F0 75 AF 21         [24] 2008 	mov	_IAPCN,#0x21
                           0004F3  2009 	Seeprom$WriteDataToOnePage$140 ==.
                                   2010 ;	C:/BSP/MG51xC9AE_MG51xB9AE_Series/Library/StdDriver/src/eeprom.c:232: IAPFD = xd_tmp[i];
      0004F3 EA               [12] 2011 	mov	a,r2
      0004F4 24r80            [12] 2012 	add	a,#_xd_tmp
      0004F6 F5 82            [12] 2013 	mov	dpl,a
      0004F8 E4               [12] 2014 	clr	a
      0004F9 34s00            [12] 2015 	addc	a,#(_xd_tmp >> 8)
      0004FB F5 83            [12] 2016 	mov	dph,a
      0004FD E0               [24] 2017 	movx	a,@dptr
      0004FE F9               [12] 2018 	mov	r1,a
      0004FF 89 AE            [24] 2019 	mov	_IAPFD,r1
                           000501  2020 	Seeprom$WriteDataToOnePage$141 ==.
                                   2021 ;	C:/BSP/MG51xC9AE_MG51xB9AE_Series/Library/StdDriver/src/eeprom.c:233: set_IAPTRG_IAPGO;
                                   2022 ;	assignBit
      000501 A2 AF            [12] 2023 	mov	c,_EA
      000503 92*00            [24] 2024 	mov	_BIT_TMP,c
                                   2025 ;	assignBit
      000505 C2 AF            [12] 2026 	clr	_EA
      000507 75 C7 AA         [24] 2027 	mov	_TA,#0xaa
      00050A 75 C7 55         [24] 2028 	mov	_TA,#0x55
      00050D 43 A4 01         [24] 2029 	orl	_IAPTRG,#0x01
                                   2030 ;	assignBit
      000510 A2*00            [12] 2031 	mov	c,_BIT_TMP
      000512 92 AF            [24] 2032 	mov	_EA,c
                           000514  2033 	Seeprom$WriteDataToOnePage$142 ==.
                                   2034 ;	C:/BSP/MG51xC9AE_MG51xB9AE_Series/Library/StdDriver/src/eeprom.c:234: IAPCN =BYTE_READ_APROM;
      000514 75 AF 00         [24] 2035 	mov	_IAPCN,#0x00
                           000517  2036 	Seeprom$WriteDataToOnePage$143 ==.
                                   2037 ;	C:/BSP/MG51xC9AE_MG51xB9AE_Series/Library/StdDriver/src/eeprom.c:235: IAPFD = 0xFF;
      000517 75 AE FF         [24] 2038 	mov	_IAPFD,#0xff
                           00051A  2039 	Seeprom$WriteDataToOnePage$144 ==.
                                   2040 ;	C:/BSP/MG51xC9AE_MG51xB9AE_Series/Library/StdDriver/src/eeprom.c:236: set_IAPTRG_IAPGO;
                                   2041 ;	assignBit
      00051A A2 AF            [12] 2042 	mov	c,_EA
      00051C 92*00            [24] 2043 	mov	_BIT_TMP,c
                                   2044 ;	assignBit
      00051E C2 AF            [12] 2045 	clr	_EA
      000520 75 C7 AA         [24] 2046 	mov	_TA,#0xaa
      000523 75 C7 55         [24] 2047 	mov	_TA,#0x55
      000526 43 A4 01         [24] 2048 	orl	_IAPTRG,#0x01
                                   2049 ;	assignBit
      000529 A2*00            [12] 2050 	mov	c,_BIT_TMP
      00052B 92 AF            [24] 2051 	mov	_EA,c
                           00052D  2052 	Seeprom$WriteDataToOnePage$145 ==.
                                   2053 ;	C:/BSP/MG51xC9AE_MG51xB9AE_Series/Library/StdDriver/src/eeprom.c:237: checkdatatemp = IAPFD;
      00052D 90r01r19         [24] 2054 	mov	dptr,#_WriteDataToOnePage_checkdatatemp_65536_170
      000530 E5 AE            [12] 2055 	mov	a,_IAPFD
      000532 F0               [24] 2056 	movx	@dptr,a
                           000533  2057 	Seeprom$WriteDataToOnePage$146 ==.
                                   2058 ;	C:/BSP/MG51xC9AE_MG51xB9AE_Series/Library/StdDriver/src/eeprom.c:238: if (checkdatatemp!=xd_tmp[i])
      000533 E0               [24] 2059 	movx	a,@dptr
      000534 F8               [12] 2060 	mov	r0,a
      000535 B5 01 02         [24] 2061 	cjne	a,ar1,00254$
      000538 80 04            [24] 2062 	sjmp	00118$
      00053A                       2063 00254$:
                           00053A  2064 	Seeprom$WriteDataToOnePage$147 ==.
                           00053A  2065 	Seeprom$WriteDataToOnePage$148 ==.
                                   2066 ;	C:/BSP/MG51xC9AE_MG51xB9AE_Series/Library/StdDriver/src/eeprom.c:240: EECHECKFLAG = 1; 
                                   2067 ;	assignBit
      00053A D2*00            [12] 2068 	setb	_EECHECKFLAG
                           00053C  2069 	Seeprom$WriteDataToOnePage$149 ==.
                                   2070 ;	C:/BSP/MG51xC9AE_MG51xB9AE_Series/Library/StdDriver/src/eeprom.c:241: goto WriteDataEnd;
                           00053C  2071 	Seeprom$WriteDataToOnePage$150 ==.
      00053C 80 36            [24] 2072 	sjmp	00129$
      00053E                       2073 00118$:
                           00053E  2074 	Seeprom$WriteDataToOnePage$151 ==.
                                   2075 ;	C:/BSP/MG51xC9AE_MG51xB9AE_Series/Library/StdDriver/src/eeprom.c:243: IAPAL++;
      00053E E5 A6            [12] 2076 	mov	a,_IAPAL
      000540 04               [12] 2077 	inc	a
      000541 F5 A6            [12] 2078 	mov	_IAPAL,a
                           000543  2079 	Seeprom$WriteDataToOnePage$152 ==.
                           000543  2080 	Seeprom$WriteDataToOnePage$153 ==.
                                   2081 ;	C:/BSP/MG51xC9AE_MG51xB9AE_Series/Library/StdDriver/src/eeprom.c:229: for(i=0;i<128;i++)
      000543 0A               [12] 2082 	inc	r2
      000544 BA 80 00         [24] 2083 	cjne	r2,#0x80,00255$
      000547                       2084 00255$:
      000547 40 A7            [24] 2085 	jc	00144$
                           000549  2086 	Seeprom$WriteDataToOnePage$154 ==.
                                   2087 ;	C:/BSP/MG51xC9AE_MG51xB9AE_Series/Library/StdDriver/src/eeprom.c:245: for(i=0;i<128;i++)
      000549 7A 00            [12] 2088 	mov	r2,#0x00
      00054B                       2089 00146$:
                           00054B  2090 	Seeprom$WriteDataToOnePage$155 ==.
                           00054B  2091 	Seeprom$WriteDataToOnePage$156 ==.
                                   2092 ;	C:/BSP/MG51xC9AE_MG51xB9AE_Series/Library/StdDriver/src/eeprom.c:247: if(pCode[i]!=xd_tmp[i])break;
      00054B EA               [12] 2093 	mov	a,r2
      00054C 2E               [12] 2094 	add	a,r6
      00054D F5 82            [12] 2095 	mov	dpl,a
      00054F E4               [12] 2096 	clr	a
      000550 3F               [12] 2097 	addc	a,r7
      000551 F5 83            [12] 2098 	mov	dph,a
      000553 E4               [12] 2099 	clr	a
      000554 93               [24] 2100 	movc	a,@a+dptr
      000555 F9               [12] 2101 	mov	r1,a
      000556 EA               [12] 2102 	mov	a,r2
      000557 24r80            [12] 2103 	add	a,#_xd_tmp
      000559 F5 82            [12] 2104 	mov	dpl,a
      00055B E4               [12] 2105 	clr	a
      00055C 34s00            [12] 2106 	addc	a,#(_xd_tmp >> 8)
      00055E F5 83            [12] 2107 	mov	dph,a
      000560 E0               [24] 2108 	movx	a,@dptr
      000561 F8               [12] 2109 	mov	r0,a
      000562 E9               [12] 2110 	mov	a,r1
      000563 B5 00 06         [24] 2111 	cjne	a,ar0,00124$
                           000566  2112 	Seeprom$WriteDataToOnePage$157 ==.
                           000566  2113 	Seeprom$WriteDataToOnePage$158 ==.
                                   2114 ;	C:/BSP/MG51xC9AE_MG51xB9AE_Series/Library/StdDriver/src/eeprom.c:245: for(i=0;i<128;i++)
      000566 0A               [12] 2115 	inc	r2
      000567 BA 80 00         [24] 2116 	cjne	r2,#0x80,00259$
      00056A                       2117 00259$:
      00056A 40 DF            [24] 2118 	jc	00146$
      00056C                       2119 00124$:
                           00056C  2120 	Seeprom$WriteDataToOnePage$159 ==.
                                   2121 ;	C:/BSP/MG51xC9AE_MG51xB9AE_Series/Library/StdDriver/src/eeprom.c:249: }while(i!=128);
      00056C BA 80 02         [24] 2122 	cjne	r2,#0x80,00261$
      00056F 80 03            [24] 2123 	sjmp	00262$
      000571                       2124 00261$:
      000571 02r04rCC         [24] 2125 	ljmp	00123$
      000574                       2126 00262$:
                           000574  2127 	Seeprom$WriteDataToOnePage$160 ==.
                                   2128 ;	C:/BSP/MG51xC9AE_MG51xB9AE_Series/Library/StdDriver/src/eeprom.c:251: WriteDataEnd:
      000574                       2129 00129$:
                           000574  2130 	Seeprom$WriteDataToOnePage$161 ==.
                                   2131 ;	C:/BSP/MG51xC9AE_MG51xB9AE_Series/Library/StdDriver/src/eeprom.c:252: clr_CHPCON_IAPEN;
                                   2132 ;	assignBit
      000574 A2 AF            [12] 2133 	mov	c,_EA
      000576 92*00            [24] 2134 	mov	_BIT_TMP,c
                                   2135 ;	assignBit
      000578 C2 AF            [12] 2136 	clr	_EA
      00057A 75 C7 AA         [24] 2137 	mov	_TA,#0xaa
      00057D 75 C7 55         [24] 2138 	mov	_TA,#0x55
      000580 53 9F FE         [24] 2139 	anl	_CHPCON,#0xfe
                                   2140 ;	assignBit
      000583 A2*00            [12] 2141 	mov	c,_BIT_TMP
      000585 92 AF            [24] 2142 	mov	_EA,c
                           000587  2143 	Seeprom$WriteDataToOnePage$162 ==.
                                   2144 ;	C:/BSP/MG51xC9AE_MG51xB9AE_Series/Library/StdDriver/src/eeprom.c:254: return num;
      000587 90r01r16         [24] 2145 	mov	dptr,#_WriteDataToOnePage_PARM_3
      00058A E0               [24] 2146 	movx	a,@dptr
                           00058B  2147 	Seeprom$WriteDataToOnePage$163 ==.
                                   2148 ;	C:/BSP/MG51xC9AE_MG51xB9AE_Series/Library/StdDriver/src/eeprom.c:255: }
                           00058B  2149 	Seeprom$WriteDataToOnePage$164 ==.
                           00058B  2150 	XG$WriteDataToOnePage$0$0 ==.
      00058B F5 82            [12] 2151 	mov	dpl,a
      00058D 22               [24] 2152 	ret
                           00058E  2153 	Seeprom$WriteDataToOnePage$165 ==.
                                   2154 	.area CSEG    (CODE)
                                   2155 	.area CONST   (CODE)
                                   2156 	.area XINIT   (CODE)
                                   2157 	.area INITIALIZER
                                   2158 	.area CABS    (ABS,CODE)
                                   2159 
                                   2160 	.area .debug_line (NOLOAD)
      000000 00 00 03 67           2161 	.dw	0,Ldebug_line_end-Ldebug_line_start
      000004                       2162 Ldebug_line_start:
      000004 00 02                 2163 	.dw	2
      000006 00 00 00 72           2164 	.dw	0,Ldebug_line_stmt-6-Ldebug_line_start
      00000A 01                    2165 	.db	1
      00000B 01                    2166 	.db	1
      00000C FB                    2167 	.db	-5
      00000D 0F                    2168 	.db	15
      00000E 0A                    2169 	.db	10
      00000F 00                    2170 	.db	0
      000010 01                    2171 	.db	1
      000011 01                    2172 	.db	1
      000012 01                    2173 	.db	1
      000013 01                    2174 	.db	1
      000014 00                    2175 	.db	0
      000015 00                    2176 	.db	0
      000016 00                    2177 	.db	0
      000017 01                    2178 	.db	1
      000018 2F 2E 2E 2F 69 6E 63  2179 	.ascii "/../include/mcs51"
             6C 75 64 65 2F 6D 63
             73 35 31
      000029 00                    2180 	.db	0
      00002A 2F 2E 2E 2F 69 6E 63  2181 	.ascii "/../include"
             6C 75 64 65
      000035 00                    2182 	.db	0
      000036 00                    2183 	.db	0
      000037 43 3A 2F 42 53 50 2F  2184 	.ascii "C:/BSP/MG51xC9AE_MG51xB9AE_Series/Library/StdDriver/src/eeprom.c"
             4D 47 35 31 78 43 39
             41 45 5F 4D 47 35 31
             78 42 39 41 45 5F 53
             65 72 69 65 73 2F 4C
             69 62 72 61 72 79 2F
             53 74 64 44 72 69 76
             65 72 2F 73 72 63 2F
             65 65 70 72 6F 6D 2E
             63
      000077 00                    2185 	.db	0
      000078 00                    2186 	.uleb128	0
      000079 00                    2187 	.uleb128	0
      00007A 00                    2188 	.uleb128	0
      00007B 00                    2189 	.db	0
      00007C                       2190 Ldebug_line_stmt:
      00007C 00                    2191 	.db	0
      00007D 05                    2192 	.uleb128	5
      00007E 02                    2193 	.db	2
      00007F 00 00r00r00           2194 	.dw	0,(Seeprom$Write_DATAFLASH_BYTE$0)
      000083 03                    2195 	.db	3
      000084 20                    2196 	.sleb128	32
      000085 01                    2197 	.db	1
      000086 09                    2198 	.db	9
      000087 00 0B                 2199 	.dw	Seeprom$Write_DATAFLASH_BYTE$2-Seeprom$Write_DATAFLASH_BYTE$0
      000089 03                    2200 	.db	3
      00008A 05                    2201 	.sleb128	5
      00008B 01                    2202 	.db	1
      00008C 09                    2203 	.db	9
      00008D 00 02                 2204 	.dw	Seeprom$Write_DATAFLASH_BYTE$3-Seeprom$Write_DATAFLASH_BYTE$2
      00008F 03                    2205 	.db	3
      000090 02                    2206 	.sleb128	2
      000091 01                    2207 	.db	1
      000092 09                    2208 	.db	9
      000093 00 1A                 2209 	.dw	Seeprom$Write_DATAFLASH_BYTE$5-Seeprom$Write_DATAFLASH_BYTE$3
      000095 03                    2210 	.db	3
      000096 02                    2211 	.sleb128	2
      000097 01                    2212 	.db	1
      000098 09                    2213 	.db	9
      000099 00 02                 2214 	.dw	Seeprom$Write_DATAFLASH_BYTE$7-Seeprom$Write_DATAFLASH_BYTE$5
      00009B 03                    2215 	.db	3
      00009C 07                    2216 	.sleb128	7
      00009D 01                    2217 	.db	1
      00009E 09                    2218 	.db	9
      00009F 00 23                 2219 	.dw	Seeprom$Write_DATAFLASH_BYTE$8-Seeprom$Write_DATAFLASH_BYTE$7
      0000A1 03                    2220 	.db	3
      0000A2 02                    2221 	.sleb128	2
      0000A3 01                    2222 	.db	1
      0000A4 09                    2223 	.db	9
      0000A5 00 0C                 2224 	.dw	Seeprom$Write_DATAFLASH_BYTE$9-Seeprom$Write_DATAFLASH_BYTE$8
      0000A7 03                    2225 	.db	3
      0000A8 77                    2226 	.sleb128	-9
      0000A9 01                    2227 	.db	1
      0000AA 09                    2228 	.db	9
      0000AB 00 06                 2229 	.dw	Seeprom$Write_DATAFLASH_BYTE$10-Seeprom$Write_DATAFLASH_BYTE$9
      0000AD 03                    2230 	.db	3
      0000AE 0C                    2231 	.sleb128	12
      0000AF 01                    2232 	.db	1
      0000B0 09                    2233 	.db	9
      0000B1 00 1E                 2234 	.dw	Seeprom$Write_DATAFLASH_BYTE$11-Seeprom$Write_DATAFLASH_BYTE$10
      0000B3 03                    2235 	.db	3
      0000B4 03                    2236 	.sleb128	3
      0000B5 01                    2237 	.db	1
      0000B6 09                    2238 	.db	9
      0000B7 00 04                 2239 	.dw	Seeprom$Write_DATAFLASH_BYTE$12-Seeprom$Write_DATAFLASH_BYTE$11
      0000B9 03                    2240 	.db	3
      0000BA 01                    2241 	.sleb128	1
      0000BB 01                    2242 	.db	1
      0000BC 09                    2243 	.db	9
      0000BD 00 02                 2244 	.dw	Seeprom$Write_DATAFLASH_BYTE$13-Seeprom$Write_DATAFLASH_BYTE$12
      0000BF 03                    2245 	.db	3
      0000C0 01                    2246 	.sleb128	1
      0000C1 01                    2247 	.db	1
      0000C2 09                    2248 	.db	9
      0000C3 00 03                 2249 	.dw	Seeprom$Write_DATAFLASH_BYTE$14-Seeprom$Write_DATAFLASH_BYTE$13
      0000C5 03                    2250 	.db	3
      0000C6 01                    2251 	.sleb128	1
      0000C7 01                    2252 	.db	1
      0000C8 09                    2253 	.db	9
      0000C9 00 13                 2254 	.dw	Seeprom$Write_DATAFLASH_BYTE$15-Seeprom$Write_DATAFLASH_BYTE$14
      0000CB 03                    2255 	.db	3
      0000CC 01                    2256 	.sleb128	1
      0000CD 01                    2257 	.db	1
      0000CE 09                    2258 	.db	9
      0000CF 00 13                 2259 	.dw	Seeprom$Write_DATAFLASH_BYTE$16-Seeprom$Write_DATAFLASH_BYTE$15
      0000D1 03                    2260 	.db	3
      0000D2 01                    2261 	.sleb128	1
      0000D3 01                    2262 	.db	1
      0000D4 09                    2263 	.db	9
      0000D5 00 03                 2264 	.dw	Seeprom$Write_DATAFLASH_BYTE$17-Seeprom$Write_DATAFLASH_BYTE$16
      0000D7 03                    2265 	.db	3
      0000D8 01                    2266 	.sleb128	1
      0000D9 01                    2267 	.db	1
      0000DA 09                    2268 	.db	9
      0000DB 00 13                 2269 	.dw	Seeprom$Write_DATAFLASH_BYTE$18-Seeprom$Write_DATAFLASH_BYTE$17
      0000DD 03                    2270 	.db	3
      0000DE 04                    2271 	.sleb128	4
      0000DF 01                    2272 	.db	1
      0000E0 09                    2273 	.db	9
      0000E1 00 02                 2274 	.dw	Seeprom$Write_DATAFLASH_BYTE$20-Seeprom$Write_DATAFLASH_BYTE$18
      0000E3 03                    2275 	.db	3
      0000E4 02                    2276 	.sleb128	2
      0000E5 01                    2277 	.db	1
      0000E6 09                    2278 	.db	9
      0000E7 00 04                 2279 	.dw	Seeprom$Write_DATAFLASH_BYTE$21-Seeprom$Write_DATAFLASH_BYTE$20
      0000E9 03                    2280 	.db	3
      0000EA 01                    2281 	.sleb128	1
      0000EB 01                    2282 	.db	1
      0000EC 09                    2283 	.db	9
      0000ED 00 02                 2284 	.dw	Seeprom$Write_DATAFLASH_BYTE$22-Seeprom$Write_DATAFLASH_BYTE$21
      0000EF 03                    2285 	.db	3
      0000F0 01                    2286 	.sleb128	1
      0000F1 01                    2287 	.db	1
      0000F2 09                    2288 	.db	9
      0000F3 00 03                 2289 	.dw	Seeprom$Write_DATAFLASH_BYTE$23-Seeprom$Write_DATAFLASH_BYTE$22
      0000F5 03                    2290 	.db	3
      0000F6 01                    2291 	.sleb128	1
      0000F7 01                    2292 	.db	1
      0000F8 09                    2293 	.db	9
      0000F9 00 0E                 2294 	.dw	Seeprom$Write_DATAFLASH_BYTE$24-Seeprom$Write_DATAFLASH_BYTE$23
      0000FB 03                    2295 	.db	3
      0000FC 01                    2296 	.sleb128	1
      0000FD 01                    2297 	.db	1
      0000FE 09                    2298 	.db	9
      0000FF 00 13                 2299 	.dw	Seeprom$Write_DATAFLASH_BYTE$25-Seeprom$Write_DATAFLASH_BYTE$24
      000101 03                    2300 	.db	3
      000102 01                    2301 	.sleb128	1
      000103 01                    2302 	.db	1
      000104 09                    2303 	.db	9
      000105 00 03                 2304 	.dw	Seeprom$Write_DATAFLASH_BYTE$26-Seeprom$Write_DATAFLASH_BYTE$25
      000107 03                    2305 	.db	3
      000108 01                    2306 	.sleb128	1
      000109 01                    2307 	.db	1
      00010A 09                    2308 	.db	9
      00010B 00 03                 2309 	.dw	Seeprom$Write_DATAFLASH_BYTE$27-Seeprom$Write_DATAFLASH_BYTE$26
      00010D 03                    2310 	.db	3
      00010E 01                    2311 	.sleb128	1
      00010F 01                    2312 	.db	1
      000110 09                    2313 	.db	9
      000111 00 13                 2314 	.dw	Seeprom$Write_DATAFLASH_BYTE$28-Seeprom$Write_DATAFLASH_BYTE$27
      000113 03                    2315 	.db	3
      000114 01                    2316 	.sleb128	1
      000115 01                    2317 	.db	1
      000116 09                    2318 	.db	9
      000117 00 06                 2319 	.dw	Seeprom$Write_DATAFLASH_BYTE$29-Seeprom$Write_DATAFLASH_BYTE$28
      000119 03                    2320 	.db	3
      00011A 01                    2321 	.sleb128	1
      00011B 01                    2322 	.db	1
      00011C 09                    2323 	.db	9
      00011D 00 07                 2324 	.dw	Seeprom$Write_DATAFLASH_BYTE$31-Seeprom$Write_DATAFLASH_BYTE$29
      00011F 03                    2325 	.db	3
      000120 02                    2326 	.sleb128	2
      000121 01                    2327 	.db	1
      000122 09                    2328 	.db	9
      000123 00 02                 2329 	.dw	Seeprom$Write_DATAFLASH_BYTE$32-Seeprom$Write_DATAFLASH_BYTE$31
      000125 03                    2330 	.db	3
      000126 01                    2331 	.sleb128	1
      000127 01                    2332 	.db	1
      000128 09                    2333 	.db	9
      000129 00 02                 2334 	.dw	Seeprom$Write_DATAFLASH_BYTE$35-Seeprom$Write_DATAFLASH_BYTE$32
      00012B 03                    2335 	.db	3
      00012C 72                    2336 	.sleb128	-14
      00012D 01                    2337 	.db	1
      00012E 09                    2338 	.db	9
      00012F 00 06                 2339 	.dw	Seeprom$Write_DATAFLASH_BYTE$36-Seeprom$Write_DATAFLASH_BYTE$35
      000131 03                    2340 	.db	3
      000132 11                    2341 	.sleb128	17
      000133 01                    2342 	.db	1
      000134 09                    2343 	.db	9
      000135 00 00                 2344 	.dw	Seeprom$Write_DATAFLASH_BYTE$37-Seeprom$Write_DATAFLASH_BYTE$36
      000137 03                    2345 	.db	3
      000138 01                    2346 	.sleb128	1
      000139 01                    2347 	.db	1
      00013A 09                    2348 	.db	9
      00013B 00 13                 2349 	.dw	Seeprom$Write_DATAFLASH_BYTE$38-Seeprom$Write_DATAFLASH_BYTE$37
      00013D 03                    2350 	.db	3
      00013E 01                    2351 	.sleb128	1
      00013F 01                    2352 	.db	1
      000140 09                    2353 	.db	9
      000141 00 13                 2354 	.dw	Seeprom$Write_DATAFLASH_BYTE$39-Seeprom$Write_DATAFLASH_BYTE$38
      000143 03                    2355 	.db	3
      000144 02                    2356 	.sleb128	2
      000145 01                    2357 	.db	1
      000146 09                    2358 	.db	9
      000147 00 04                 2359 	.dw	Seeprom$Write_DATAFLASH_BYTE$40-Seeprom$Write_DATAFLASH_BYTE$39
      000149 03                    2360 	.db	3
      00014A 01                    2361 	.sleb128	1
      00014B 01                    2362 	.db	1
      00014C 09                    2363 	.db	9
      00014D 00 01                 2364 	.dw	1+Seeprom$Write_DATAFLASH_BYTE$41-Seeprom$Write_DATAFLASH_BYTE$40
      00014F 00                    2365 	.db	0
      000150 01                    2366 	.uleb128	1
      000151 01                    2367 	.db	1
      000152 00                    2368 	.db	0
      000153 05                    2369 	.uleb128	5
      000154 02                    2370 	.db	2
      000155 00 00r01r4A           2371 	.dw	0,(Seeprom$Read_DATAFLASH_ARRAY$43)
      000159 03                    2372 	.db	3
      00015A E2 00                 2373 	.sleb128	98
      00015C 01                    2374 	.db	1
      00015D 09                    2375 	.db	9
      00015E 00 0B                 2376 	.dw	Seeprom$Read_DATAFLASH_ARRAY$46-Seeprom$Read_DATAFLASH_ARRAY$43
      000160 03                    2377 	.db	3
      000161 04                    2378 	.sleb128	4
      000162 01                    2379 	.db	1
      000163 09                    2380 	.db	9
      000164 00 2B                 2381 	.dw	Seeprom$Read_DATAFLASH_ARRAY$48-Seeprom$Read_DATAFLASH_ARRAY$46
      000166 03                    2382 	.db	3
      000167 07                    2383 	.sleb128	7
      000168 01                    2384 	.db	1
      000169 09                    2385 	.db	9
      00016A 00 28                 2386 	.dw	Seeprom$Read_DATAFLASH_ARRAY$49-Seeprom$Read_DATAFLASH_ARRAY$48
      00016C 03                    2387 	.db	3
      00016D 79                    2388 	.sleb128	-7
      00016E 01                    2389 	.db	1
      00016F 09                    2390 	.db	9
      000170 00 0E                 2391 	.dw	Seeprom$Read_DATAFLASH_ARRAY$50-Seeprom$Read_DATAFLASH_ARRAY$49
      000172 03                    2392 	.db	3
      000173 0A                    2393 	.sleb128	10
      000174 01                    2394 	.db	1
      000175 09                    2395 	.db	9
      000176 00 01                 2396 	.dw	1+Seeprom$Read_DATAFLASH_ARRAY$51-Seeprom$Read_DATAFLASH_ARRAY$50
      000178 00                    2397 	.db	0
      000179 01                    2398 	.uleb128	1
      00017A 01                    2399 	.db	1
      00017B 00                    2400 	.db	0
      00017C 05                    2401 	.uleb128	5
      00017D 02                    2402 	.db	2
      00017E 00 00r01rB7           2403 	.dw	0,(Seeprom$Write_DATAFLASH_ARRAY$53)
      000182 03                    2404 	.db	3
      000183 FA 00                 2405 	.sleb128	122
      000185 01                    2406 	.db	1
      000186 09                    2407 	.db	9
      000187 00 0B                 2408 	.dw	Seeprom$Write_DATAFLASH_ARRAY$55-Seeprom$Write_DATAFLASH_ARRAY$53
      000189 03                    2409 	.db	3
      00018A 04                    2410 	.sleb128	4
      00018B 01                    2411 	.db	1
      00018C 09                    2412 	.db	9
      00018D 00 02                 2413 	.dw	Seeprom$Write_DATAFLASH_ARRAY$56-Seeprom$Write_DATAFLASH_ARRAY$55
      00018F 03                    2414 	.db	3
      000190 01                    2415 	.sleb128	1
      000191 01                    2416 	.db	1
      000192 09                    2417 	.db	9
      000193 00 18                 2418 	.dw	Seeprom$Write_DATAFLASH_ARRAY$57-Seeprom$Write_DATAFLASH_ARRAY$56
      000195 03                    2419 	.db	3
      000196 01                    2420 	.sleb128	1
      000197 01                    2421 	.db	1
      000198 09                    2422 	.db	9
      000199 00 17                 2423 	.dw	Seeprom$Write_DATAFLASH_ARRAY$58-Seeprom$Write_DATAFLASH_ARRAY$57
      00019B 03                    2424 	.db	3
      00019C 01                    2425 	.sleb128	1
      00019D 01                    2426 	.db	1
      00019E 09                    2427 	.db	9
      00019F 00 0B                 2428 	.dw	Seeprom$Write_DATAFLASH_ARRAY$60-Seeprom$Write_DATAFLASH_ARRAY$58
      0001A1 03                    2429 	.db	3
      0001A2 02                    2430 	.sleb128	2
      0001A3 01                    2431 	.db	1
      0001A4 09                    2432 	.db	9
      0001A5 00 39                 2433 	.dw	Seeprom$Write_DATAFLASH_ARRAY$61-Seeprom$Write_DATAFLASH_ARRAY$60
      0001A7 03                    2434 	.db	3
      0001A8 01                    2435 	.sleb128	1
      0001A9 01                    2436 	.db	1
      0001AA 09                    2437 	.db	9
      0001AB 00 12                 2438 	.dw	Seeprom$Write_DATAFLASH_ARRAY$62-Seeprom$Write_DATAFLASH_ARRAY$61
      0001AD 03                    2439 	.db	3
      0001AE 01                    2440 	.sleb128	1
      0001AF 01                    2441 	.db	1
      0001B0 09                    2442 	.db	9
      0001B1 00 18                 2443 	.dw	Seeprom$Write_DATAFLASH_ARRAY$63-Seeprom$Write_DATAFLASH_ARRAY$62
      0001B3 03                    2444 	.db	3
      0001B4 01                    2445 	.sleb128	1
      0001B5 01                    2446 	.db	1
      0001B6 09                    2447 	.db	9
      0001B7 00 17                 2448 	.dw	Seeprom$Write_DATAFLASH_ARRAY$64-Seeprom$Write_DATAFLASH_ARRAY$63
      0001B9 03                    2449 	.db	3
      0001BA 01                    2450 	.sleb128	1
      0001BB 01                    2451 	.db	1
      0001BC 09                    2452 	.db	9
      0001BD 00 19                 2453 	.dw	Seeprom$Write_DATAFLASH_ARRAY$66-Seeprom$Write_DATAFLASH_ARRAY$64
      0001BF 03                    2454 	.db	3
      0001C0 02                    2455 	.sleb128	2
      0001C1 01                    2456 	.db	1
      0001C2 09                    2457 	.db	9
      0001C3 00 13                 2458 	.dw	Seeprom$Write_DATAFLASH_ARRAY$68-Seeprom$Write_DATAFLASH_ARRAY$66
      0001C5 03                    2459 	.db	3
      0001C6 02                    2460 	.sleb128	2
      0001C7 01                    2461 	.db	1
      0001C8 09                    2462 	.db	9
      0001C9 00 2A                 2463 	.dw	Seeprom$Write_DATAFLASH_ARRAY$70-Seeprom$Write_DATAFLASH_ARRAY$68
      0001CB 03                    2464 	.db	3
      0001CC 02                    2465 	.sleb128	2
      0001CD 01                    2466 	.db	1
      0001CE 09                    2467 	.db	9
      0001CF 00 04                 2468 	.dw	Seeprom$Write_DATAFLASH_ARRAY$71-Seeprom$Write_DATAFLASH_ARRAY$70
      0001D1 03                    2469 	.db	3
      0001D2 01                    2470 	.sleb128	1
      0001D3 01                    2471 	.db	1
      0001D4 09                    2472 	.db	9
      0001D5 00 01                 2473 	.dw	1+Seeprom$Write_DATAFLASH_ARRAY$72-Seeprom$Write_DATAFLASH_ARRAY$71
      0001D7 00                    2474 	.db	0
      0001D8 01                    2475 	.uleb128	1
      0001D9 01                    2476 	.db	1
      0001DA 00                    2477 	.db	0
      0001DB 05                    2478 	.uleb128	5
      0001DC 02                    2479 	.db	2
      0001DD 00 00r02rD5           2480 	.dw	0,(Seeprom$WriteDataToOnePage$74)
      0001E1 03                    2481 	.db	3
      0001E2 91 01                 2482 	.sleb128	145
      0001E4 01                    2483 	.db	1
      0001E5 09                    2484 	.db	9
      0001E6 00 0B                 2485 	.dw	Seeprom$WriteDataToOnePage$76-Seeprom$WriteDataToOnePage$74
      0001E8 03                    2486 	.db	3
      0001E9 0C                    2487 	.sleb128	12
      0001EA 01                    2488 	.db	1
      0001EB 09                    2489 	.db	9
      0001EC 00 13                 2490 	.dw	Seeprom$WriteDataToOnePage$77-Seeprom$WriteDataToOnePage$76
      0001EE 03                    2491 	.db	3
      0001EF 01                    2492 	.sleb128	1
      0001F0 01                    2493 	.db	1
      0001F1 09                    2494 	.db	9
      0001F2 00 13                 2495 	.dw	Seeprom$WriteDataToOnePage$78-Seeprom$WriteDataToOnePage$77
      0001F4 03                    2496 	.db	3
      0001F5 02                    2497 	.sleb128	2
      0001F6 01                    2498 	.db	1
      0001F7 09                    2499 	.db	9
      0001F8 00 0D                 2500 	.dw	Seeprom$WriteDataToOnePage$79-Seeprom$WriteDataToOnePage$78
      0001FA 03                    2501 	.db	3
      0001FB 01                    2502 	.sleb128	1
      0001FC 01                    2503 	.db	1
      0001FD 09                    2504 	.db	9
      0001FE 00 07                 2505 	.dw	Seeprom$WriteDataToOnePage$80-Seeprom$WriteDataToOnePage$79
      000200 03                    2506 	.db	3
      000201 01                    2507 	.sleb128	1
      000202 01                    2508 	.db	1
      000203 09                    2509 	.db	9
      000204 00 11                 2510 	.dw	Seeprom$WriteDataToOnePage$81-Seeprom$WriteDataToOnePage$80
      000206 03                    2511 	.db	3
      000207 06                    2512 	.sleb128	6
      000208 01                    2513 	.db	1
      000209 09                    2514 	.db	9
      00020A 00 08                 2515 	.dw	Seeprom$WriteDataToOnePage$82-Seeprom$WriteDataToOnePage$81
      00020C 03                    2516 	.db	3
      00020D 03                    2517 	.sleb128	3
      00020E 01                    2518 	.db	1
      00020F 09                    2519 	.db	9
      000210 00 0C                 2520 	.dw	Seeprom$WriteDataToOnePage$84-Seeprom$WriteDataToOnePage$82
      000212 03                    2521 	.db	3
      000213 02                    2522 	.sleb128	2
      000214 01                    2523 	.db	1
      000215 09                    2524 	.db	9
      000216 00 0E                 2525 	.dw	Seeprom$WriteDataToOnePage$86-Seeprom$WriteDataToOnePage$84
      000218 03                    2526 	.db	3
      000219 7E                    2527 	.sleb128	-2
      00021A 01                    2528 	.db	1
      00021B 09                    2529 	.db	9
      00021C 00 03                 2530 	.dw	Seeprom$WriteDataToOnePage$87-Seeprom$WriteDataToOnePage$86
      00021E 03                    2531 	.db	3
      00021F 04                    2532 	.sleb128	4
      000220 01                    2533 	.db	1
      000221 09                    2534 	.db	9
      000222 00 0E                 2535 	.dw	Seeprom$WriteDataToOnePage$89-Seeprom$WriteDataToOnePage$87
      000224 03                    2536 	.db	3
      000225 03                    2537 	.sleb128	3
      000226 01                    2538 	.db	1
      000227 09                    2539 	.db	9
      000228 00 0A                 2540 	.dw	Seeprom$WriteDataToOnePage$90-Seeprom$WriteDataToOnePage$89
      00022A 03                    2541 	.db	3
      00022B 01                    2542 	.sleb128	1
      00022C 01                    2543 	.db	1
      00022D 09                    2544 	.db	9
      00022E 00 02                 2545 	.dw	Seeprom$WriteDataToOnePage$92-Seeprom$WriteDataToOnePage$90
      000230 03                    2546 	.db	3
      000231 01                    2547 	.sleb128	1
      000232 01                    2548 	.db	1
      000233 09                    2549 	.db	9
      000234 00 15                 2550 	.dw	Seeprom$WriteDataToOnePage$94-Seeprom$WriteDataToOnePage$92
      000236 03                    2551 	.db	3
      000237 02                    2552 	.sleb128	2
      000238 01                    2553 	.db	1
      000239 09                    2554 	.db	9
      00023A 00 05                 2555 	.dw	Seeprom$WriteDataToOnePage$95-Seeprom$WriteDataToOnePage$94
      00023C 03                    2556 	.db	3
      00023D 01                    2557 	.sleb128	1
      00023E 01                    2558 	.db	1
      00023F 09                    2559 	.db	9
      000240 00 15                 2560 	.dw	Seeprom$WriteDataToOnePage$96-Seeprom$WriteDataToOnePage$95
      000242 03                    2561 	.db	3
      000243 01                    2562 	.sleb128	1
      000244 01                    2563 	.db	1
      000245 09                    2564 	.db	9
      000246 00 13                 2565 	.dw	Seeprom$WriteDataToOnePage$97-Seeprom$WriteDataToOnePage$96
      000248 03                    2566 	.db	3
      000249 01                    2567 	.sleb128	1
      00024A 01                    2568 	.db	1
      00024B 09                    2569 	.db	9
      00024C 00 03                 2570 	.dw	Seeprom$WriteDataToOnePage$98-Seeprom$WriteDataToOnePage$97
      00024E 03                    2571 	.db	3
      00024F 01                    2572 	.sleb128	1
      000250 01                    2573 	.db	1
      000251 09                    2574 	.db	9
      000252 00 03                 2575 	.dw	Seeprom$WriteDataToOnePage$99-Seeprom$WriteDataToOnePage$98
      000254 03                    2576 	.db	3
      000255 01                    2577 	.sleb128	1
      000256 01                    2578 	.db	1
      000257 09                    2579 	.db	9
      000258 00 13                 2580 	.dw	Seeprom$WriteDataToOnePage$100-Seeprom$WriteDataToOnePage$99
      00025A 03                    2581 	.db	3
      00025B 01                    2582 	.sleb128	1
      00025C 01                    2583 	.db	1
      00025D 09                    2584 	.db	9
      00025E 00 06                 2585 	.dw	Seeprom$WriteDataToOnePage$101-Seeprom$WriteDataToOnePage$100
      000260 03                    2586 	.db	3
      000261 01                    2587 	.sleb128	1
      000262 01                    2588 	.db	1
      000263 09                    2589 	.db	9
      000264 00 18                 2590 	.dw	Seeprom$WriteDataToOnePage$103-Seeprom$WriteDataToOnePage$101
      000266 03                    2591 	.db	3
      000267 02                    2592 	.sleb128	2
      000268 01                    2593 	.db	1
      000269 09                    2594 	.db	9
      00026A 00 02                 2595 	.dw	Seeprom$WriteDataToOnePage$104-Seeprom$WriteDataToOnePage$103
      00026C 03                    2596 	.db	3
      00026D 01                    2597 	.sleb128	1
      00026E 01                    2598 	.db	1
      00026F 09                    2599 	.db	9
      000270 00 03                 2600 	.dw	Seeprom$WriteDataToOnePage$106-Seeprom$WriteDataToOnePage$104
      000272 03                    2601 	.db	3
      000273 02                    2602 	.sleb128	2
      000274 01                    2603 	.db	1
      000275 09                    2604 	.db	9
      000276 00 05                 2605 	.dw	Seeprom$WriteDataToOnePage$108-Seeprom$WriteDataToOnePage$106
      000278 03                    2606 	.db	3
      000279 72                    2607 	.sleb128	-14
      00027A 01                    2608 	.db	1
      00027B 09                    2609 	.db	9
      00027C 00 01                 2610 	.dw	Seeprom$WriteDataToOnePage$109-Seeprom$WriteDataToOnePage$108
      00027E 03                    2611 	.db	3
      00027F 10                    2612 	.sleb128	16
      000280 01                    2613 	.db	1
      000281 09                    2614 	.db	9
      000282 00 17                 2615 	.dw	Seeprom$WriteDataToOnePage$112-Seeprom$WriteDataToOnePage$109
      000284 03                    2616 	.db	3
      000285 02                    2617 	.sleb128	2
      000286 01                    2618 	.db	1
      000287 09                    2619 	.db	9
      000288 00 2D                 2620 	.dw	Seeprom$WriteDataToOnePage$113-Seeprom$WriteDataToOnePage$112
      00028A 03                    2621 	.db	3
      00028B 7E                    2622 	.sleb128	-2
      00028C 01                    2623 	.db	1
      00028D 09                    2624 	.db	9
      00028E 00 03                 2625 	.dw	Seeprom$WriteDataToOnePage$114-Seeprom$WriteDataToOnePage$113
      000290 03                    2626 	.db	3
      000291 04                    2627 	.sleb128	4
      000292 01                    2628 	.db	1
      000293 09                    2629 	.db	9
      000294 00 0C                 2630 	.dw	Seeprom$WriteDataToOnePage$116-Seeprom$WriteDataToOnePage$114
      000296 03                    2631 	.db	3
      000297 04                    2632 	.sleb128	4
      000298 01                    2633 	.db	1
      000299 09                    2634 	.db	9
      00029A 00 00                 2635 	.dw	Seeprom$WriteDataToOnePage$117-Seeprom$WriteDataToOnePage$116
      00029C 03                    2636 	.db	3
      00029D 06                    2637 	.sleb128	6
      00029E 01                    2638 	.db	1
      00029F 09                    2639 	.db	9
      0002A0 00 0B                 2640 	.dw	Seeprom$WriteDataToOnePage$119-Seeprom$WriteDataToOnePage$117
      0002A2 03                    2641 	.db	3
      0002A3 03                    2642 	.sleb128	3
      0002A4 01                    2643 	.db	1
      0002A5 09                    2644 	.db	9
      0002A6 00 02                 2645 	.dw	Seeprom$WriteDataToOnePage$121-Seeprom$WriteDataToOnePage$119
      0002A8 03                    2646 	.db	3
      0002A9 02                    2647 	.sleb128	2
      0002AA 01                    2648 	.db	1
      0002AB 09                    2649 	.db	9
      0002AC 00 17                 2650 	.dw	Seeprom$WriteDataToOnePage$122-Seeprom$WriteDataToOnePage$121
      0002AE 03                    2651 	.db	3
      0002AF 7E                    2652 	.sleb128	-2
      0002B0 01                    2653 	.db	1
      0002B1 09                    2654 	.db	9
      0002B2 00 06                 2655 	.dw	Seeprom$WriteDataToOnePage$124-Seeprom$WriteDataToOnePage$122
      0002B4 03                    2656 	.db	3
      0002B5 04                    2657 	.sleb128	4
      0002B6 01                    2658 	.db	1
      0002B7 09                    2659 	.db	9
      0002B8 00 1A                 2660 	.dw	Seeprom$WriteDataToOnePage$126-Seeprom$WriteDataToOnePage$124
      0002BA 03                    2661 	.db	3
      0002BB 02                    2662 	.sleb128	2
      0002BC 01                    2663 	.db	1
      0002BD 09                    2664 	.db	9
      0002BE 00 39                 2665 	.dw	Seeprom$WriteDataToOnePage$127-Seeprom$WriteDataToOnePage$126
      0002C0 03                    2666 	.db	3
      0002C1 7E                    2667 	.sleb128	-2
      0002C2 01                    2668 	.db	1
      0002C3 09                    2669 	.db	9
      0002C4 00 03                 2670 	.dw	Seeprom$WriteDataToOnePage$128-Seeprom$WriteDataToOnePage$127
      0002C6 03                    2671 	.db	3
      0002C7 04                    2672 	.sleb128	4
      0002C8 01                    2673 	.db	1
      0002C9 09                    2674 	.db	9
      0002CA 00 0B                 2675 	.dw	Seeprom$WriteDataToOnePage$131-Seeprom$WriteDataToOnePage$128
      0002CC 03                    2676 	.db	3
      0002CD 02                    2677 	.sleb128	2
      0002CE 01                    2678 	.db	1
      0002CF 09                    2679 	.db	9
      0002D0 00 07                 2680 	.dw	Seeprom$WriteDataToOnePage$132-Seeprom$WriteDataToOnePage$131
      0002D2 03                    2681 	.db	3
      0002D3 01                    2682 	.sleb128	1
      0002D4 01                    2683 	.db	1
      0002D5 09                    2684 	.db	9
      0002D6 00 02                 2685 	.dw	Seeprom$WriteDataToOnePage$133-Seeprom$WriteDataToOnePage$132
      0002D8 03                    2686 	.db	3
      0002D9 01                    2687 	.sleb128	1
      0002DA 01                    2688 	.db	1
      0002DB 09                    2689 	.db	9
      0002DC 00 03                 2690 	.dw	Seeprom$WriteDataToOnePage$134-Seeprom$WriteDataToOnePage$133
      0002DE 03                    2691 	.db	3
      0002DF 01                    2692 	.sleb128	1
      0002E0 01                    2693 	.db	1
      0002E1 09                    2694 	.db	9
      0002E2 00 03                 2695 	.dw	Seeprom$WriteDataToOnePage$135-Seeprom$WriteDataToOnePage$134
      0002E4 03                    2696 	.db	3
      0002E5 01                    2697 	.sleb128	1
      0002E6 01                    2698 	.db	1
      0002E7 09                    2699 	.db	9
      0002E8 00 13                 2700 	.dw	Seeprom$WriteDataToOnePage$137-Seeprom$WriteDataToOnePage$135
      0002EA 03                    2701 	.db	3
      0002EB 01                    2702 	.sleb128	1
      0002EC 01                    2703 	.db	1
      0002ED 09                    2704 	.db	9
      0002EE 00 02                 2705 	.dw	Seeprom$WriteDataToOnePage$139-Seeprom$WriteDataToOnePage$137
      0002F0 03                    2706 	.db	3
      0002F1 02                    2707 	.sleb128	2
      0002F2 01                    2708 	.db	1
      0002F3 09                    2709 	.db	9
      0002F4 00 03                 2710 	.dw	Seeprom$WriteDataToOnePage$140-Seeprom$WriteDataToOnePage$139
      0002F6 03                    2711 	.db	3
      0002F7 01                    2712 	.sleb128	1
      0002F8 01                    2713 	.db	1
      0002F9 09                    2714 	.db	9
      0002FA 00 0E                 2715 	.dw	Seeprom$WriteDataToOnePage$141-Seeprom$WriteDataToOnePage$140
      0002FC 03                    2716 	.db	3
      0002FD 01                    2717 	.sleb128	1
      0002FE 01                    2718 	.db	1
      0002FF 09                    2719 	.db	9
      000300 00 13                 2720 	.dw	Seeprom$WriteDataToOnePage$142-Seeprom$WriteDataToOnePage$141
      000302 03                    2721 	.db	3
      000303 01                    2722 	.sleb128	1
      000304 01                    2723 	.db	1
      000305 09                    2724 	.db	9
      000306 00 03                 2725 	.dw	Seeprom$WriteDataToOnePage$143-Seeprom$WriteDataToOnePage$142
      000308 03                    2726 	.db	3
      000309 01                    2727 	.sleb128	1
      00030A 01                    2728 	.db	1
      00030B 09                    2729 	.db	9
      00030C 00 03                 2730 	.dw	Seeprom$WriteDataToOnePage$144-Seeprom$WriteDataToOnePage$143
      00030E 03                    2731 	.db	3
      00030F 01                    2732 	.sleb128	1
      000310 01                    2733 	.db	1
      000311 09                    2734 	.db	9
      000312 00 13                 2735 	.dw	Seeprom$WriteDataToOnePage$145-Seeprom$WriteDataToOnePage$144
      000314 03                    2736 	.db	3
      000315 01                    2737 	.sleb128	1
      000316 01                    2738 	.db	1
      000317 09                    2739 	.db	9
      000318 00 06                 2740 	.dw	Seeprom$WriteDataToOnePage$146-Seeprom$WriteDataToOnePage$145
      00031A 03                    2741 	.db	3
      00031B 01                    2742 	.sleb128	1
      00031C 01                    2743 	.db	1
      00031D 09                    2744 	.db	9
      00031E 00 07                 2745 	.dw	Seeprom$WriteDataToOnePage$148-Seeprom$WriteDataToOnePage$146
      000320 03                    2746 	.db	3
      000321 02                    2747 	.sleb128	2
      000322 01                    2748 	.db	1
      000323 09                    2749 	.db	9
      000324 00 02                 2750 	.dw	Seeprom$WriteDataToOnePage$149-Seeprom$WriteDataToOnePage$148
      000326 03                    2751 	.db	3
      000327 01                    2752 	.sleb128	1
      000328 01                    2753 	.db	1
      000329 09                    2754 	.db	9
      00032A 00 02                 2755 	.dw	Seeprom$WriteDataToOnePage$151-Seeprom$WriteDataToOnePage$149
      00032C 03                    2756 	.db	3
      00032D 02                    2757 	.sleb128	2
      00032E 01                    2758 	.db	1
      00032F 09                    2759 	.db	9
      000330 00 05                 2760 	.dw	Seeprom$WriteDataToOnePage$153-Seeprom$WriteDataToOnePage$151
      000332 03                    2761 	.db	3
      000333 72                    2762 	.sleb128	-14
      000334 01                    2763 	.db	1
      000335 09                    2764 	.db	9
      000336 00 06                 2765 	.dw	Seeprom$WriteDataToOnePage$154-Seeprom$WriteDataToOnePage$153
      000338 03                    2766 	.db	3
      000339 10                    2767 	.sleb128	16
      00033A 01                    2768 	.db	1
      00033B 09                    2769 	.db	9
      00033C 00 02                 2770 	.dw	Seeprom$WriteDataToOnePage$156-Seeprom$WriteDataToOnePage$154
      00033E 03                    2771 	.db	3
      00033F 02                    2772 	.sleb128	2
      000340 01                    2773 	.db	1
      000341 09                    2774 	.db	9
      000342 00 1B                 2775 	.dw	Seeprom$WriteDataToOnePage$158-Seeprom$WriteDataToOnePage$156
      000344 03                    2776 	.db	3
      000345 7E                    2777 	.sleb128	-2
      000346 01                    2778 	.db	1
      000347 09                    2779 	.db	9
      000348 00 06                 2780 	.dw	Seeprom$WriteDataToOnePage$159-Seeprom$WriteDataToOnePage$158
      00034A 03                    2781 	.db	3
      00034B 04                    2782 	.sleb128	4
      00034C 01                    2783 	.db	1
      00034D 09                    2784 	.db	9
      00034E 00 08                 2785 	.dw	Seeprom$WriteDataToOnePage$160-Seeprom$WriteDataToOnePage$159
      000350 03                    2786 	.db	3
      000351 02                    2787 	.sleb128	2
      000352 01                    2788 	.db	1
      000353 09                    2789 	.db	9
      000354 00 00                 2790 	.dw	Seeprom$WriteDataToOnePage$161-Seeprom$WriteDataToOnePage$160
      000356 03                    2791 	.db	3
      000357 01                    2792 	.sleb128	1
      000358 01                    2793 	.db	1
      000359 09                    2794 	.db	9
      00035A 00 13                 2795 	.dw	Seeprom$WriteDataToOnePage$162-Seeprom$WriteDataToOnePage$161
      00035C 03                    2796 	.db	3
      00035D 02                    2797 	.sleb128	2
      00035E 01                    2798 	.db	1
      00035F 09                    2799 	.db	9
      000360 00 04                 2800 	.dw	Seeprom$WriteDataToOnePage$163-Seeprom$WriteDataToOnePage$162
      000362 03                    2801 	.db	3
      000363 01                    2802 	.sleb128	1
      000364 01                    2803 	.db	1
      000365 09                    2804 	.db	9
      000366 00 01                 2805 	.dw	1+Seeprom$WriteDataToOnePage$164-Seeprom$WriteDataToOnePage$163
      000368 00                    2806 	.db	0
      000369 01                    2807 	.uleb128	1
      00036A 01                    2808 	.db	1
      00036B                       2809 Ldebug_line_end:
                                   2810 
                                   2811 	.area .debug_loc (NOLOAD)
      000000                       2812 Ldebug_loc_start:
      000000 00 00r02rD5           2813 	.dw	0,(Seeprom$WriteDataToOnePage$75)
      000004 00 00r05r8E           2814 	.dw	0,(Seeprom$WriteDataToOnePage$165)
      000008 00 02                 2815 	.dw	2
      00000A 86                    2816 	.db	134
      00000B 01                    2817 	.sleb128	1
      00000C 00 00 00 00           2818 	.dw	0,0
      000010 00 00 00 00           2819 	.dw	0,0
      000014 00 00r01rB7           2820 	.dw	0,(Seeprom$Write_DATAFLASH_ARRAY$54)
      000018 00 00r02rD5           2821 	.dw	0,(Seeprom$Write_DATAFLASH_ARRAY$73)
      00001C 00 02                 2822 	.dw	2
      00001E 86                    2823 	.db	134
      00001F 01                    2824 	.sleb128	1
      000020 00 00 00 00           2825 	.dw	0,0
      000024 00 00 00 00           2826 	.dw	0,0
      000028 00 00r01r4A           2827 	.dw	0,(Seeprom$Read_DATAFLASH_ARRAY$44)
      00002C 00 00r01rB7           2828 	.dw	0,(Seeprom$Read_DATAFLASH_ARRAY$52)
      000030 00 02                 2829 	.dw	2
      000032 86                    2830 	.db	134
      000033 01                    2831 	.sleb128	1
      000034 00 00 00 00           2832 	.dw	0,0
      000038 00 00 00 00           2833 	.dw	0,0
      00003C 00 00r00r00           2834 	.dw	0,(Seeprom$Write_DATAFLASH_BYTE$1)
      000040 00 00r01r4A           2835 	.dw	0,(Seeprom$Write_DATAFLASH_BYTE$42)
      000044 00 02                 2836 	.dw	2
      000046 86                    2837 	.db	134
      000047 01                    2838 	.sleb128	1
      000048 00 00 00 00           2839 	.dw	0,0
      00004C 00 00 00 00           2840 	.dw	0,0
                                   2841 
                                   2842 	.area .debug_abbrev (NOLOAD)
      000000                       2843 Ldebug_abbrev:
      000000 01                    2844 	.uleb128	1
      000001 11                    2845 	.uleb128	17
      000002 01                    2846 	.db	1
      000003 03                    2847 	.uleb128	3
      000004 08                    2848 	.uleb128	8
      000005 10                    2849 	.uleb128	16
      000006 06                    2850 	.uleb128	6
      000007 13                    2851 	.uleb128	19
      000008 0B                    2852 	.uleb128	11
      000009 25                    2853 	.uleb128	37
      00000A 08                    2854 	.uleb128	8
      00000B 00                    2855 	.uleb128	0
      00000C 00                    2856 	.uleb128	0
      00000D 02                    2857 	.uleb128	2
      00000E 24                    2858 	.uleb128	36
      00000F 00                    2859 	.db	0
      000010 03                    2860 	.uleb128	3
      000011 08                    2861 	.uleb128	8
      000012 0B                    2862 	.uleb128	11
      000013 0B                    2863 	.uleb128	11
      000014 3E                    2864 	.uleb128	62
      000015 0B                    2865 	.uleb128	11
      000016 00                    2866 	.uleb128	0
      000017 00                    2867 	.uleb128	0
      000018 03                    2868 	.uleb128	3
      000019 2E                    2869 	.uleb128	46
      00001A 01                    2870 	.db	1
      00001B 01                    2871 	.uleb128	1
      00001C 13                    2872 	.uleb128	19
      00001D 03                    2873 	.uleb128	3
      00001E 08                    2874 	.uleb128	8
      00001F 11                    2875 	.uleb128	17
      000020 01                    2876 	.uleb128	1
      000021 12                    2877 	.uleb128	18
      000022 01                    2878 	.uleb128	1
      000023 3F                    2879 	.uleb128	63
      000024 0C                    2880 	.uleb128	12
      000025 40                    2881 	.uleb128	64
      000026 06                    2882 	.uleb128	6
      000027 49                    2883 	.uleb128	73
      000028 13                    2884 	.uleb128	19
      000029 00                    2885 	.uleb128	0
      00002A 00                    2886 	.uleb128	0
      00002B 04                    2887 	.uleb128	4
      00002C 05                    2888 	.uleb128	5
      00002D 00                    2889 	.db	0
      00002E 02                    2890 	.uleb128	2
      00002F 0A                    2891 	.uleb128	10
      000030 03                    2892 	.uleb128	3
      000031 08                    2893 	.uleb128	8
      000032 49                    2894 	.uleb128	73
      000033 13                    2895 	.uleb128	19
      000034 00                    2896 	.uleb128	0
      000035 00                    2897 	.uleb128	0
      000036 05                    2898 	.uleb128	5
      000037 05                    2899 	.uleb128	5
      000038 00                    2900 	.db	0
      000039 03                    2901 	.uleb128	3
      00003A 08                    2902 	.uleb128	8
      00003B 49                    2903 	.uleb128	73
      00003C 13                    2904 	.uleb128	19
      00003D 00                    2905 	.uleb128	0
      00003E 00                    2906 	.uleb128	0
      00003F 06                    2907 	.uleb128	6
      000040 0B                    2908 	.uleb128	11
      000041 00                    2909 	.db	0
      000042 11                    2910 	.uleb128	17
      000043 01                    2911 	.uleb128	1
      000044 12                    2912 	.uleb128	18
      000045 01                    2913 	.uleb128	1
      000046 00                    2914 	.uleb128	0
      000047 00                    2915 	.uleb128	0
      000048 07                    2916 	.uleb128	7
      000049 0B                    2917 	.uleb128	11
      00004A 01                    2918 	.db	1
      00004B 01                    2919 	.uleb128	1
      00004C 13                    2920 	.uleb128	19
      00004D 11                    2921 	.uleb128	17
      00004E 01                    2922 	.uleb128	1
      00004F 12                    2923 	.uleb128	18
      000050 01                    2924 	.uleb128	1
      000051 00                    2925 	.uleb128	0
      000052 00                    2926 	.uleb128	0
      000053 08                    2927 	.uleb128	8
      000054 34                    2928 	.uleb128	52
      000055 00                    2929 	.db	0
      000056 03                    2930 	.uleb128	3
      000057 08                    2931 	.uleb128	8
      000058 49                    2932 	.uleb128	73
      000059 13                    2933 	.uleb128	19
      00005A 00                    2934 	.uleb128	0
      00005B 00                    2935 	.uleb128	0
      00005C 09                    2936 	.uleb128	9
      00005D 34                    2937 	.uleb128	52
      00005E 00                    2938 	.db	0
      00005F 02                    2939 	.uleb128	2
      000060 0A                    2940 	.uleb128	10
      000061 03                    2941 	.uleb128	3
      000062 08                    2942 	.uleb128	8
      000063 49                    2943 	.uleb128	73
      000064 13                    2944 	.uleb128	19
      000065 00                    2945 	.uleb128	0
      000066 00                    2946 	.uleb128	0
      000067 0A                    2947 	.uleb128	10
      000068 2E                    2948 	.uleb128	46
      000069 01                    2949 	.db	1
      00006A 01                    2950 	.uleb128	1
      00006B 13                    2951 	.uleb128	19
      00006C 03                    2952 	.uleb128	3
      00006D 08                    2953 	.uleb128	8
      00006E 11                    2954 	.uleb128	17
      00006F 01                    2955 	.uleb128	1
      000070 12                    2956 	.uleb128	18
      000071 01                    2957 	.uleb128	1
      000072 3F                    2958 	.uleb128	63
      000073 0C                    2959 	.uleb128	12
      000074 40                    2960 	.uleb128	64
      000075 06                    2961 	.uleb128	6
      000076 00                    2962 	.uleb128	0
      000077 00                    2963 	.uleb128	0
      000078 0B                    2964 	.uleb128	11
      000079 0F                    2965 	.uleb128	15
      00007A 00                    2966 	.db	0
      00007B 0B                    2967 	.uleb128	11
      00007C 0B                    2968 	.uleb128	11
      00007D 49                    2969 	.uleb128	73
      00007E 13                    2970 	.uleb128	19
      00007F 00                    2971 	.uleb128	0
      000080 00                    2972 	.uleb128	0
      000081 0C                    2973 	.uleb128	12
      000082 26                    2974 	.uleb128	38
      000083 00                    2975 	.db	0
      000084 49                    2976 	.uleb128	73
      000085 13                    2977 	.uleb128	19
      000086 00                    2978 	.uleb128	0
      000087 00                    2979 	.uleb128	0
      000088 0D                    2980 	.uleb128	13
      000089 0B                    2981 	.uleb128	11
      00008A 01                    2982 	.db	1
      00008B 01                    2983 	.uleb128	1
      00008C 13                    2984 	.uleb128	19
      00008D 11                    2985 	.uleb128	17
      00008E 01                    2986 	.uleb128	1
      00008F 00                    2987 	.uleb128	0
      000090 00                    2988 	.uleb128	0
      000091 0E                    2989 	.uleb128	14
      000092 0B                    2990 	.uleb128	11
      000093 01                    2991 	.db	1
      000094 11                    2992 	.uleb128	17
      000095 01                    2993 	.uleb128	1
      000096 12                    2994 	.uleb128	18
      000097 01                    2995 	.uleb128	1
      000098 00                    2996 	.uleb128	0
      000099 00                    2997 	.uleb128	0
      00009A 0F                    2998 	.uleb128	15
      00009B 34                    2999 	.uleb128	52
      00009C 00                    3000 	.db	0
      00009D 02                    3001 	.uleb128	2
      00009E 0A                    3002 	.uleb128	10
      00009F 03                    3003 	.uleb128	3
      0000A0 08                    3004 	.uleb128	8
      0000A1 3C                    3005 	.uleb128	60
      0000A2 0C                    3006 	.uleb128	12
      0000A3 3F                    3007 	.uleb128	63
      0000A4 0C                    3008 	.uleb128	12
      0000A5 49                    3009 	.uleb128	73
      0000A6 13                    3010 	.uleb128	19
      0000A7 00                    3011 	.uleb128	0
      0000A8 00                    3012 	.uleb128	0
      0000A9 10                    3013 	.uleb128	16
      0000AA 34                    3014 	.uleb128	52
      0000AB 00                    3015 	.db	0
      0000AC 02                    3016 	.uleb128	2
      0000AD 0A                    3017 	.uleb128	10
      0000AE 03                    3018 	.uleb128	3
      0000AF 08                    3019 	.uleb128	8
      0000B0 3F                    3020 	.uleb128	63
      0000B1 0C                    3021 	.uleb128	12
      0000B2 49                    3022 	.uleb128	73
      0000B3 13                    3023 	.uleb128	19
      0000B4 00                    3024 	.uleb128	0
      0000B5 00                    3025 	.uleb128	0
      0000B6 11                    3026 	.uleb128	17
      0000B7 01                    3027 	.uleb128	1
      0000B8 01                    3028 	.db	1
      0000B9 01                    3029 	.uleb128	1
      0000BA 13                    3030 	.uleb128	19
      0000BB 0B                    3031 	.uleb128	11
      0000BC 0B                    3032 	.uleb128	11
      0000BD 49                    3033 	.uleb128	73
      0000BE 13                    3034 	.uleb128	19
      0000BF 00                    3035 	.uleb128	0
      0000C0 00                    3036 	.uleb128	0
      0000C1 12                    3037 	.uleb128	18
      0000C2 21                    3038 	.uleb128	33
      0000C3 00                    3039 	.db	0
      0000C4 2F                    3040 	.uleb128	47
      0000C5 0B                    3041 	.uleb128	11
      0000C6 00                    3042 	.uleb128	0
      0000C7 00                    3043 	.uleb128	0
      0000C8 13                    3044 	.uleb128	19
      0000C9 35                    3045 	.uleb128	53
      0000CA 00                    3046 	.db	0
      0000CB 49                    3047 	.uleb128	73
      0000CC 13                    3048 	.uleb128	19
      0000CD 00                    3049 	.uleb128	0
      0000CE 00                    3050 	.uleb128	0
      0000CF 00                    3051 	.uleb128	0
                                   3052 
                                   3053 	.area .debug_info (NOLOAD)
      000000 00 00 13 64           3054 	.dw	0,Ldebug_info_end-Ldebug_info_start
      000004                       3055 Ldebug_info_start:
      000004 00 02                 3056 	.dw	2
      000006 00 00r00r00           3057 	.dw	0,(Ldebug_abbrev)
      00000A 04                    3058 	.db	4
      00000B 01                    3059 	.uleb128	1
      00000C 43 3A 2F 42 53 50 2F  3060 	.ascii "C:/BSP/MG51xC9AE_MG51xB9AE_Series/Library/StdDriver/src/eeprom.c"
             4D 47 35 31 78 43 39
             41 45 5F 4D 47 35 31
             78 42 39 41 45 5F 53
             65 72 69 65 73 2F 4C
             69 62 72 61 72 79 2F
             53 74 64 44 72 69 76
             65 72 2F 73 72 63 2F
             65 65 70 72 6F 6D 2E
             63
      00004C 00                    3061 	.db	0
      00004D 00 00r00r00           3062 	.dw	0,(Ldebug_line_start+-4)
      000051 01                    3063 	.db	1
      000052 53 44 43 43 20 76 65  3064 	.ascii "SDCC version 4.2.6 #13647"
             72 73 69 6F 6E 20 34
             2E 32 2E 36 20 23 31
             33 36 34 37
      00006B 00                    3065 	.db	0
      00006C 02                    3066 	.uleb128	2
      00006D 75 6E 73 69 67 6E 65  3067 	.ascii "unsigned char"
             64 20 63 68 61 72
      00007A 00                    3068 	.db	0
      00007B 01                    3069 	.db	1
      00007C 08                    3070 	.db	8
      00007D 03                    3071 	.uleb128	3
      00007E 00 00 01 2F           3072 	.dw	0,303
      000082 57 72 69 74 65 5F 44  3073 	.ascii "Write_DATAFLASH_BYTE"
             41 54 41 46 4C 41 53
             48 5F 42 59 54 45
      000096 00                    3074 	.db	0
      000097 00 00r00r00           3075 	.dw	0,(_Write_DATAFLASH_BYTE)
      00009B 00 00r01r48           3076 	.dw	0,(XG$Write_DATAFLASH_BYTE$0$0+1)
      00009F 01                    3077 	.db	1
      0000A0 00 00r00r3C           3078 	.dw	0,(Ldebug_loc_start+60)
      0000A4 00 00 00 6C           3079 	.dw	0,108
      0000A8 04                    3080 	.uleb128	4
      0000A9 05                    3081 	.db	5
      0000AA 03                    3082 	.db	3
      0000AB 00 00r01r01           3083 	.dw	0,(_Write_DATAFLASH_BYTE_u16EPAddr_65536_154)
      0000AF 75 31 36 45 50 41 64  3084 	.ascii "u16EPAddr"
             64 72
      0000B8 00                    3085 	.db	0
      0000B9 00 00 01 2F           3086 	.dw	0,303
      0000BD 05                    3087 	.uleb128	5
      0000BE 75 38 45 50 44 61 74  3088 	.ascii "u8EPData"
             61
      0000C6 00                    3089 	.db	0
      0000C7 00 00 00 6C           3090 	.dw	0,108
      0000CB 06                    3091 	.uleb128	6
      0000CC 00 00r00r27           3092 	.dw	0,(Seeprom$Write_DATAFLASH_BYTE$4)
      0000D0 00 00r00r27           3093 	.dw	0,(Seeprom$Write_DATAFLASH_BYTE$6)
      0000D4 07                    3094 	.uleb128	7
      0000D5 00 00 00 EB           3095 	.dw	0,235
      0000D9 00 00r00rC3           3096 	.dw	0,(Seeprom$Write_DATAFLASH_BYTE$19)
      0000DD 00 00r01r17           3097 	.dw	0,(Seeprom$Write_DATAFLASH_BYTE$34)
      0000E1 06                    3098 	.uleb128	6
      0000E2 00 00r01r13           3099 	.dw	0,(Seeprom$Write_DATAFLASH_BYTE$30)
      0000E6 00 00r01r15           3100 	.dw	0,(Seeprom$Write_DATAFLASH_BYTE$33)
      0000EA 00                    3101 	.uleb128	0
      0000EB 08                    3102 	.uleb128	8
      0000EC 6C 6F 6F 70 74 6D 70  3103 	.ascii "looptmp"
      0000F3 00                    3104 	.db	0
      0000F4 00 00 00 6C           3105 	.dw	0,108
      0000F8 08                    3106 	.uleb128	8
      0000F9 52 41 4D 74 6D 70     3107 	.ascii "RAMtmp"
      0000FF 00                    3108 	.db	0
      000100 00 00 00 6C           3109 	.dw	0,108
      000104 09                    3110 	.uleb128	9
      000105 05                    3111 	.db	5
      000106 03                    3112 	.db	3
      000107 00 00r01r03           3113 	.dw	0,(_Write_DATAFLASH_BYTE_checkdatatemp_65536_155)
      00010B 63 68 65 63 6B 64 61  3114 	.ascii "checkdatatemp"
             74 61 74 65 6D 70
      000118 00                    3115 	.db	0
      000119 00 00 00 6C           3116 	.dw	0,108
      00011D 08                    3117 	.uleb128	8
      00011E 75 31 36 5F 61 64 64  3118 	.ascii "u16_addrl_r"
             72 6C 5F 72
      000129 00                    3119 	.db	0
      00012A 00 00 01 2F           3120 	.dw	0,303
      00012E 00                    3121 	.uleb128	0
      00012F 02                    3122 	.uleb128	2
      000130 75 6E 73 69 67 6E 65  3123 	.ascii "unsigned int"
             64 20 69 6E 74
      00013C 00                    3124 	.db	0
      00013D 02                    3125 	.db	2
      00013E 07                    3126 	.db	7
      00013F 0A                    3127 	.uleb128	10
      000140 00 00 01 A4           3128 	.dw	0,420
      000144 52 65 61 64 5F 44 41  3129 	.ascii "Read_DATAFLASH_ARRAY"
             54 41 46 4C 41 53 48
             5F 41 52 52 41 59
      000158 00                    3130 	.db	0
      000159 00 00r01r4A           3131 	.dw	0,(_Read_DATAFLASH_ARRAY)
      00015D 00 00r01rB7           3132 	.dw	0,(XG$Read_DATAFLASH_ARRAY$0$0+1)
      000161 01                    3133 	.db	1
      000162 00 00r00r28           3134 	.dw	0,(Ldebug_loc_start+40)
      000166 04                    3135 	.uleb128	4
      000167 05                    3136 	.db	5
      000168 03                    3137 	.db	3
      000169 00 00r01r09           3138 	.dw	0,(_Read_DATAFLASH_ARRAY_u16_addr_65536_161)
      00016D 75 31 36 5F 61 64 64  3139 	.ascii "u16_addr"
             72
      000175 00                    3140 	.db	0
      000176 00 00 01 2F           3141 	.dw	0,303
      00017A 0B                    3142 	.uleb128	11
      00017B 03                    3143 	.db	3
      00017C 00 00 00 6C           3144 	.dw	0,108
      000180 05                    3145 	.uleb128	5
      000181 70 44 61 74           3146 	.ascii "pDat"
      000185 00                    3147 	.db	0
      000186 00 00 01 7A           3148 	.dw	0,378
      00018A 05                    3149 	.uleb128	5
      00018B 6E 75 6D              3150 	.ascii "num"
      00018E 00                    3151 	.db	0
      00018F 00 00 01 2F           3152 	.dw	0,303
      000193 06                    3153 	.uleb128	6
      000194 00 00r01r55           3154 	.dw	0,(Seeprom$Read_DATAFLASH_ARRAY$45)
      000198 00 00r01r6A           3155 	.dw	0,(Seeprom$Read_DATAFLASH_ARRAY$47)
      00019C 08                    3156 	.uleb128	8
      00019D 69                    3157 	.ascii "i"
      00019E 00                    3158 	.db	0
      00019F 00 00 01 2F           3159 	.dw	0,303
      0001A3 00                    3160 	.uleb128	0
      0001A4 03                    3161 	.uleb128	3
      0001A5 00 00 02 43           3162 	.dw	0,579
      0001A9 57 72 69 74 65 5F 44  3163 	.ascii "Write_DATAFLASH_ARRAY"
             41 54 41 46 4C 41 53
             48 5F 41 52 52 41 59
      0001BE 00                    3164 	.db	0
      0001BF 00 00r01rB7           3165 	.dw	0,(_Write_DATAFLASH_ARRAY)
      0001C3 00 00r02rD3           3166 	.dw	0,(XG$Write_DATAFLASH_ARRAY$0$0+1)
      0001C7 01                    3167 	.db	1
      0001C8 00 00r00r14           3168 	.dw	0,(Ldebug_loc_start+20)
      0001CC 00 00 00 6C           3169 	.dw	0,108
      0001D0 04                    3170 	.uleb128	4
      0001D1 05                    3171 	.db	5
      0001D2 03                    3172 	.db	3
      0001D3 00 00r01r10           3173 	.dw	0,(_Write_DATAFLASH_ARRAY_u16_addr_65536_165)
      0001D7 75 31 36 5F 61 64 64  3174 	.ascii "u16_addr"
             72
      0001DF 00                    3175 	.db	0
      0001E0 00 00 01 2F           3176 	.dw	0,303
      0001E4 04                    3177 	.uleb128	4
      0001E5 05                    3178 	.db	5
      0001E6 03                    3179 	.db	3
      0001E7 00 00r01r0B           3180 	.dw	0,(_Write_DATAFLASH_ARRAY_PARM_2)
      0001EB 70 44 61 74           3181 	.ascii "pDat"
      0001EF 00                    3182 	.db	0
      0001F0 00 00 01 7A           3183 	.dw	0,378
      0001F4 04                    3184 	.uleb128	4
      0001F5 05                    3185 	.db	5
      0001F6 03                    3186 	.db	3
      0001F7 00 00r01r0E           3187 	.dw	0,(_Write_DATAFLASH_ARRAY_PARM_3)
      0001FB 6E 75 6D              3188 	.ascii "num"
      0001FE 00                    3189 	.db	0
      0001FF 00 00 01 2F           3190 	.dw	0,303
      000203 06                    3191 	.uleb128	6
      000204 00 00r01rFE           3192 	.dw	0,(Seeprom$Write_DATAFLASH_ARRAY$59)
      000208 00 00r02r8E           3193 	.dw	0,(Seeprom$Write_DATAFLASH_ARRAY$65)
      00020C 06                    3194 	.uleb128	6
      00020D 00 00r02rA4           3195 	.dw	0,(Seeprom$Write_DATAFLASH_ARRAY$67)
      000211 00 00r02rCE           3196 	.dw	0,(Seeprom$Write_DATAFLASH_ARRAY$69)
      000215 09                    3197 	.uleb128	9
      000216 05                    3198 	.db	5
      000217 03                    3199 	.db	3
      000218 00 00r01r12           3200 	.dw	0,(_Write_DATAFLASH_ARRAY_CPageAddr_65536_166)
      00021C 43 50 61 67 65 41 64  3201 	.ascii "CPageAddr"
             64 72
      000225 00                    3202 	.db	0
      000226 00 00 00 6C           3203 	.dw	0,108
      00022A 08                    3204 	.uleb128	8
      00022B 45 50 61 67 65 41 64  3205 	.ascii "EPageAddr"
             64 72
      000234 00                    3206 	.db	0
      000235 00 00 00 6C           3207 	.dw	0,108
      000239 08                    3208 	.uleb128	8
      00023A 63 6E 74              3209 	.ascii "cnt"
      00023D 00                    3210 	.db	0
      00023E 00 00 00 6C           3211 	.dw	0,108
      000242 00                    3212 	.uleb128	0
      000243 03                    3213 	.uleb128	3
      000244 00 00 03 5F           3214 	.dw	0,863
      000248 57 72 69 74 65 44 61  3215 	.ascii "WriteDataToOnePage"
             74 61 54 6F 4F 6E 65
             50 61 67 65
      00025A 00                    3216 	.db	0
      00025B 00 00r02rD5           3217 	.dw	0,(_WriteDataToOnePage)
      00025F 00 00r05r8C           3218 	.dw	0,(XG$WriteDataToOnePage$0$0+1)
      000263 01                    3219 	.db	1
      000264 00 00r00r00           3220 	.dw	0,(Ldebug_loc_start)
      000268 00 00 00 6C           3221 	.dw	0,108
      00026C 04                    3222 	.uleb128	4
      00026D 05                    3223 	.db	5
      00026E 03                    3224 	.db	3
      00026F 00 00r01r17           3225 	.dw	0,(_WriteDataToOnePage_u16_addr_65536_169)
      000273 75 31 36 5F 61 64 64  3226 	.ascii "u16_addr"
             72
      00027B 00                    3227 	.db	0
      00027C 00 00 01 2F           3228 	.dw	0,303
      000280 0C                    3229 	.uleb128	12
      000281 00 00 00 6C           3230 	.dw	0,108
      000285 0B                    3231 	.uleb128	11
      000286 03                    3232 	.db	3
      000287 00 00 02 80           3233 	.dw	0,640
      00028B 05                    3234 	.uleb128	5
      00028C 70 44 61 74           3235 	.ascii "pDat"
      000290 00                    3236 	.db	0
      000291 00 00 02 85           3237 	.dw	0,645
      000295 04                    3238 	.uleb128	4
      000296 05                    3239 	.db	5
      000297 03                    3240 	.db	3
      000298 00 00r01r16           3241 	.dw	0,(_WriteDataToOnePage_PARM_3)
      00029C 6E 75 6D              3242 	.ascii "num"
      00029F 00                    3243 	.db	0
      0002A0 00 00 00 6C           3244 	.dw	0,108
      0002A4 06                    3245 	.uleb128	6
      0002A5 00 00r03r3F           3246 	.dw	0,(Seeprom$WriteDataToOnePage$83)
      0002A9 00 00r03r4D           3247 	.dw	0,(Seeprom$WriteDataToOnePage$85)
      0002AD 0D                    3248 	.uleb128	13
      0002AE 00 00 02 D7           3249 	.dw	0,727
      0002B2 00 00r03r5E           3250 	.dw	0,(Seeprom$WriteDataToOnePage$88)
      0002B6 07                    3251 	.uleb128	7
      0002B7 00 00 02 CD           3252 	.dw	0,717
      0002BB 00 00r03r6A           3253 	.dw	0,(Seeprom$WriteDataToOnePage$91)
      0002BF 00 00r03rED           3254 	.dw	0,(Seeprom$WriteDataToOnePage$107)
      0002C3 06                    3255 	.uleb128	6
      0002C4 00 00r03rE3           3256 	.dw	0,(Seeprom$WriteDataToOnePage$102)
      0002C8 00 00r03rE8           3257 	.dw	0,(Seeprom$WriteDataToOnePage$105)
      0002CC 00                    3258 	.uleb128	0
      0002CD 06                    3259 	.uleb128	6
      0002CE 00 00r03rF0           3260 	.dw	0,(Seeprom$WriteDataToOnePage$110)
      0002D2 00 00r03rF9           3261 	.dw	0,(Seeprom$WriteDataToOnePage$111)
      0002D6 00                    3262 	.uleb128	0
      0002D7 07                    3263 	.uleb128	7
      0002D8 00 00 03 21           3264 	.dw	0,801
      0002DC 00 00r04r41           3265 	.dw	0,(Seeprom$WriteDataToOnePage$115)
      0002E0 00 00r04rEE           3266 	.dw	0,(Seeprom$WriteDataToOnePage$136)
      0002E4 06                    3267 	.uleb128	6
      0002E5 00 00r04r4C           3268 	.dw	0,(Seeprom$WriteDataToOnePage$118)
      0002E9 00 00r04r4C           3269 	.dw	0,(Seeprom$WriteDataToOnePage$120)
      0002ED 06                    3270 	.uleb128	6
      0002EE 00 00r04r6B           3271 	.dw	0,(Seeprom$WriteDataToOnePage$123)
      0002F2 00 00r04r79           3272 	.dw	0,(Seeprom$WriteDataToOnePage$125)
      0002F6 0E                    3273 	.uleb128	14
      0002F7 00 00r04rC3           3274 	.dw	0,(Seeprom$WriteDataToOnePage$129)
      0002FB 00 00r04rCC           3275 	.dw	0,(Seeprom$WriteDataToOnePage$130)
      0002FF 07                    3276 	.uleb128	7
      000300 00 00 03 16           3277 	.dw	0,790
      000304 00 00r04rF0           3278 	.dw	0,(Seeprom$WriteDataToOnePage$138)
      000308 00 00r05r43           3279 	.dw	0,(Seeprom$WriteDataToOnePage$152)
      00030C 06                    3280 	.uleb128	6
      00030D 00 00r05r3A           3281 	.dw	0,(Seeprom$WriteDataToOnePage$147)
      000311 00 00r05r3C           3282 	.dw	0,(Seeprom$WriteDataToOnePage$150)
      000315 00                    3283 	.uleb128	0
      000316 06                    3284 	.uleb128	6
      000317 00 00r05r4B           3285 	.dw	0,(Seeprom$WriteDataToOnePage$155)
      00031B 00 00r05r66           3286 	.dw	0,(Seeprom$WriteDataToOnePage$157)
      00031F 00                    3287 	.uleb128	0
      000320 00                    3288 	.uleb128	0
      000321 0B                    3289 	.uleb128	11
      000322 02                    3290 	.db	2
      000323 00 00 02 80           3291 	.dw	0,640
      000327 08                    3292 	.uleb128	8
      000328 70 43 6F 64 65        3293 	.ascii "pCode"
      00032D 00                    3294 	.db	0
      00032E 00 00 03 21           3295 	.dw	0,801
      000332 08                    3296 	.uleb128	8
      000333 69                    3297 	.ascii "i"
      000334 00                    3298 	.db	0
      000335 00 00 00 6C           3299 	.dw	0,108
      000339 08                    3300 	.uleb128	8
      00033A 6F 66 66 73 65 74     3301 	.ascii "offset"
      000340 00                    3302 	.db	0
      000341 00 00 00 6C           3303 	.dw	0,108
      000345 09                    3304 	.uleb128	9
      000346 05                    3305 	.db	5
      000347 03                    3306 	.db	3
      000348 00 00r01r19           3307 	.dw	0,(_WriteDataToOnePage_checkdatatemp_65536_170)
      00034C 63 68 65 63 6B 64 61  3308 	.ascii "checkdatatemp"
             74 61 74 65 6D 70
      000359 00                    3309 	.db	0
      00035A 00 00 00 6C           3310 	.dw	0,108
      00035E 00                    3311 	.uleb128	0
      00035F 02                    3312 	.uleb128	2
      000360 5F 62 69 74           3313 	.ascii "_bit"
      000364 00                    3314 	.db	0
      000365 01                    3315 	.db	1
      000366 08                    3316 	.db	8
      000367 0F                    3317 	.uleb128	15
      000368 05                    3318 	.db	5
      000369 03                    3319 	.db	3
      00036A 00 00r00r00           3320 	.dw	0,(_BIT_TMP)
      00036E 42 49 54 5F 54 4D 50  3321 	.ascii "BIT_TMP"
      000375 00                    3322 	.db	0
      000376 01                    3323 	.db	1
      000377 01                    3324 	.db	1
      000378 00 00 03 5F           3325 	.dw	0,863
      00037C 10                    3326 	.uleb128	16
      00037D 05                    3327 	.db	5
      00037E 03                    3328 	.db	3
      00037F 00 00r00r00           3329 	.dw	0,(_EECHECKFLAG)
      000383 45 45 43 48 45 43 4B  3330 	.ascii "EECHECKFLAG"
             46 4C 41 47
      00038E 00                    3331 	.db	0
      00038F 01                    3332 	.db	1
      000390 00 00 03 5F           3333 	.dw	0,863
      000394 11                    3334 	.uleb128	17
      000395 00 00 03 A1           3335 	.dw	0,929
      000399 80                    3336 	.db	128
      00039A 00 00 00 6C           3337 	.dw	0,108
      00039E 12                    3338 	.uleb128	18
      00039F 7F                    3339 	.db	127
      0003A0 00                    3340 	.uleb128	0
      0003A1 10                    3341 	.uleb128	16
      0003A2 05                    3342 	.db	5
      0003A3 03                    3343 	.db	3
      0003A4 00 00r00r00           3344 	.dw	0,(_page_buffer)
      0003A8 70 61 67 65 5F 62 75  3345 	.ascii "page_buffer"
             66 66 65 72
      0003B3 00                    3346 	.db	0
      0003B4 01                    3347 	.db	1
      0003B5 00 00 03 94           3348 	.dw	0,916
      0003B9 10                    3349 	.uleb128	16
      0003BA 05                    3350 	.db	5
      0003BB 03                    3351 	.db	3
      0003BC 00 00r00r80           3352 	.dw	0,(_xd_tmp)
      0003C0 78 64 5F 74 6D 70     3353 	.ascii "xd_tmp"
      0003C6 00                    3354 	.db	0
      0003C7 01                    3355 	.db	1
      0003C8 00 00 03 94           3356 	.dw	0,916
      0003CC 13                    3357 	.uleb128	19
      0003CD 00 00 00 6C           3358 	.dw	0,108
      0003D1 10                    3359 	.uleb128	16
      0003D2 05                    3360 	.db	5
      0003D3 03                    3361 	.db	3
      0003D4 00 00 00 80           3362 	.dw	0,(_P0)
      0003D8 50 30                 3363 	.ascii "P0"
      0003DA 00                    3364 	.db	0
      0003DB 01                    3365 	.db	1
      0003DC 00 00 03 CC           3366 	.dw	0,972
      0003E0 10                    3367 	.uleb128	16
      0003E1 05                    3368 	.db	5
      0003E2 03                    3369 	.db	3
      0003E3 00 00 00 81           3370 	.dw	0,(_SP)
      0003E7 53 50                 3371 	.ascii "SP"
      0003E9 00                    3372 	.db	0
      0003EA 01                    3373 	.db	1
      0003EB 00 00 03 CC           3374 	.dw	0,972
      0003EF 10                    3375 	.uleb128	16
      0003F0 05                    3376 	.db	5
      0003F1 03                    3377 	.db	3
      0003F2 00 00 00 82           3378 	.dw	0,(_DPL)
      0003F6 44 50 4C              3379 	.ascii "DPL"
      0003F9 00                    3380 	.db	0
      0003FA 01                    3381 	.db	1
      0003FB 00 00 03 CC           3382 	.dw	0,972
      0003FF 10                    3383 	.uleb128	16
      000400 05                    3384 	.db	5
      000401 03                    3385 	.db	3
      000402 00 00 00 83           3386 	.dw	0,(_DPH)
      000406 44 50 48              3387 	.ascii "DPH"
      000409 00                    3388 	.db	0
      00040A 01                    3389 	.db	1
      00040B 00 00 03 CC           3390 	.dw	0,972
      00040F 10                    3391 	.uleb128	16
      000410 05                    3392 	.db	5
      000411 03                    3393 	.db	3
      000412 00 00 00 84           3394 	.dw	0,(_RCTRIM0)
      000416 52 43 54 52 49 4D 30  3395 	.ascii "RCTRIM0"
      00041D 00                    3396 	.db	0
      00041E 01                    3397 	.db	1
      00041F 00 00 03 CC           3398 	.dw	0,972
      000423 10                    3399 	.uleb128	16
      000424 05                    3400 	.db	5
      000425 03                    3401 	.db	3
      000426 00 00 00 85           3402 	.dw	0,(_RCTRIM1)
      00042A 52 43 54 52 49 4D 31  3403 	.ascii "RCTRIM1"
      000431 00                    3404 	.db	0
      000432 01                    3405 	.db	1
      000433 00 00 03 CC           3406 	.dw	0,972
      000437 10                    3407 	.uleb128	16
      000438 05                    3408 	.db	5
      000439 03                    3409 	.db	3
      00043A 00 00 00 86           3410 	.dw	0,(_RWK)
      00043E 52 57 4B              3411 	.ascii "RWK"
      000441 00                    3412 	.db	0
      000442 01                    3413 	.db	1
      000443 00 00 03 CC           3414 	.dw	0,972
      000447 10                    3415 	.uleb128	16
      000448 05                    3416 	.db	5
      000449 03                    3417 	.db	3
      00044A 00 00 00 87           3418 	.dw	0,(_PCON)
      00044E 50 43 4F 4E           3419 	.ascii "PCON"
      000452 00                    3420 	.db	0
      000453 01                    3421 	.db	1
      000454 00 00 03 CC           3422 	.dw	0,972
      000458 10                    3423 	.uleb128	16
      000459 05                    3424 	.db	5
      00045A 03                    3425 	.db	3
      00045B 00 00 00 88           3426 	.dw	0,(_TCON)
      00045F 54 43 4F 4E           3427 	.ascii "TCON"
      000463 00                    3428 	.db	0
      000464 01                    3429 	.db	1
      000465 00 00 03 CC           3430 	.dw	0,972
      000469 10                    3431 	.uleb128	16
      00046A 05                    3432 	.db	5
      00046B 03                    3433 	.db	3
      00046C 00 00 00 89           3434 	.dw	0,(_TMOD)
      000470 54 4D 4F 44           3435 	.ascii "TMOD"
      000474 00                    3436 	.db	0
      000475 01                    3437 	.db	1
      000476 00 00 03 CC           3438 	.dw	0,972
      00047A 10                    3439 	.uleb128	16
      00047B 05                    3440 	.db	5
      00047C 03                    3441 	.db	3
      00047D 00 00 00 8A           3442 	.dw	0,(_TL0)
      000481 54 4C 30              3443 	.ascii "TL0"
      000484 00                    3444 	.db	0
      000485 01                    3445 	.db	1
      000486 00 00 03 CC           3446 	.dw	0,972
      00048A 10                    3447 	.uleb128	16
      00048B 05                    3448 	.db	5
      00048C 03                    3449 	.db	3
      00048D 00 00 00 8B           3450 	.dw	0,(_TL1)
      000491 54 4C 31              3451 	.ascii "TL1"
      000494 00                    3452 	.db	0
      000495 01                    3453 	.db	1
      000496 00 00 03 CC           3454 	.dw	0,972
      00049A 10                    3455 	.uleb128	16
      00049B 05                    3456 	.db	5
      00049C 03                    3457 	.db	3
      00049D 00 00 00 8C           3458 	.dw	0,(_TH0)
      0004A1 54 48 30              3459 	.ascii "TH0"
      0004A4 00                    3460 	.db	0
      0004A5 01                    3461 	.db	1
      0004A6 00 00 03 CC           3462 	.dw	0,972
      0004AA 10                    3463 	.uleb128	16
      0004AB 05                    3464 	.db	5
      0004AC 03                    3465 	.db	3
      0004AD 00 00 00 8D           3466 	.dw	0,(_TH1)
      0004B1 54 48 31              3467 	.ascii "TH1"
      0004B4 00                    3468 	.db	0
      0004B5 01                    3469 	.db	1
      0004B6 00 00 03 CC           3470 	.dw	0,972
      0004BA 10                    3471 	.uleb128	16
      0004BB 05                    3472 	.db	5
      0004BC 03                    3473 	.db	3
      0004BD 00 00 00 8E           3474 	.dw	0,(_CKCON)
      0004C1 43 4B 43 4F 4E        3475 	.ascii "CKCON"
      0004C6 00                    3476 	.db	0
      0004C7 01                    3477 	.db	1
      0004C8 00 00 03 CC           3478 	.dw	0,972
      0004CC 10                    3479 	.uleb128	16
      0004CD 05                    3480 	.db	5
      0004CE 03                    3481 	.db	3
      0004CF 00 00 00 8F           3482 	.dw	0,(_WKCON)
      0004D3 57 4B 43 4F 4E        3483 	.ascii "WKCON"
      0004D8 00                    3484 	.db	0
      0004D9 01                    3485 	.db	1
      0004DA 00 00 03 CC           3486 	.dw	0,972
      0004DE 10                    3487 	.uleb128	16
      0004DF 05                    3488 	.db	5
      0004E0 03                    3489 	.db	3
      0004E1 00 00 00 90           3490 	.dw	0,(_P1)
      0004E5 50 31                 3491 	.ascii "P1"
      0004E7 00                    3492 	.db	0
      0004E8 01                    3493 	.db	1
      0004E9 00 00 03 CC           3494 	.dw	0,972
      0004ED 10                    3495 	.uleb128	16
      0004EE 05                    3496 	.db	5
      0004EF 03                    3497 	.db	3
      0004F0 00 00 00 91           3498 	.dw	0,(_SFRS)
      0004F4 53 46 52 53           3499 	.ascii "SFRS"
      0004F8 00                    3500 	.db	0
      0004F9 01                    3501 	.db	1
      0004FA 00 00 03 CC           3502 	.dw	0,972
      0004FE 10                    3503 	.uleb128	16
      0004FF 05                    3504 	.db	5
      000500 03                    3505 	.db	3
      000501 00 00 00 92           3506 	.dw	0,(_CAPCON0)
      000505 43 41 50 43 4F 4E 30  3507 	.ascii "CAPCON0"
      00050C 00                    3508 	.db	0
      00050D 01                    3509 	.db	1
      00050E 00 00 03 CC           3510 	.dw	0,972
      000512 10                    3511 	.uleb128	16
      000513 05                    3512 	.db	5
      000514 03                    3513 	.db	3
      000515 00 00 00 93           3514 	.dw	0,(_CAPCON1)
      000519 43 41 50 43 4F 4E 31  3515 	.ascii "CAPCON1"
      000520 00                    3516 	.db	0
      000521 01                    3517 	.db	1
      000522 00 00 03 CC           3518 	.dw	0,972
      000526 10                    3519 	.uleb128	16
      000527 05                    3520 	.db	5
      000528 03                    3521 	.db	3
      000529 00 00 00 94           3522 	.dw	0,(_CAPCON2)
      00052D 43 41 50 43 4F 4E 32  3523 	.ascii "CAPCON2"
      000534 00                    3524 	.db	0
      000535 01                    3525 	.db	1
      000536 00 00 03 CC           3526 	.dw	0,972
      00053A 10                    3527 	.uleb128	16
      00053B 05                    3528 	.db	5
      00053C 03                    3529 	.db	3
      00053D 00 00 00 95           3530 	.dw	0,(_CKDIV)
      000541 43 4B 44 49 56        3531 	.ascii "CKDIV"
      000546 00                    3532 	.db	0
      000547 01                    3533 	.db	1
      000548 00 00 03 CC           3534 	.dw	0,972
      00054C 10                    3535 	.uleb128	16
      00054D 05                    3536 	.db	5
      00054E 03                    3537 	.db	3
      00054F 00 00 00 96           3538 	.dw	0,(_CKSWT)
      000553 43 4B 53 57 54        3539 	.ascii "CKSWT"
      000558 00                    3540 	.db	0
      000559 01                    3541 	.db	1
      00055A 00 00 03 CC           3542 	.dw	0,972
      00055E 10                    3543 	.uleb128	16
      00055F 05                    3544 	.db	5
      000560 03                    3545 	.db	3
      000561 00 00 00 97           3546 	.dw	0,(_CKEN)
      000565 43 4B 45 4E           3547 	.ascii "CKEN"
      000569 00                    3548 	.db	0
      00056A 01                    3549 	.db	1
      00056B 00 00 03 CC           3550 	.dw	0,972
      00056F 10                    3551 	.uleb128	16
      000570 05                    3552 	.db	5
      000571 03                    3553 	.db	3
      000572 00 00 00 98           3554 	.dw	0,(_SCON)
      000576 53 43 4F 4E           3555 	.ascii "SCON"
      00057A 00                    3556 	.db	0
      00057B 01                    3557 	.db	1
      00057C 00 00 03 CC           3558 	.dw	0,972
      000580 10                    3559 	.uleb128	16
      000581 05                    3560 	.db	5
      000582 03                    3561 	.db	3
      000583 00 00 00 99           3562 	.dw	0,(_SBUF)
      000587 53 42 55 46           3563 	.ascii "SBUF"
      00058B 00                    3564 	.db	0
      00058C 01                    3565 	.db	1
      00058D 00 00 03 CC           3566 	.dw	0,972
      000591 10                    3567 	.uleb128	16
      000592 05                    3568 	.db	5
      000593 03                    3569 	.db	3
      000594 00 00 00 9A           3570 	.dw	0,(_SBUF_1)
      000598 53 42 55 46 5F 31     3571 	.ascii "SBUF_1"
      00059E 00                    3572 	.db	0
      00059F 01                    3573 	.db	1
      0005A0 00 00 03 CC           3574 	.dw	0,972
      0005A4 10                    3575 	.uleb128	16
      0005A5 05                    3576 	.db	5
      0005A6 03                    3577 	.db	3
      0005A7 00 00 00 9B           3578 	.dw	0,(_EIE)
      0005AB 45 49 45              3579 	.ascii "EIE"
      0005AE 00                    3580 	.db	0
      0005AF 01                    3581 	.db	1
      0005B0 00 00 03 CC           3582 	.dw	0,972
      0005B4 10                    3583 	.uleb128	16
      0005B5 05                    3584 	.db	5
      0005B6 03                    3585 	.db	3
      0005B7 00 00 00 9C           3586 	.dw	0,(_EIE1)
      0005BB 45 49 45 31           3587 	.ascii "EIE1"
      0005BF 00                    3588 	.db	0
      0005C0 01                    3589 	.db	1
      0005C1 00 00 03 CC           3590 	.dw	0,972
      0005C5 10                    3591 	.uleb128	16
      0005C6 05                    3592 	.db	5
      0005C7 03                    3593 	.db	3
      0005C8 00 00 00 9F           3594 	.dw	0,(_CHPCON)
      0005CC 43 48 50 43 4F 4E     3595 	.ascii "CHPCON"
      0005D2 00                    3596 	.db	0
      0005D3 01                    3597 	.db	1
      0005D4 00 00 03 CC           3598 	.dw	0,972
      0005D8 10                    3599 	.uleb128	16
      0005D9 05                    3600 	.db	5
      0005DA 03                    3601 	.db	3
      0005DB 00 00 00 A0           3602 	.dw	0,(_P2)
      0005DF 50 32                 3603 	.ascii "P2"
      0005E1 00                    3604 	.db	0
      0005E2 01                    3605 	.db	1
      0005E3 00 00 03 CC           3606 	.dw	0,972
      0005E7 10                    3607 	.uleb128	16
      0005E8 05                    3608 	.db	5
      0005E9 03                    3609 	.db	3
      0005EA 00 00 00 A2           3610 	.dw	0,(_AUXR1)
      0005EE 41 55 58 52 31        3611 	.ascii "AUXR1"
      0005F3 00                    3612 	.db	0
      0005F4 01                    3613 	.db	1
      0005F5 00 00 03 CC           3614 	.dw	0,972
      0005F9 10                    3615 	.uleb128	16
      0005FA 05                    3616 	.db	5
      0005FB 03                    3617 	.db	3
      0005FC 00 00 00 A3           3618 	.dw	0,(_BODCON0)
      000600 42 4F 44 43 4F 4E 30  3619 	.ascii "BODCON0"
      000607 00                    3620 	.db	0
      000608 01                    3621 	.db	1
      000609 00 00 03 CC           3622 	.dw	0,972
      00060D 10                    3623 	.uleb128	16
      00060E 05                    3624 	.db	5
      00060F 03                    3625 	.db	3
      000610 00 00 00 A4           3626 	.dw	0,(_IAPTRG)
      000614 49 41 50 54 52 47     3627 	.ascii "IAPTRG"
      00061A 00                    3628 	.db	0
      00061B 01                    3629 	.db	1
      00061C 00 00 03 CC           3630 	.dw	0,972
      000620 10                    3631 	.uleb128	16
      000621 05                    3632 	.db	5
      000622 03                    3633 	.db	3
      000623 00 00 00 A5           3634 	.dw	0,(_IAPUEN)
      000627 49 41 50 55 45 4E     3635 	.ascii "IAPUEN"
      00062D 00                    3636 	.db	0
      00062E 01                    3637 	.db	1
      00062F 00 00 03 CC           3638 	.dw	0,972
      000633 10                    3639 	.uleb128	16
      000634 05                    3640 	.db	5
      000635 03                    3641 	.db	3
      000636 00 00 00 A6           3642 	.dw	0,(_IAPAL)
      00063A 49 41 50 41 4C        3643 	.ascii "IAPAL"
      00063F 00                    3644 	.db	0
      000640 01                    3645 	.db	1
      000641 00 00 03 CC           3646 	.dw	0,972
      000645 10                    3647 	.uleb128	16
      000646 05                    3648 	.db	5
      000647 03                    3649 	.db	3
      000648 00 00 00 A7           3650 	.dw	0,(_IAPAH)
      00064C 49 41 50 41 48        3651 	.ascii "IAPAH"
      000651 00                    3652 	.db	0
      000652 01                    3653 	.db	1
      000653 00 00 03 CC           3654 	.dw	0,972
      000657 10                    3655 	.uleb128	16
      000658 05                    3656 	.db	5
      000659 03                    3657 	.db	3
      00065A 00 00 00 A8           3658 	.dw	0,(_IE)
      00065E 49 45                 3659 	.ascii "IE"
      000660 00                    3660 	.db	0
      000661 01                    3661 	.db	1
      000662 00 00 03 CC           3662 	.dw	0,972
      000666 10                    3663 	.uleb128	16
      000667 05                    3664 	.db	5
      000668 03                    3665 	.db	3
      000669 00 00 00 A9           3666 	.dw	0,(_SADDR)
      00066D 53 41 44 44 52        3667 	.ascii "SADDR"
      000672 00                    3668 	.db	0
      000673 01                    3669 	.db	1
      000674 00 00 03 CC           3670 	.dw	0,972
      000678 10                    3671 	.uleb128	16
      000679 05                    3672 	.db	5
      00067A 03                    3673 	.db	3
      00067B 00 00 00 AA           3674 	.dw	0,(_WDCON)
      00067F 57 44 43 4F 4E        3675 	.ascii "WDCON"
      000684 00                    3676 	.db	0
      000685 01                    3677 	.db	1
      000686 00 00 03 CC           3678 	.dw	0,972
      00068A 10                    3679 	.uleb128	16
      00068B 05                    3680 	.db	5
      00068C 03                    3681 	.db	3
      00068D 00 00 00 AB           3682 	.dw	0,(_BODCON1)
      000691 42 4F 44 43 4F 4E 31  3683 	.ascii "BODCON1"
      000698 00                    3684 	.db	0
      000699 01                    3685 	.db	1
      00069A 00 00 03 CC           3686 	.dw	0,972
      00069E 10                    3687 	.uleb128	16
      00069F 05                    3688 	.db	5
      0006A0 03                    3689 	.db	3
      0006A1 00 00 00 AC           3690 	.dw	0,(_P3M1)
      0006A5 50 33 4D 31           3691 	.ascii "P3M1"
      0006A9 00                    3692 	.db	0
      0006AA 01                    3693 	.db	1
      0006AB 00 00 03 CC           3694 	.dw	0,972
      0006AF 10                    3695 	.uleb128	16
      0006B0 05                    3696 	.db	5
      0006B1 03                    3697 	.db	3
      0006B2 00 00 00 AC           3698 	.dw	0,(_P3S)
      0006B6 50 33 53              3699 	.ascii "P3S"
      0006B9 00                    3700 	.db	0
      0006BA 01                    3701 	.db	1
      0006BB 00 00 03 CC           3702 	.dw	0,972
      0006BF 10                    3703 	.uleb128	16
      0006C0 05                    3704 	.db	5
      0006C1 03                    3705 	.db	3
      0006C2 00 00 00 AD           3706 	.dw	0,(_P3M2)
      0006C6 50 33 4D 32           3707 	.ascii "P3M2"
      0006CA 00                    3708 	.db	0
      0006CB 01                    3709 	.db	1
      0006CC 00 00 03 CC           3710 	.dw	0,972
      0006D0 10                    3711 	.uleb128	16
      0006D1 05                    3712 	.db	5
      0006D2 03                    3713 	.db	3
      0006D3 00 00 00 AD           3714 	.dw	0,(_P3SR)
      0006D7 50 33 53 52           3715 	.ascii "P3SR"
      0006DB 00                    3716 	.db	0
      0006DC 01                    3717 	.db	1
      0006DD 00 00 03 CC           3718 	.dw	0,972
      0006E1 10                    3719 	.uleb128	16
      0006E2 05                    3720 	.db	5
      0006E3 03                    3721 	.db	3
      0006E4 00 00 00 AE           3722 	.dw	0,(_IAPFD)
      0006E8 49 41 50 46 44        3723 	.ascii "IAPFD"
      0006ED 00                    3724 	.db	0
      0006EE 01                    3725 	.db	1
      0006EF 00 00 03 CC           3726 	.dw	0,972
      0006F3 10                    3727 	.uleb128	16
      0006F4 05                    3728 	.db	5
      0006F5 03                    3729 	.db	3
      0006F6 00 00 00 AF           3730 	.dw	0,(_IAPCN)
      0006FA 49 41 50 43 4E        3731 	.ascii "IAPCN"
      0006FF 00                    3732 	.db	0
      000700 01                    3733 	.db	1
      000701 00 00 03 CC           3734 	.dw	0,972
      000705 10                    3735 	.uleb128	16
      000706 05                    3736 	.db	5
      000707 03                    3737 	.db	3
      000708 00 00 00 B0           3738 	.dw	0,(_P3)
      00070C 50 33                 3739 	.ascii "P3"
      00070E 00                    3740 	.db	0
      00070F 01                    3741 	.db	1
      000710 00 00 03 CC           3742 	.dw	0,972
      000714 10                    3743 	.uleb128	16
      000715 05                    3744 	.db	5
      000716 03                    3745 	.db	3
      000717 00 00 00 B1           3746 	.dw	0,(_P0M1)
      00071B 50 30 4D 31           3747 	.ascii "P0M1"
      00071F 00                    3748 	.db	0
      000720 01                    3749 	.db	1
      000721 00 00 03 CC           3750 	.dw	0,972
      000725 10                    3751 	.uleb128	16
      000726 05                    3752 	.db	5
      000727 03                    3753 	.db	3
      000728 00 00 00 B1           3754 	.dw	0,(_P0S)
      00072C 50 30 53              3755 	.ascii "P0S"
      00072F 00                    3756 	.db	0
      000730 01                    3757 	.db	1
      000731 00 00 03 CC           3758 	.dw	0,972
      000735 10                    3759 	.uleb128	16
      000736 05                    3760 	.db	5
      000737 03                    3761 	.db	3
      000738 00 00 00 B2           3762 	.dw	0,(_P0M2)
      00073C 50 30 4D 32           3763 	.ascii "P0M2"
      000740 00                    3764 	.db	0
      000741 01                    3765 	.db	1
      000742 00 00 03 CC           3766 	.dw	0,972
      000746 10                    3767 	.uleb128	16
      000747 05                    3768 	.db	5
      000748 03                    3769 	.db	3
      000749 00 00 00 B2           3770 	.dw	0,(_P0SR)
      00074D 50 30 53 52           3771 	.ascii "P0SR"
      000751 00                    3772 	.db	0
      000752 01                    3773 	.db	1
      000753 00 00 03 CC           3774 	.dw	0,972
      000757 10                    3775 	.uleb128	16
      000758 05                    3776 	.db	5
      000759 03                    3777 	.db	3
      00075A 00 00 00 B3           3778 	.dw	0,(_P1M1)
      00075E 50 31 4D 31           3779 	.ascii "P1M1"
      000762 00                    3780 	.db	0
      000763 01                    3781 	.db	1
      000764 00 00 03 CC           3782 	.dw	0,972
      000768 10                    3783 	.uleb128	16
      000769 05                    3784 	.db	5
      00076A 03                    3785 	.db	3
      00076B 00 00 00 B3           3786 	.dw	0,(_P1S)
      00076F 50 31 53              3787 	.ascii "P1S"
      000772 00                    3788 	.db	0
      000773 01                    3789 	.db	1
      000774 00 00 03 CC           3790 	.dw	0,972
      000778 10                    3791 	.uleb128	16
      000779 05                    3792 	.db	5
      00077A 03                    3793 	.db	3
      00077B 00 00 00 B4           3794 	.dw	0,(_P1M2)
      00077F 50 31 4D 32           3795 	.ascii "P1M2"
      000783 00                    3796 	.db	0
      000784 01                    3797 	.db	1
      000785 00 00 03 CC           3798 	.dw	0,972
      000789 10                    3799 	.uleb128	16
      00078A 05                    3800 	.db	5
      00078B 03                    3801 	.db	3
      00078C 00 00 00 B4           3802 	.dw	0,(_P1SR)
      000790 50 31 53 52           3803 	.ascii "P1SR"
      000794 00                    3804 	.db	0
      000795 01                    3805 	.db	1
      000796 00 00 03 CC           3806 	.dw	0,972
      00079A 10                    3807 	.uleb128	16
      00079B 05                    3808 	.db	5
      00079C 03                    3809 	.db	3
      00079D 00 00 00 B5           3810 	.dw	0,(_P2S)
      0007A1 50 32 53              3811 	.ascii "P2S"
      0007A4 00                    3812 	.db	0
      0007A5 01                    3813 	.db	1
      0007A6 00 00 03 CC           3814 	.dw	0,972
      0007AA 10                    3815 	.uleb128	16
      0007AB 05                    3816 	.db	5
      0007AC 03                    3817 	.db	3
      0007AD 00 00 00 B7           3818 	.dw	0,(_IPH)
      0007B1 49 50 48              3819 	.ascii "IPH"
      0007B4 00                    3820 	.db	0
      0007B5 01                    3821 	.db	1
      0007B6 00 00 03 CC           3822 	.dw	0,972
      0007BA 10                    3823 	.uleb128	16
      0007BB 05                    3824 	.db	5
      0007BC 03                    3825 	.db	3
      0007BD 00 00 00 B7           3826 	.dw	0,(_PWMINTC)
      0007C1 50 57 4D 49 4E 54 43  3827 	.ascii "PWMINTC"
      0007C8 00                    3828 	.db	0
      0007C9 01                    3829 	.db	1
      0007CA 00 00 03 CC           3830 	.dw	0,972
      0007CE 10                    3831 	.uleb128	16
      0007CF 05                    3832 	.db	5
      0007D0 03                    3833 	.db	3
      0007D1 00 00 00 B8           3834 	.dw	0,(_IP)
      0007D5 49 50                 3835 	.ascii "IP"
      0007D7 00                    3836 	.db	0
      0007D8 01                    3837 	.db	1
      0007D9 00 00 03 CC           3838 	.dw	0,972
      0007DD 10                    3839 	.uleb128	16
      0007DE 05                    3840 	.db	5
      0007DF 03                    3841 	.db	3
      0007E0 00 00 00 B9           3842 	.dw	0,(_SADEN)
      0007E4 53 41 44 45 4E        3843 	.ascii "SADEN"
      0007E9 00                    3844 	.db	0
      0007EA 01                    3845 	.db	1
      0007EB 00 00 03 CC           3846 	.dw	0,972
      0007EF 10                    3847 	.uleb128	16
      0007F0 05                    3848 	.db	5
      0007F1 03                    3849 	.db	3
      0007F2 00 00 00 BA           3850 	.dw	0,(_SADEN_1)
      0007F6 53 41 44 45 4E 5F 31  3851 	.ascii "SADEN_1"
      0007FD 00                    3852 	.db	0
      0007FE 01                    3853 	.db	1
      0007FF 00 00 03 CC           3854 	.dw	0,972
      000803 10                    3855 	.uleb128	16
      000804 05                    3856 	.db	5
      000805 03                    3857 	.db	3
      000806 00 00 00 BB           3858 	.dw	0,(_SADDR_1)
      00080A 53 41 44 44 52 5F 31  3859 	.ascii "SADDR_1"
      000811 00                    3860 	.db	0
      000812 01                    3861 	.db	1
      000813 00 00 03 CC           3862 	.dw	0,972
      000817 10                    3863 	.uleb128	16
      000818 05                    3864 	.db	5
      000819 03                    3865 	.db	3
      00081A 00 00 00 BC           3866 	.dw	0,(_I2DAT)
      00081E 49 32 44 41 54        3867 	.ascii "I2DAT"
      000823 00                    3868 	.db	0
      000824 01                    3869 	.db	1
      000825 00 00 03 CC           3870 	.dw	0,972
      000829 10                    3871 	.uleb128	16
      00082A 05                    3872 	.db	5
      00082B 03                    3873 	.db	3
      00082C 00 00 00 BD           3874 	.dw	0,(_I2STAT)
      000830 49 32 53 54 41 54     3875 	.ascii "I2STAT"
      000836 00                    3876 	.db	0
      000837 01                    3877 	.db	1
      000838 00 00 03 CC           3878 	.dw	0,972
      00083C 10                    3879 	.uleb128	16
      00083D 05                    3880 	.db	5
      00083E 03                    3881 	.db	3
      00083F 00 00 00 BE           3882 	.dw	0,(_I2CLK)
      000843 49 32 43 4C 4B        3883 	.ascii "I2CLK"
      000848 00                    3884 	.db	0
      000849 01                    3885 	.db	1
      00084A 00 00 03 CC           3886 	.dw	0,972
      00084E 10                    3887 	.uleb128	16
      00084F 05                    3888 	.db	5
      000850 03                    3889 	.db	3
      000851 00 00 00 BF           3890 	.dw	0,(_I2TOC)
      000855 49 32 54 4F 43        3891 	.ascii "I2TOC"
      00085A 00                    3892 	.db	0
      00085B 01                    3893 	.db	1
      00085C 00 00 03 CC           3894 	.dw	0,972
      000860 10                    3895 	.uleb128	16
      000861 05                    3896 	.db	5
      000862 03                    3897 	.db	3
      000863 00 00 00 C0           3898 	.dw	0,(_I2CON)
      000867 49 32 43 4F 4E        3899 	.ascii "I2CON"
      00086C 00                    3900 	.db	0
      00086D 01                    3901 	.db	1
      00086E 00 00 03 CC           3902 	.dw	0,972
      000872 10                    3903 	.uleb128	16
      000873 05                    3904 	.db	5
      000874 03                    3905 	.db	3
      000875 00 00 00 C1           3906 	.dw	0,(_I2ADDR)
      000879 49 32 41 44 44 52     3907 	.ascii "I2ADDR"
      00087F 00                    3908 	.db	0
      000880 01                    3909 	.db	1
      000881 00 00 03 CC           3910 	.dw	0,972
      000885 10                    3911 	.uleb128	16
      000886 05                    3912 	.db	5
      000887 03                    3913 	.db	3
      000888 00 00 00 C2           3914 	.dw	0,(_ADCRL)
      00088C 41 44 43 52 4C        3915 	.ascii "ADCRL"
      000891 00                    3916 	.db	0
      000892 01                    3917 	.db	1
      000893 00 00 03 CC           3918 	.dw	0,972
      000897 10                    3919 	.uleb128	16
      000898 05                    3920 	.db	5
      000899 03                    3921 	.db	3
      00089A 00 00 00 C3           3922 	.dw	0,(_ADCRH)
      00089E 41 44 43 52 48        3923 	.ascii "ADCRH"
      0008A3 00                    3924 	.db	0
      0008A4 01                    3925 	.db	1
      0008A5 00 00 03 CC           3926 	.dw	0,972
      0008A9 10                    3927 	.uleb128	16
      0008AA 05                    3928 	.db	5
      0008AB 03                    3929 	.db	3
      0008AC 00 00 00 C4           3930 	.dw	0,(_T3CON)
      0008B0 54 33 43 4F 4E        3931 	.ascii "T3CON"
      0008B5 00                    3932 	.db	0
      0008B6 01                    3933 	.db	1
      0008B7 00 00 03 CC           3934 	.dw	0,972
      0008BB 10                    3935 	.uleb128	16
      0008BC 05                    3936 	.db	5
      0008BD 03                    3937 	.db	3
      0008BE 00 00 00 C4           3938 	.dw	0,(_PWM4H)
      0008C2 50 57 4D 34 48        3939 	.ascii "PWM4H"
      0008C7 00                    3940 	.db	0
      0008C8 01                    3941 	.db	1
      0008C9 00 00 03 CC           3942 	.dw	0,972
      0008CD 10                    3943 	.uleb128	16
      0008CE 05                    3944 	.db	5
      0008CF 03                    3945 	.db	3
      0008D0 00 00 00 C5           3946 	.dw	0,(_RL3)
      0008D4 52 4C 33              3947 	.ascii "RL3"
      0008D7 00                    3948 	.db	0
      0008D8 01                    3949 	.db	1
      0008D9 00 00 03 CC           3950 	.dw	0,972
      0008DD 10                    3951 	.uleb128	16
      0008DE 05                    3952 	.db	5
      0008DF 03                    3953 	.db	3
      0008E0 00 00 00 C5           3954 	.dw	0,(_PWM5H)
      0008E4 50 57 4D 35 48        3955 	.ascii "PWM5H"
      0008E9 00                    3956 	.db	0
      0008EA 01                    3957 	.db	1
      0008EB 00 00 03 CC           3958 	.dw	0,972
      0008EF 10                    3959 	.uleb128	16
      0008F0 05                    3960 	.db	5
      0008F1 03                    3961 	.db	3
      0008F2 00 00 00 C6           3962 	.dw	0,(_RH3)
      0008F6 52 48 33              3963 	.ascii "RH3"
      0008F9 00                    3964 	.db	0
      0008FA 01                    3965 	.db	1
      0008FB 00 00 03 CC           3966 	.dw	0,972
      0008FF 10                    3967 	.uleb128	16
      000900 05                    3968 	.db	5
      000901 03                    3969 	.db	3
      000902 00 00 00 C6           3970 	.dw	0,(_PIOCON1)
      000906 50 49 4F 43 4F 4E 31  3971 	.ascii "PIOCON1"
      00090D 00                    3972 	.db	0
      00090E 01                    3973 	.db	1
      00090F 00 00 03 CC           3974 	.dw	0,972
      000913 10                    3975 	.uleb128	16
      000914 05                    3976 	.db	5
      000915 03                    3977 	.db	3
      000916 00 00 00 C7           3978 	.dw	0,(_TA)
      00091A 54 41                 3979 	.ascii "TA"
      00091C 00                    3980 	.db	0
      00091D 01                    3981 	.db	1
      00091E 00 00 03 CC           3982 	.dw	0,972
      000922 10                    3983 	.uleb128	16
      000923 05                    3984 	.db	5
      000924 03                    3985 	.db	3
      000925 00 00 00 C8           3986 	.dw	0,(_T2CON)
      000929 54 32 43 4F 4E        3987 	.ascii "T2CON"
      00092E 00                    3988 	.db	0
      00092F 01                    3989 	.db	1
      000930 00 00 03 CC           3990 	.dw	0,972
      000934 10                    3991 	.uleb128	16
      000935 05                    3992 	.db	5
      000936 03                    3993 	.db	3
      000937 00 00 00 C9           3994 	.dw	0,(_T2MOD)
      00093B 54 32 4D 4F 44        3995 	.ascii "T2MOD"
      000940 00                    3996 	.db	0
      000941 01                    3997 	.db	1
      000942 00 00 03 CC           3998 	.dw	0,972
      000946 10                    3999 	.uleb128	16
      000947 05                    4000 	.db	5
      000948 03                    4001 	.db	3
      000949 00 00 00 CA           4002 	.dw	0,(_RCMP2L)
      00094D 52 43 4D 50 32 4C     4003 	.ascii "RCMP2L"
      000953 00                    4004 	.db	0
      000954 01                    4005 	.db	1
      000955 00 00 03 CC           4006 	.dw	0,972
      000959 10                    4007 	.uleb128	16
      00095A 05                    4008 	.db	5
      00095B 03                    4009 	.db	3
      00095C 00 00 00 CB           4010 	.dw	0,(_RCMP2H)
      000960 52 43 4D 50 32 48     4011 	.ascii "RCMP2H"
      000966 00                    4012 	.db	0
      000967 01                    4013 	.db	1
      000968 00 00 03 CC           4014 	.dw	0,972
      00096C 10                    4015 	.uleb128	16
      00096D 05                    4016 	.db	5
      00096E 03                    4017 	.db	3
      00096F 00 00 00 CC           4018 	.dw	0,(_TL2)
      000973 54 4C 32              4019 	.ascii "TL2"
      000976 00                    4020 	.db	0
      000977 01                    4021 	.db	1
      000978 00 00 03 CC           4022 	.dw	0,972
      00097C 10                    4023 	.uleb128	16
      00097D 05                    4024 	.db	5
      00097E 03                    4025 	.db	3
      00097F 00 00 00 CC           4026 	.dw	0,(_PWM4L)
      000983 50 57 4D 34 4C        4027 	.ascii "PWM4L"
      000988 00                    4028 	.db	0
      000989 01                    4029 	.db	1
      00098A 00 00 03 CC           4030 	.dw	0,972
      00098E 10                    4031 	.uleb128	16
      00098F 05                    4032 	.db	5
      000990 03                    4033 	.db	3
      000991 00 00 00 CD           4034 	.dw	0,(_TH2)
      000995 54 48 32              4035 	.ascii "TH2"
      000998 00                    4036 	.db	0
      000999 01                    4037 	.db	1
      00099A 00 00 03 CC           4038 	.dw	0,972
      00099E 10                    4039 	.uleb128	16
      00099F 05                    4040 	.db	5
      0009A0 03                    4041 	.db	3
      0009A1 00 00 00 CD           4042 	.dw	0,(_PWM5L)
      0009A5 50 57 4D 35 4C        4043 	.ascii "PWM5L"
      0009AA 00                    4044 	.db	0
      0009AB 01                    4045 	.db	1
      0009AC 00 00 03 CC           4046 	.dw	0,972
      0009B0 10                    4047 	.uleb128	16
      0009B1 05                    4048 	.db	5
      0009B2 03                    4049 	.db	3
      0009B3 00 00 00 CE           4050 	.dw	0,(_ADCMPL)
      0009B7 41 44 43 4D 50 4C     4051 	.ascii "ADCMPL"
      0009BD 00                    4052 	.db	0
      0009BE 01                    4053 	.db	1
      0009BF 00 00 03 CC           4054 	.dw	0,972
      0009C3 10                    4055 	.uleb128	16
      0009C4 05                    4056 	.db	5
      0009C5 03                    4057 	.db	3
      0009C6 00 00 00 CF           4058 	.dw	0,(_ADCMPH)
      0009CA 41 44 43 4D 50 48     4059 	.ascii "ADCMPH"
      0009D0 00                    4060 	.db	0
      0009D1 01                    4061 	.db	1
      0009D2 00 00 03 CC           4062 	.dw	0,972
      0009D6 10                    4063 	.uleb128	16
      0009D7 05                    4064 	.db	5
      0009D8 03                    4065 	.db	3
      0009D9 00 00 00 D0           4066 	.dw	0,(_PSW)
      0009DD 50 53 57              4067 	.ascii "PSW"
      0009E0 00                    4068 	.db	0
      0009E1 01                    4069 	.db	1
      0009E2 00 00 03 CC           4070 	.dw	0,972
      0009E6 10                    4071 	.uleb128	16
      0009E7 05                    4072 	.db	5
      0009E8 03                    4073 	.db	3
      0009E9 00 00 00 D1           4074 	.dw	0,(_PWMPH)
      0009ED 50 57 4D 50 48        4075 	.ascii "PWMPH"
      0009F2 00                    4076 	.db	0
      0009F3 01                    4077 	.db	1
      0009F4 00 00 03 CC           4078 	.dw	0,972
      0009F8 10                    4079 	.uleb128	16
      0009F9 05                    4080 	.db	5
      0009FA 03                    4081 	.db	3
      0009FB 00 00 00 D2           4082 	.dw	0,(_PWM0H)
      0009FF 50 57 4D 30 48        4083 	.ascii "PWM0H"
      000A04 00                    4084 	.db	0
      000A05 01                    4085 	.db	1
      000A06 00 00 03 CC           4086 	.dw	0,972
      000A0A 10                    4087 	.uleb128	16
      000A0B 05                    4088 	.db	5
      000A0C 03                    4089 	.db	3
      000A0D 00 00 00 D3           4090 	.dw	0,(_PWM1H)
      000A11 50 57 4D 31 48        4091 	.ascii "PWM1H"
      000A16 00                    4092 	.db	0
      000A17 01                    4093 	.db	1
      000A18 00 00 03 CC           4094 	.dw	0,972
      000A1C 10                    4095 	.uleb128	16
      000A1D 05                    4096 	.db	5
      000A1E 03                    4097 	.db	3
      000A1F 00 00 00 D4           4098 	.dw	0,(_PWM2H)
      000A23 50 57 4D 32 48        4099 	.ascii "PWM2H"
      000A28 00                    4100 	.db	0
      000A29 01                    4101 	.db	1
      000A2A 00 00 03 CC           4102 	.dw	0,972
      000A2E 10                    4103 	.uleb128	16
      000A2F 05                    4104 	.db	5
      000A30 03                    4105 	.db	3
      000A31 00 00 00 D5           4106 	.dw	0,(_PWM3H)
      000A35 50 57 4D 33 48        4107 	.ascii "PWM3H"
      000A3A 00                    4108 	.db	0
      000A3B 01                    4109 	.db	1
      000A3C 00 00 03 CC           4110 	.dw	0,972
      000A40 10                    4111 	.uleb128	16
      000A41 05                    4112 	.db	5
      000A42 03                    4113 	.db	3
      000A43 00 00 00 D6           4114 	.dw	0,(_PNP)
      000A47 50 4E 50              4115 	.ascii "PNP"
      000A4A 00                    4116 	.db	0
      000A4B 01                    4117 	.db	1
      000A4C 00 00 03 CC           4118 	.dw	0,972
      000A50 10                    4119 	.uleb128	16
      000A51 05                    4120 	.db	5
      000A52 03                    4121 	.db	3
      000A53 00 00 00 D7           4122 	.dw	0,(_FBD)
      000A57 46 42 44              4123 	.ascii "FBD"
      000A5A 00                    4124 	.db	0
      000A5B 01                    4125 	.db	1
      000A5C 00 00 03 CC           4126 	.dw	0,972
      000A60 10                    4127 	.uleb128	16
      000A61 05                    4128 	.db	5
      000A62 03                    4129 	.db	3
      000A63 00 00 00 D8           4130 	.dw	0,(_PWMCON0)
      000A67 50 57 4D 43 4F 4E 30  4131 	.ascii "PWMCON0"
      000A6E 00                    4132 	.db	0
      000A6F 01                    4133 	.db	1
      000A70 00 00 03 CC           4134 	.dw	0,972
      000A74 10                    4135 	.uleb128	16
      000A75 05                    4136 	.db	5
      000A76 03                    4137 	.db	3
      000A77 00 00 00 D9           4138 	.dw	0,(_PWMPL)
      000A7B 50 57 4D 50 4C        4139 	.ascii "PWMPL"
      000A80 00                    4140 	.db	0
      000A81 01                    4141 	.db	1
      000A82 00 00 03 CC           4142 	.dw	0,972
      000A86 10                    4143 	.uleb128	16
      000A87 05                    4144 	.db	5
      000A88 03                    4145 	.db	3
      000A89 00 00 00 DA           4146 	.dw	0,(_PWM0L)
      000A8D 50 57 4D 30 4C        4147 	.ascii "PWM0L"
      000A92 00                    4148 	.db	0
      000A93 01                    4149 	.db	1
      000A94 00 00 03 CC           4150 	.dw	0,972
      000A98 10                    4151 	.uleb128	16
      000A99 05                    4152 	.db	5
      000A9A 03                    4153 	.db	3
      000A9B 00 00 00 DB           4154 	.dw	0,(_PWM1L)
      000A9F 50 57 4D 31 4C        4155 	.ascii "PWM1L"
      000AA4 00                    4156 	.db	0
      000AA5 01                    4157 	.db	1
      000AA6 00 00 03 CC           4158 	.dw	0,972
      000AAA 10                    4159 	.uleb128	16
      000AAB 05                    4160 	.db	5
      000AAC 03                    4161 	.db	3
      000AAD 00 00 00 DC           4162 	.dw	0,(_PWM2L)
      000AB1 50 57 4D 32 4C        4163 	.ascii "PWM2L"
      000AB6 00                    4164 	.db	0
      000AB7 01                    4165 	.db	1
      000AB8 00 00 03 CC           4166 	.dw	0,972
      000ABC 10                    4167 	.uleb128	16
      000ABD 05                    4168 	.db	5
      000ABE 03                    4169 	.db	3
      000ABF 00 00 00 DD           4170 	.dw	0,(_PWM3L)
      000AC3 50 57 4D 33 4C        4171 	.ascii "PWM3L"
      000AC8 00                    4172 	.db	0
      000AC9 01                    4173 	.db	1
      000ACA 00 00 03 CC           4174 	.dw	0,972
      000ACE 10                    4175 	.uleb128	16
      000ACF 05                    4176 	.db	5
      000AD0 03                    4177 	.db	3
      000AD1 00 00 00 DE           4178 	.dw	0,(_PIOCON0)
      000AD5 50 49 4F 43 4F 4E 30  4179 	.ascii "PIOCON0"
      000ADC 00                    4180 	.db	0
      000ADD 01                    4181 	.db	1
      000ADE 00 00 03 CC           4182 	.dw	0,972
      000AE2 10                    4183 	.uleb128	16
      000AE3 05                    4184 	.db	5
      000AE4 03                    4185 	.db	3
      000AE5 00 00 00 DF           4186 	.dw	0,(_PWMCON1)
      000AE9 50 57 4D 43 4F 4E 31  4187 	.ascii "PWMCON1"
      000AF0 00                    4188 	.db	0
      000AF1 01                    4189 	.db	1
      000AF2 00 00 03 CC           4190 	.dw	0,972
      000AF6 10                    4191 	.uleb128	16
      000AF7 05                    4192 	.db	5
      000AF8 03                    4193 	.db	3
      000AF9 00 00 00 E0           4194 	.dw	0,(_ACC)
      000AFD 41 43 43              4195 	.ascii "ACC"
      000B00 00                    4196 	.db	0
      000B01 01                    4197 	.db	1
      000B02 00 00 03 CC           4198 	.dw	0,972
      000B06 10                    4199 	.uleb128	16
      000B07 05                    4200 	.db	5
      000B08 03                    4201 	.db	3
      000B09 00 00 00 E1           4202 	.dw	0,(_ADCCON1)
      000B0D 41 44 43 43 4F 4E 31  4203 	.ascii "ADCCON1"
      000B14 00                    4204 	.db	0
      000B15 01                    4205 	.db	1
      000B16 00 00 03 CC           4206 	.dw	0,972
      000B1A 10                    4207 	.uleb128	16
      000B1B 05                    4208 	.db	5
      000B1C 03                    4209 	.db	3
      000B1D 00 00 00 E2           4210 	.dw	0,(_ADCCON2)
      000B21 41 44 43 43 4F 4E 32  4211 	.ascii "ADCCON2"
      000B28 00                    4212 	.db	0
      000B29 01                    4213 	.db	1
      000B2A 00 00 03 CC           4214 	.dw	0,972
      000B2E 10                    4215 	.uleb128	16
      000B2F 05                    4216 	.db	5
      000B30 03                    4217 	.db	3
      000B31 00 00 00 E3           4218 	.dw	0,(_ADCDLY)
      000B35 41 44 43 44 4C 59     4219 	.ascii "ADCDLY"
      000B3B 00                    4220 	.db	0
      000B3C 01                    4221 	.db	1
      000B3D 00 00 03 CC           4222 	.dw	0,972
      000B41 10                    4223 	.uleb128	16
      000B42 05                    4224 	.db	5
      000B43 03                    4225 	.db	3
      000B44 00 00 00 E4           4226 	.dw	0,(_C0L)
      000B48 43 30 4C              4227 	.ascii "C0L"
      000B4B 00                    4228 	.db	0
      000B4C 01                    4229 	.db	1
      000B4D 00 00 03 CC           4230 	.dw	0,972
      000B51 10                    4231 	.uleb128	16
      000B52 05                    4232 	.db	5
      000B53 03                    4233 	.db	3
      000B54 00 00 00 E5           4234 	.dw	0,(_C0H)
      000B58 43 30 48              4235 	.ascii "C0H"
      000B5B 00                    4236 	.db	0
      000B5C 01                    4237 	.db	1
      000B5D 00 00 03 CC           4238 	.dw	0,972
      000B61 10                    4239 	.uleb128	16
      000B62 05                    4240 	.db	5
      000B63 03                    4241 	.db	3
      000B64 00 00 00 E6           4242 	.dw	0,(_C1L)
      000B68 43 31 4C              4243 	.ascii "C1L"
      000B6B 00                    4244 	.db	0
      000B6C 01                    4245 	.db	1
      000B6D 00 00 03 CC           4246 	.dw	0,972
      000B71 10                    4247 	.uleb128	16
      000B72 05                    4248 	.db	5
      000B73 03                    4249 	.db	3
      000B74 00 00 00 E7           4250 	.dw	0,(_C1H)
      000B78 43 31 48              4251 	.ascii "C1H"
      000B7B 00                    4252 	.db	0
      000B7C 01                    4253 	.db	1
      000B7D 00 00 03 CC           4254 	.dw	0,972
      000B81 10                    4255 	.uleb128	16
      000B82 05                    4256 	.db	5
      000B83 03                    4257 	.db	3
      000B84 00 00 00 E8           4258 	.dw	0,(_ADCCON0)
      000B88 41 44 43 43 4F 4E 30  4259 	.ascii "ADCCON0"
      000B8F 00                    4260 	.db	0
      000B90 01                    4261 	.db	1
      000B91 00 00 03 CC           4262 	.dw	0,972
      000B95 10                    4263 	.uleb128	16
      000B96 05                    4264 	.db	5
      000B97 03                    4265 	.db	3
      000B98 00 00 00 E9           4266 	.dw	0,(_PICON)
      000B9C 50 49 43 4F 4E        4267 	.ascii "PICON"
      000BA1 00                    4268 	.db	0
      000BA2 01                    4269 	.db	1
      000BA3 00 00 03 CC           4270 	.dw	0,972
      000BA7 10                    4271 	.uleb128	16
      000BA8 05                    4272 	.db	5
      000BA9 03                    4273 	.db	3
      000BAA 00 00 00 EA           4274 	.dw	0,(_PINEN)
      000BAE 50 49 4E 45 4E        4275 	.ascii "PINEN"
      000BB3 00                    4276 	.db	0
      000BB4 01                    4277 	.db	1
      000BB5 00 00 03 CC           4278 	.dw	0,972
      000BB9 10                    4279 	.uleb128	16
      000BBA 05                    4280 	.db	5
      000BBB 03                    4281 	.db	3
      000BBC 00 00 00 EB           4282 	.dw	0,(_PIPEN)
      000BC0 50 49 50 45 4E        4283 	.ascii "PIPEN"
      000BC5 00                    4284 	.db	0
      000BC6 01                    4285 	.db	1
      000BC7 00 00 03 CC           4286 	.dw	0,972
      000BCB 10                    4287 	.uleb128	16
      000BCC 05                    4288 	.db	5
      000BCD 03                    4289 	.db	3
      000BCE 00 00 00 EC           4290 	.dw	0,(_PIF)
      000BD2 50 49 46              4291 	.ascii "PIF"
      000BD5 00                    4292 	.db	0
      000BD6 01                    4293 	.db	1
      000BD7 00 00 03 CC           4294 	.dw	0,972
      000BDB 10                    4295 	.uleb128	16
      000BDC 05                    4296 	.db	5
      000BDD 03                    4297 	.db	3
      000BDE 00 00 00 ED           4298 	.dw	0,(_C2L)
      000BE2 43 32 4C              4299 	.ascii "C2L"
      000BE5 00                    4300 	.db	0
      000BE6 01                    4301 	.db	1
      000BE7 00 00 03 CC           4302 	.dw	0,972
      000BEB 10                    4303 	.uleb128	16
      000BEC 05                    4304 	.db	5
      000BED 03                    4305 	.db	3
      000BEE 00 00 00 EE           4306 	.dw	0,(_C2H)
      000BF2 43 32 48              4307 	.ascii "C2H"
      000BF5 00                    4308 	.db	0
      000BF6 01                    4309 	.db	1
      000BF7 00 00 03 CC           4310 	.dw	0,972
      000BFB 10                    4311 	.uleb128	16
      000BFC 05                    4312 	.db	5
      000BFD 03                    4313 	.db	3
      000BFE 00 00 00 EF           4314 	.dw	0,(_EIP)
      000C02 45 49 50              4315 	.ascii "EIP"
      000C05 00                    4316 	.db	0
      000C06 01                    4317 	.db	1
      000C07 00 00 03 CC           4318 	.dw	0,972
      000C0B 10                    4319 	.uleb128	16
      000C0C 05                    4320 	.db	5
      000C0D 03                    4321 	.db	3
      000C0E 00 00 00 F0           4322 	.dw	0,(_B)
      000C12 42                    4323 	.ascii "B"
      000C13 00                    4324 	.db	0
      000C14 01                    4325 	.db	1
      000C15 00 00 03 CC           4326 	.dw	0,972
      000C19 10                    4327 	.uleb128	16
      000C1A 05                    4328 	.db	5
      000C1B 03                    4329 	.db	3
      000C1C 00 00 00 F1           4330 	.dw	0,(_CAPCON3)
      000C20 43 41 50 43 4F 4E 33  4331 	.ascii "CAPCON3"
      000C27 00                    4332 	.db	0
      000C28 01                    4333 	.db	1
      000C29 00 00 03 CC           4334 	.dw	0,972
      000C2D 10                    4335 	.uleb128	16
      000C2E 05                    4336 	.db	5
      000C2F 03                    4337 	.db	3
      000C30 00 00 00 F2           4338 	.dw	0,(_CAPCON4)
      000C34 43 41 50 43 4F 4E 34  4339 	.ascii "CAPCON4"
      000C3B 00                    4340 	.db	0
      000C3C 01                    4341 	.db	1
      000C3D 00 00 03 CC           4342 	.dw	0,972
      000C41 10                    4343 	.uleb128	16
      000C42 05                    4344 	.db	5
      000C43 03                    4345 	.db	3
      000C44 00 00 00 F3           4346 	.dw	0,(_SPCR)
      000C48 53 50 43 52           4347 	.ascii "SPCR"
      000C4C 00                    4348 	.db	0
      000C4D 01                    4349 	.db	1
      000C4E 00 00 03 CC           4350 	.dw	0,972
      000C52 10                    4351 	.uleb128	16
      000C53 05                    4352 	.db	5
      000C54 03                    4353 	.db	3
      000C55 00 00 00 F3           4354 	.dw	0,(_SPCR2)
      000C59 53 50 43 52 32        4355 	.ascii "SPCR2"
      000C5E 00                    4356 	.db	0
      000C5F 01                    4357 	.db	1
      000C60 00 00 03 CC           4358 	.dw	0,972
      000C64 10                    4359 	.uleb128	16
      000C65 05                    4360 	.db	5
      000C66 03                    4361 	.db	3
      000C67 00 00 00 F4           4362 	.dw	0,(_SPSR)
      000C6B 53 50 53 52           4363 	.ascii "SPSR"
      000C6F 00                    4364 	.db	0
      000C70 01                    4365 	.db	1
      000C71 00 00 03 CC           4366 	.dw	0,972
      000C75 10                    4367 	.uleb128	16
      000C76 05                    4368 	.db	5
      000C77 03                    4369 	.db	3
      000C78 00 00 00 F5           4370 	.dw	0,(_SPDR)
      000C7C 53 50 44 52           4371 	.ascii "SPDR"
      000C80 00                    4372 	.db	0
      000C81 01                    4373 	.db	1
      000C82 00 00 03 CC           4374 	.dw	0,972
      000C86 10                    4375 	.uleb128	16
      000C87 05                    4376 	.db	5
      000C88 03                    4377 	.db	3
      000C89 00 00 00 F6           4378 	.dw	0,(_AINDIDS)
      000C8D 41 49 4E 44 49 44 53  4379 	.ascii "AINDIDS"
      000C94 00                    4380 	.db	0
      000C95 01                    4381 	.db	1
      000C96 00 00 03 CC           4382 	.dw	0,972
      000C9A 10                    4383 	.uleb128	16
      000C9B 05                    4384 	.db	5
      000C9C 03                    4385 	.db	3
      000C9D 00 00 00 F7           4386 	.dw	0,(_EIPH)
      000CA1 45 49 50 48           4387 	.ascii "EIPH"
      000CA5 00                    4388 	.db	0
      000CA6 01                    4389 	.db	1
      000CA7 00 00 03 CC           4390 	.dw	0,972
      000CAB 10                    4391 	.uleb128	16
      000CAC 05                    4392 	.db	5
      000CAD 03                    4393 	.db	3
      000CAE 00 00 00 F8           4394 	.dw	0,(_SCON_1)
      000CB2 53 43 4F 4E 5F 31     4395 	.ascii "SCON_1"
      000CB8 00                    4396 	.db	0
      000CB9 01                    4397 	.db	1
      000CBA 00 00 03 CC           4398 	.dw	0,972
      000CBE 10                    4399 	.uleb128	16
      000CBF 05                    4400 	.db	5
      000CC0 03                    4401 	.db	3
      000CC1 00 00 00 F9           4402 	.dw	0,(_PDTEN)
      000CC5 50 44 54 45 4E        4403 	.ascii "PDTEN"
      000CCA 00                    4404 	.db	0
      000CCB 01                    4405 	.db	1
      000CCC 00 00 03 CC           4406 	.dw	0,972
      000CD0 10                    4407 	.uleb128	16
      000CD1 05                    4408 	.db	5
      000CD2 03                    4409 	.db	3
      000CD3 00 00 00 FA           4410 	.dw	0,(_PDTCNT)
      000CD7 50 44 54 43 4E 54     4411 	.ascii "PDTCNT"
      000CDD 00                    4412 	.db	0
      000CDE 01                    4413 	.db	1
      000CDF 00 00 03 CC           4414 	.dw	0,972
      000CE3 10                    4415 	.uleb128	16
      000CE4 05                    4416 	.db	5
      000CE5 03                    4417 	.db	3
      000CE6 00 00 00 FB           4418 	.dw	0,(_PMEN)
      000CEA 50 4D 45 4E           4419 	.ascii "PMEN"
      000CEE 00                    4420 	.db	0
      000CEF 01                    4421 	.db	1
      000CF0 00 00 03 CC           4422 	.dw	0,972
      000CF4 10                    4423 	.uleb128	16
      000CF5 05                    4424 	.db	5
      000CF6 03                    4425 	.db	3
      000CF7 00 00 00 FC           4426 	.dw	0,(_PMD)
      000CFB 50 4D 44              4427 	.ascii "PMD"
      000CFE 00                    4428 	.db	0
      000CFF 01                    4429 	.db	1
      000D00 00 00 03 CC           4430 	.dw	0,972
      000D04 10                    4431 	.uleb128	16
      000D05 05                    4432 	.db	5
      000D06 03                    4433 	.db	3
      000D07 00 00 00 FE           4434 	.dw	0,(_EIP1)
      000D0B 45 49 50 31           4435 	.ascii "EIP1"
      000D0F 00                    4436 	.db	0
      000D10 01                    4437 	.db	1
      000D11 00 00 03 CC           4438 	.dw	0,972
      000D15 10                    4439 	.uleb128	16
      000D16 05                    4440 	.db	5
      000D17 03                    4441 	.db	3
      000D18 00 00 00 FF           4442 	.dw	0,(_EIPH1)
      000D1C 45 49 50 48 31        4443 	.ascii "EIPH1"
      000D21 00                    4444 	.db	0
      000D22 01                    4445 	.db	1
      000D23 00 00 03 CC           4446 	.dw	0,972
      000D27 02                    4447 	.uleb128	2
      000D28 5F 73 62 69 74        4448 	.ascii "_sbit"
      000D2D 00                    4449 	.db	0
      000D2E 01                    4450 	.db	1
      000D2F 08                    4451 	.db	8
      000D30 13                    4452 	.uleb128	19
      000D31 00 00 0D 27           4453 	.dw	0,3367
      000D35 10                    4454 	.uleb128	16
      000D36 05                    4455 	.db	5
      000D37 03                    4456 	.db	3
      000D38 00 00 00 FF           4457 	.dw	0,(_SM0_1)
      000D3C 53 4D 30 5F 31        4458 	.ascii "SM0_1"
      000D41 00                    4459 	.db	0
      000D42 01                    4460 	.db	1
      000D43 00 00 0D 30           4461 	.dw	0,3376
      000D47 10                    4462 	.uleb128	16
      000D48 05                    4463 	.db	5
      000D49 03                    4464 	.db	3
      000D4A 00 00 00 FF           4465 	.dw	0,(_FE_1)
      000D4E 46 45 5F 31           4466 	.ascii "FE_1"
      000D52 00                    4467 	.db	0
      000D53 01                    4468 	.db	1
      000D54 00 00 0D 30           4469 	.dw	0,3376
      000D58 10                    4470 	.uleb128	16
      000D59 05                    4471 	.db	5
      000D5A 03                    4472 	.db	3
      000D5B 00 00 00 FE           4473 	.dw	0,(_SM1_1)
      000D5F 53 4D 31 5F 31        4474 	.ascii "SM1_1"
      000D64 00                    4475 	.db	0
      000D65 01                    4476 	.db	1
      000D66 00 00 0D 30           4477 	.dw	0,3376
      000D6A 10                    4478 	.uleb128	16
      000D6B 05                    4479 	.db	5
      000D6C 03                    4480 	.db	3
      000D6D 00 00 00 FD           4481 	.dw	0,(_SM2_1)
      000D71 53 4D 32 5F 31        4482 	.ascii "SM2_1"
      000D76 00                    4483 	.db	0
      000D77 01                    4484 	.db	1
      000D78 00 00 0D 30           4485 	.dw	0,3376
      000D7C 10                    4486 	.uleb128	16
      000D7D 05                    4487 	.db	5
      000D7E 03                    4488 	.db	3
      000D7F 00 00 00 FC           4489 	.dw	0,(_REN_1)
      000D83 52 45 4E 5F 31        4490 	.ascii "REN_1"
      000D88 00                    4491 	.db	0
      000D89 01                    4492 	.db	1
      000D8A 00 00 0D 30           4493 	.dw	0,3376
      000D8E 10                    4494 	.uleb128	16
      000D8F 05                    4495 	.db	5
      000D90 03                    4496 	.db	3
      000D91 00 00 00 FB           4497 	.dw	0,(_TB8_1)
      000D95 54 42 38 5F 31        4498 	.ascii "TB8_1"
      000D9A 00                    4499 	.db	0
      000D9B 01                    4500 	.db	1
      000D9C 00 00 0D 30           4501 	.dw	0,3376
      000DA0 10                    4502 	.uleb128	16
      000DA1 05                    4503 	.db	5
      000DA2 03                    4504 	.db	3
      000DA3 00 00 00 FA           4505 	.dw	0,(_RB8_1)
      000DA7 52 42 38 5F 31        4506 	.ascii "RB8_1"
      000DAC 00                    4507 	.db	0
      000DAD 01                    4508 	.db	1
      000DAE 00 00 0D 30           4509 	.dw	0,3376
      000DB2 10                    4510 	.uleb128	16
      000DB3 05                    4511 	.db	5
      000DB4 03                    4512 	.db	3
      000DB5 00 00 00 F9           4513 	.dw	0,(_TI_1)
      000DB9 54 49 5F 31           4514 	.ascii "TI_1"
      000DBD 00                    4515 	.db	0
      000DBE 01                    4516 	.db	1
      000DBF 00 00 0D 30           4517 	.dw	0,3376
      000DC3 10                    4518 	.uleb128	16
      000DC4 05                    4519 	.db	5
      000DC5 03                    4520 	.db	3
      000DC6 00 00 00 F8           4521 	.dw	0,(_RI_1)
      000DCA 52 49 5F 31           4522 	.ascii "RI_1"
      000DCE 00                    4523 	.db	0
      000DCF 01                    4524 	.db	1
      000DD0 00 00 0D 30           4525 	.dw	0,3376
      000DD4 10                    4526 	.uleb128	16
      000DD5 05                    4527 	.db	5
      000DD6 03                    4528 	.db	3
      000DD7 00 00 00 EF           4529 	.dw	0,(_ADCF)
      000DDB 41 44 43 46           4530 	.ascii "ADCF"
      000DDF 00                    4531 	.db	0
      000DE0 01                    4532 	.db	1
      000DE1 00 00 0D 30           4533 	.dw	0,3376
      000DE5 10                    4534 	.uleb128	16
      000DE6 05                    4535 	.db	5
      000DE7 03                    4536 	.db	3
      000DE8 00 00 00 EE           4537 	.dw	0,(_ADCS)
      000DEC 41 44 43 53           4538 	.ascii "ADCS"
      000DF0 00                    4539 	.db	0
      000DF1 01                    4540 	.db	1
      000DF2 00 00 0D 30           4541 	.dw	0,3376
      000DF6 10                    4542 	.uleb128	16
      000DF7 05                    4543 	.db	5
      000DF8 03                    4544 	.db	3
      000DF9 00 00 00 ED           4545 	.dw	0,(_ETGSEL1)
      000DFD 45 54 47 53 45 4C 31  4546 	.ascii "ETGSEL1"
      000E04 00                    4547 	.db	0
      000E05 01                    4548 	.db	1
      000E06 00 00 0D 30           4549 	.dw	0,3376
      000E0A 10                    4550 	.uleb128	16
      000E0B 05                    4551 	.db	5
      000E0C 03                    4552 	.db	3
      000E0D 00 00 00 EC           4553 	.dw	0,(_ETGSEL0)
      000E11 45 54 47 53 45 4C 30  4554 	.ascii "ETGSEL0"
      000E18 00                    4555 	.db	0
      000E19 01                    4556 	.db	1
      000E1A 00 00 0D 30           4557 	.dw	0,3376
      000E1E 10                    4558 	.uleb128	16
      000E1F 05                    4559 	.db	5
      000E20 03                    4560 	.db	3
      000E21 00 00 00 EB           4561 	.dw	0,(_ADCHS3)
      000E25 41 44 43 48 53 33     4562 	.ascii "ADCHS3"
      000E2B 00                    4563 	.db	0
      000E2C 01                    4564 	.db	1
      000E2D 00 00 0D 30           4565 	.dw	0,3376
      000E31 10                    4566 	.uleb128	16
      000E32 05                    4567 	.db	5
      000E33 03                    4568 	.db	3
      000E34 00 00 00 EA           4569 	.dw	0,(_ADCHS2)
      000E38 41 44 43 48 53 32     4570 	.ascii "ADCHS2"
      000E3E 00                    4571 	.db	0
      000E3F 01                    4572 	.db	1
      000E40 00 00 0D 30           4573 	.dw	0,3376
      000E44 10                    4574 	.uleb128	16
      000E45 05                    4575 	.db	5
      000E46 03                    4576 	.db	3
      000E47 00 00 00 E9           4577 	.dw	0,(_ADCHS1)
      000E4B 41 44 43 48 53 31     4578 	.ascii "ADCHS1"
      000E51 00                    4579 	.db	0
      000E52 01                    4580 	.db	1
      000E53 00 00 0D 30           4581 	.dw	0,3376
      000E57 10                    4582 	.uleb128	16
      000E58 05                    4583 	.db	5
      000E59 03                    4584 	.db	3
      000E5A 00 00 00 E8           4585 	.dw	0,(_ADCHS0)
      000E5E 41 44 43 48 53 30     4586 	.ascii "ADCHS0"
      000E64 00                    4587 	.db	0
      000E65 01                    4588 	.db	1
      000E66 00 00 0D 30           4589 	.dw	0,3376
      000E6A 10                    4590 	.uleb128	16
      000E6B 05                    4591 	.db	5
      000E6C 03                    4592 	.db	3
      000E6D 00 00 00 DF           4593 	.dw	0,(_PWMRUN)
      000E71 50 57 4D 52 55 4E     4594 	.ascii "PWMRUN"
      000E77 00                    4595 	.db	0
      000E78 01                    4596 	.db	1
      000E79 00 00 0D 30           4597 	.dw	0,3376
      000E7D 10                    4598 	.uleb128	16
      000E7E 05                    4599 	.db	5
      000E7F 03                    4600 	.db	3
      000E80 00 00 00 DE           4601 	.dw	0,(_LOAD)
      000E84 4C 4F 41 44           4602 	.ascii "LOAD"
      000E88 00                    4603 	.db	0
      000E89 01                    4604 	.db	1
      000E8A 00 00 0D 30           4605 	.dw	0,3376
      000E8E 10                    4606 	.uleb128	16
      000E8F 05                    4607 	.db	5
      000E90 03                    4608 	.db	3
      000E91 00 00 00 DD           4609 	.dw	0,(_PWMF)
      000E95 50 57 4D 46           4610 	.ascii "PWMF"
      000E99 00                    4611 	.db	0
      000E9A 01                    4612 	.db	1
      000E9B 00 00 0D 30           4613 	.dw	0,3376
      000E9F 10                    4614 	.uleb128	16
      000EA0 05                    4615 	.db	5
      000EA1 03                    4616 	.db	3
      000EA2 00 00 00 DC           4617 	.dw	0,(_CLRPWM)
      000EA6 43 4C 52 50 57 4D     4618 	.ascii "CLRPWM"
      000EAC 00                    4619 	.db	0
      000EAD 01                    4620 	.db	1
      000EAE 00 00 0D 30           4621 	.dw	0,3376
      000EB2 10                    4622 	.uleb128	16
      000EB3 05                    4623 	.db	5
      000EB4 03                    4624 	.db	3
      000EB5 00 00 00 D7           4625 	.dw	0,(_CY)
      000EB9 43 59                 4626 	.ascii "CY"
      000EBB 00                    4627 	.db	0
      000EBC 01                    4628 	.db	1
      000EBD 00 00 0D 30           4629 	.dw	0,3376
      000EC1 10                    4630 	.uleb128	16
      000EC2 05                    4631 	.db	5
      000EC3 03                    4632 	.db	3
      000EC4 00 00 00 D6           4633 	.dw	0,(_AC)
      000EC8 41 43                 4634 	.ascii "AC"
      000ECA 00                    4635 	.db	0
      000ECB 01                    4636 	.db	1
      000ECC 00 00 0D 30           4637 	.dw	0,3376
      000ED0 10                    4638 	.uleb128	16
      000ED1 05                    4639 	.db	5
      000ED2 03                    4640 	.db	3
      000ED3 00 00 00 D5           4641 	.dw	0,(_F0)
      000ED7 46 30                 4642 	.ascii "F0"
      000ED9 00                    4643 	.db	0
      000EDA 01                    4644 	.db	1
      000EDB 00 00 0D 30           4645 	.dw	0,3376
      000EDF 10                    4646 	.uleb128	16
      000EE0 05                    4647 	.db	5
      000EE1 03                    4648 	.db	3
      000EE2 00 00 00 D4           4649 	.dw	0,(_RS1)
      000EE6 52 53 31              4650 	.ascii "RS1"
      000EE9 00                    4651 	.db	0
      000EEA 01                    4652 	.db	1
      000EEB 00 00 0D 30           4653 	.dw	0,3376
      000EEF 10                    4654 	.uleb128	16
      000EF0 05                    4655 	.db	5
      000EF1 03                    4656 	.db	3
      000EF2 00 00 00 D3           4657 	.dw	0,(_RS0)
      000EF6 52 53 30              4658 	.ascii "RS0"
      000EF9 00                    4659 	.db	0
      000EFA 01                    4660 	.db	1
      000EFB 00 00 0D 30           4661 	.dw	0,3376
      000EFF 10                    4662 	.uleb128	16
      000F00 05                    4663 	.db	5
      000F01 03                    4664 	.db	3
      000F02 00 00 00 D2           4665 	.dw	0,(_OV)
      000F06 4F 56                 4666 	.ascii "OV"
      000F08 00                    4667 	.db	0
      000F09 01                    4668 	.db	1
      000F0A 00 00 0D 30           4669 	.dw	0,3376
      000F0E 10                    4670 	.uleb128	16
      000F0F 05                    4671 	.db	5
      000F10 03                    4672 	.db	3
      000F11 00 00 00 D0           4673 	.dw	0,(_P)
      000F15 50                    4674 	.ascii "P"
      000F16 00                    4675 	.db	0
      000F17 01                    4676 	.db	1
      000F18 00 00 0D 30           4677 	.dw	0,3376
      000F1C 10                    4678 	.uleb128	16
      000F1D 05                    4679 	.db	5
      000F1E 03                    4680 	.db	3
      000F1F 00 00 00 CF           4681 	.dw	0,(_TF2)
      000F23 54 46 32              4682 	.ascii "TF2"
      000F26 00                    4683 	.db	0
      000F27 01                    4684 	.db	1
      000F28 00 00 0D 30           4685 	.dw	0,3376
      000F2C 10                    4686 	.uleb128	16
      000F2D 05                    4687 	.db	5
      000F2E 03                    4688 	.db	3
      000F2F 00 00 00 CA           4689 	.dw	0,(_TR2)
      000F33 54 52 32              4690 	.ascii "TR2"
      000F36 00                    4691 	.db	0
      000F37 01                    4692 	.db	1
      000F38 00 00 0D 30           4693 	.dw	0,3376
      000F3C 10                    4694 	.uleb128	16
      000F3D 05                    4695 	.db	5
      000F3E 03                    4696 	.db	3
      000F3F 00 00 00 C8           4697 	.dw	0,(_CM_RL2)
      000F43 43 4D 5F 52 4C 32     4698 	.ascii "CM_RL2"
      000F49 00                    4699 	.db	0
      000F4A 01                    4700 	.db	1
      000F4B 00 00 0D 30           4701 	.dw	0,3376
      000F4F 10                    4702 	.uleb128	16
      000F50 05                    4703 	.db	5
      000F51 03                    4704 	.db	3
      000F52 00 00 00 C6           4705 	.dw	0,(_I2CEN)
      000F56 49 32 43 45 4E        4706 	.ascii "I2CEN"
      000F5B 00                    4707 	.db	0
      000F5C 01                    4708 	.db	1
      000F5D 00 00 0D 30           4709 	.dw	0,3376
      000F61 10                    4710 	.uleb128	16
      000F62 05                    4711 	.db	5
      000F63 03                    4712 	.db	3
      000F64 00 00 00 C5           4713 	.dw	0,(_STA)
      000F68 53 54 41              4714 	.ascii "STA"
      000F6B 00                    4715 	.db	0
      000F6C 01                    4716 	.db	1
      000F6D 00 00 0D 30           4717 	.dw	0,3376
      000F71 10                    4718 	.uleb128	16
      000F72 05                    4719 	.db	5
      000F73 03                    4720 	.db	3
      000F74 00 00 00 C4           4721 	.dw	0,(_STO)
      000F78 53 54 4F              4722 	.ascii "STO"
      000F7B 00                    4723 	.db	0
      000F7C 01                    4724 	.db	1
      000F7D 00 00 0D 30           4725 	.dw	0,3376
      000F81 10                    4726 	.uleb128	16
      000F82 05                    4727 	.db	5
      000F83 03                    4728 	.db	3
      000F84 00 00 00 C3           4729 	.dw	0,(_SI)
      000F88 53 49                 4730 	.ascii "SI"
      000F8A 00                    4731 	.db	0
      000F8B 01                    4732 	.db	1
      000F8C 00 00 0D 30           4733 	.dw	0,3376
      000F90 10                    4734 	.uleb128	16
      000F91 05                    4735 	.db	5
      000F92 03                    4736 	.db	3
      000F93 00 00 00 C2           4737 	.dw	0,(_AA)
      000F97 41 41                 4738 	.ascii "AA"
      000F99 00                    4739 	.db	0
      000F9A 01                    4740 	.db	1
      000F9B 00 00 0D 30           4741 	.dw	0,3376
      000F9F 10                    4742 	.uleb128	16
      000FA0 05                    4743 	.db	5
      000FA1 03                    4744 	.db	3
      000FA2 00 00 00 C0           4745 	.dw	0,(_I2CPX)
      000FA6 49 32 43 50 58        4746 	.ascii "I2CPX"
      000FAB 00                    4747 	.db	0
      000FAC 01                    4748 	.db	1
      000FAD 00 00 0D 30           4749 	.dw	0,3376
      000FB1 10                    4750 	.uleb128	16
      000FB2 05                    4751 	.db	5
      000FB3 03                    4752 	.db	3
      000FB4 00 00 00 BE           4753 	.dw	0,(_PADC)
      000FB8 50 41 44 43           4754 	.ascii "PADC"
      000FBC 00                    4755 	.db	0
      000FBD 01                    4756 	.db	1
      000FBE 00 00 0D 30           4757 	.dw	0,3376
      000FC2 10                    4758 	.uleb128	16
      000FC3 05                    4759 	.db	5
      000FC4 03                    4760 	.db	3
      000FC5 00 00 00 BD           4761 	.dw	0,(_PBOD)
      000FC9 50 42 4F 44           4762 	.ascii "PBOD"
      000FCD 00                    4763 	.db	0
      000FCE 01                    4764 	.db	1
      000FCF 00 00 0D 30           4765 	.dw	0,3376
      000FD3 10                    4766 	.uleb128	16
      000FD4 05                    4767 	.db	5
      000FD5 03                    4768 	.db	3
      000FD6 00 00 00 BC           4769 	.dw	0,(_PS)
      000FDA 50 53                 4770 	.ascii "PS"
      000FDC 00                    4771 	.db	0
      000FDD 01                    4772 	.db	1
      000FDE 00 00 0D 30           4773 	.dw	0,3376
      000FE2 10                    4774 	.uleb128	16
      000FE3 05                    4775 	.db	5
      000FE4 03                    4776 	.db	3
      000FE5 00 00 00 BB           4777 	.dw	0,(_PT1)
      000FE9 50 54 31              4778 	.ascii "PT1"
      000FEC 00                    4779 	.db	0
      000FED 01                    4780 	.db	1
      000FEE 00 00 0D 30           4781 	.dw	0,3376
      000FF2 10                    4782 	.uleb128	16
      000FF3 05                    4783 	.db	5
      000FF4 03                    4784 	.db	3
      000FF5 00 00 00 BA           4785 	.dw	0,(_PX1)
      000FF9 50 58 31              4786 	.ascii "PX1"
      000FFC 00                    4787 	.db	0
      000FFD 01                    4788 	.db	1
      000FFE 00 00 0D 30           4789 	.dw	0,3376
      001002 10                    4790 	.uleb128	16
      001003 05                    4791 	.db	5
      001004 03                    4792 	.db	3
      001005 00 00 00 B9           4793 	.dw	0,(_PT0)
      001009 50 54 30              4794 	.ascii "PT0"
      00100C 00                    4795 	.db	0
      00100D 01                    4796 	.db	1
      00100E 00 00 0D 30           4797 	.dw	0,3376
      001012 10                    4798 	.uleb128	16
      001013 05                    4799 	.db	5
      001014 03                    4800 	.db	3
      001015 00 00 00 B8           4801 	.dw	0,(_PX0)
      001019 50 58 30              4802 	.ascii "PX0"
      00101C 00                    4803 	.db	0
      00101D 01                    4804 	.db	1
      00101E 00 00 0D 30           4805 	.dw	0,3376
      001022 10                    4806 	.uleb128	16
      001023 05                    4807 	.db	5
      001024 03                    4808 	.db	3
      001025 00 00 00 B0           4809 	.dw	0,(_P30)
      001029 50 33 30              4810 	.ascii "P30"
      00102C 00                    4811 	.db	0
      00102D 01                    4812 	.db	1
      00102E 00 00 0D 30           4813 	.dw	0,3376
      001032 10                    4814 	.uleb128	16
      001033 05                    4815 	.db	5
      001034 03                    4816 	.db	3
      001035 00 00 00 AF           4817 	.dw	0,(_EA)
      001039 45 41                 4818 	.ascii "EA"
      00103B 00                    4819 	.db	0
      00103C 01                    4820 	.db	1
      00103D 00 00 0D 30           4821 	.dw	0,3376
      001041 10                    4822 	.uleb128	16
      001042 05                    4823 	.db	5
      001043 03                    4824 	.db	3
      001044 00 00 00 AE           4825 	.dw	0,(_EADC)
      001048 45 41 44 43           4826 	.ascii "EADC"
      00104C 00                    4827 	.db	0
      00104D 01                    4828 	.db	1
      00104E 00 00 0D 30           4829 	.dw	0,3376
      001052 10                    4830 	.uleb128	16
      001053 05                    4831 	.db	5
      001054 03                    4832 	.db	3
      001055 00 00 00 AD           4833 	.dw	0,(_EBOD)
      001059 45 42 4F 44           4834 	.ascii "EBOD"
      00105D 00                    4835 	.db	0
      00105E 01                    4836 	.db	1
      00105F 00 00 0D 30           4837 	.dw	0,3376
      001063 10                    4838 	.uleb128	16
      001064 05                    4839 	.db	5
      001065 03                    4840 	.db	3
      001066 00 00 00 AC           4841 	.dw	0,(_ES)
      00106A 45 53                 4842 	.ascii "ES"
      00106C 00                    4843 	.db	0
      00106D 01                    4844 	.db	1
      00106E 00 00 0D 30           4845 	.dw	0,3376
      001072 10                    4846 	.uleb128	16
      001073 05                    4847 	.db	5
      001074 03                    4848 	.db	3
      001075 00 00 00 AB           4849 	.dw	0,(_ET1)
      001079 45 54 31              4850 	.ascii "ET1"
      00107C 00                    4851 	.db	0
      00107D 01                    4852 	.db	1
      00107E 00 00 0D 30           4853 	.dw	0,3376
      001082 10                    4854 	.uleb128	16
      001083 05                    4855 	.db	5
      001084 03                    4856 	.db	3
      001085 00 00 00 AA           4857 	.dw	0,(_EX1)
      001089 45 58 31              4858 	.ascii "EX1"
      00108C 00                    4859 	.db	0
      00108D 01                    4860 	.db	1
      00108E 00 00 0D 30           4861 	.dw	0,3376
      001092 10                    4862 	.uleb128	16
      001093 05                    4863 	.db	5
      001094 03                    4864 	.db	3
      001095 00 00 00 A9           4865 	.dw	0,(_ET0)
      001099 45 54 30              4866 	.ascii "ET0"
      00109C 00                    4867 	.db	0
      00109D 01                    4868 	.db	1
      00109E 00 00 0D 30           4869 	.dw	0,3376
      0010A2 10                    4870 	.uleb128	16
      0010A3 05                    4871 	.db	5
      0010A4 03                    4872 	.db	3
      0010A5 00 00 00 A8           4873 	.dw	0,(_EX0)
      0010A9 45 58 30              4874 	.ascii "EX0"
      0010AC 00                    4875 	.db	0
      0010AD 01                    4876 	.db	1
      0010AE 00 00 0D 30           4877 	.dw	0,3376
      0010B2 10                    4878 	.uleb128	16
      0010B3 05                    4879 	.db	5
      0010B4 03                    4880 	.db	3
      0010B5 00 00 00 A0           4881 	.dw	0,(_P20)
      0010B9 50 32 30              4882 	.ascii "P20"
      0010BC 00                    4883 	.db	0
      0010BD 01                    4884 	.db	1
      0010BE 00 00 0D 30           4885 	.dw	0,3376
      0010C2 10                    4886 	.uleb128	16
      0010C3 05                    4887 	.db	5
      0010C4 03                    4888 	.db	3
      0010C5 00 00 00 9F           4889 	.dw	0,(_SM0)
      0010C9 53 4D 30              4890 	.ascii "SM0"
      0010CC 00                    4891 	.db	0
      0010CD 01                    4892 	.db	1
      0010CE 00 00 0D 30           4893 	.dw	0,3376
      0010D2 10                    4894 	.uleb128	16
      0010D3 05                    4895 	.db	5
      0010D4 03                    4896 	.db	3
      0010D5 00 00 00 9F           4897 	.dw	0,(_FE)
      0010D9 46 45                 4898 	.ascii "FE"
      0010DB 00                    4899 	.db	0
      0010DC 01                    4900 	.db	1
      0010DD 00 00 0D 30           4901 	.dw	0,3376
      0010E1 10                    4902 	.uleb128	16
      0010E2 05                    4903 	.db	5
      0010E3 03                    4904 	.db	3
      0010E4 00 00 00 9E           4905 	.dw	0,(_SM1)
      0010E8 53 4D 31              4906 	.ascii "SM1"
      0010EB 00                    4907 	.db	0
      0010EC 01                    4908 	.db	1
      0010ED 00 00 0D 30           4909 	.dw	0,3376
      0010F1 10                    4910 	.uleb128	16
      0010F2 05                    4911 	.db	5
      0010F3 03                    4912 	.db	3
      0010F4 00 00 00 9D           4913 	.dw	0,(_SM2)
      0010F8 53 4D 32              4914 	.ascii "SM2"
      0010FB 00                    4915 	.db	0
      0010FC 01                    4916 	.db	1
      0010FD 00 00 0D 30           4917 	.dw	0,3376
      001101 10                    4918 	.uleb128	16
      001102 05                    4919 	.db	5
      001103 03                    4920 	.db	3
      001104 00 00 00 9C           4921 	.dw	0,(_REN)
      001108 52 45 4E              4922 	.ascii "REN"
      00110B 00                    4923 	.db	0
      00110C 01                    4924 	.db	1
      00110D 00 00 0D 30           4925 	.dw	0,3376
      001111 10                    4926 	.uleb128	16
      001112 05                    4927 	.db	5
      001113 03                    4928 	.db	3
      001114 00 00 00 9B           4929 	.dw	0,(_TB8)
      001118 54 42 38              4930 	.ascii "TB8"
      00111B 00                    4931 	.db	0
      00111C 01                    4932 	.db	1
      00111D 00 00 0D 30           4933 	.dw	0,3376
      001121 10                    4934 	.uleb128	16
      001122 05                    4935 	.db	5
      001123 03                    4936 	.db	3
      001124 00 00 00 9A           4937 	.dw	0,(_RB8)
      001128 52 42 38              4938 	.ascii "RB8"
      00112B 00                    4939 	.db	0
      00112C 01                    4940 	.db	1
      00112D 00 00 0D 30           4941 	.dw	0,3376
      001131 10                    4942 	.uleb128	16
      001132 05                    4943 	.db	5
      001133 03                    4944 	.db	3
      001134 00 00 00 99           4945 	.dw	0,(_TI)
      001138 54 49                 4946 	.ascii "TI"
      00113A 00                    4947 	.db	0
      00113B 01                    4948 	.db	1
      00113C 00 00 0D 30           4949 	.dw	0,3376
      001140 10                    4950 	.uleb128	16
      001141 05                    4951 	.db	5
      001142 03                    4952 	.db	3
      001143 00 00 00 98           4953 	.dw	0,(_RI)
      001147 52 49                 4954 	.ascii "RI"
      001149 00                    4955 	.db	0
      00114A 01                    4956 	.db	1
      00114B 00 00 0D 30           4957 	.dw	0,3376
      00114F 10                    4958 	.uleb128	16
      001150 05                    4959 	.db	5
      001151 03                    4960 	.db	3
      001152 00 00 00 97           4961 	.dw	0,(_P17)
      001156 50 31 37              4962 	.ascii "P17"
      001159 00                    4963 	.db	0
      00115A 01                    4964 	.db	1
      00115B 00 00 0D 30           4965 	.dw	0,3376
      00115F 10                    4966 	.uleb128	16
      001160 05                    4967 	.db	5
      001161 03                    4968 	.db	3
      001162 00 00 00 96           4969 	.dw	0,(_P16)
      001166 50 31 36              4970 	.ascii "P16"
      001169 00                    4971 	.db	0
      00116A 01                    4972 	.db	1
      00116B 00 00 0D 30           4973 	.dw	0,3376
      00116F 10                    4974 	.uleb128	16
      001170 05                    4975 	.db	5
      001171 03                    4976 	.db	3
      001172 00 00 00 96           4977 	.dw	0,(_TXD_1)
      001176 54 58 44 5F 31        4978 	.ascii "TXD_1"
      00117B 00                    4979 	.db	0
      00117C 01                    4980 	.db	1
      00117D 00 00 0D 30           4981 	.dw	0,3376
      001181 10                    4982 	.uleb128	16
      001182 05                    4983 	.db	5
      001183 03                    4984 	.db	3
      001184 00 00 00 95           4985 	.dw	0,(_P15)
      001188 50 31 35              4986 	.ascii "P15"
      00118B 00                    4987 	.db	0
      00118C 01                    4988 	.db	1
      00118D 00 00 0D 30           4989 	.dw	0,3376
      001191 10                    4990 	.uleb128	16
      001192 05                    4991 	.db	5
      001193 03                    4992 	.db	3
      001194 00 00 00 94           4993 	.dw	0,(_P14)
      001198 50 31 34              4994 	.ascii "P14"
      00119B 00                    4995 	.db	0
      00119C 01                    4996 	.db	1
      00119D 00 00 0D 30           4997 	.dw	0,3376
      0011A1 10                    4998 	.uleb128	16
      0011A2 05                    4999 	.db	5
      0011A3 03                    5000 	.db	3
      0011A4 00 00 00 94           5001 	.dw	0,(_SDA)
      0011A8 53 44 41              5002 	.ascii "SDA"
      0011AB 00                    5003 	.db	0
      0011AC 01                    5004 	.db	1
      0011AD 00 00 0D 30           5005 	.dw	0,3376
      0011B1 10                    5006 	.uleb128	16
      0011B2 05                    5007 	.db	5
      0011B3 03                    5008 	.db	3
      0011B4 00 00 00 93           5009 	.dw	0,(_P13)
      0011B8 50 31 33              5010 	.ascii "P13"
      0011BB 00                    5011 	.db	0
      0011BC 01                    5012 	.db	1
      0011BD 00 00 0D 30           5013 	.dw	0,3376
      0011C1 10                    5014 	.uleb128	16
      0011C2 05                    5015 	.db	5
      0011C3 03                    5016 	.db	3
      0011C4 00 00 00 93           5017 	.dw	0,(_SCL)
      0011C8 53 43 4C              5018 	.ascii "SCL"
      0011CB 00                    5019 	.db	0
      0011CC 01                    5020 	.db	1
      0011CD 00 00 0D 30           5021 	.dw	0,3376
      0011D1 10                    5022 	.uleb128	16
      0011D2 05                    5023 	.db	5
      0011D3 03                    5024 	.db	3
      0011D4 00 00 00 92           5025 	.dw	0,(_P12)
      0011D8 50 31 32              5026 	.ascii "P12"
      0011DB 00                    5027 	.db	0
      0011DC 01                    5028 	.db	1
      0011DD 00 00 0D 30           5029 	.dw	0,3376
      0011E1 10                    5030 	.uleb128	16
      0011E2 05                    5031 	.db	5
      0011E3 03                    5032 	.db	3
      0011E4 00 00 00 91           5033 	.dw	0,(_P11)
      0011E8 50 31 31              5034 	.ascii "P11"
      0011EB 00                    5035 	.db	0
      0011EC 01                    5036 	.db	1
      0011ED 00 00 0D 30           5037 	.dw	0,3376
      0011F1 10                    5038 	.uleb128	16
      0011F2 05                    5039 	.db	5
      0011F3 03                    5040 	.db	3
      0011F4 00 00 00 90           5041 	.dw	0,(_P10)
      0011F8 50 31 30              5042 	.ascii "P10"
      0011FB 00                    5043 	.db	0
      0011FC 01                    5044 	.db	1
      0011FD 00 00 0D 30           5045 	.dw	0,3376
      001201 10                    5046 	.uleb128	16
      001202 05                    5047 	.db	5
      001203 03                    5048 	.db	3
      001204 00 00 00 8F           5049 	.dw	0,(_TF1)
      001208 54 46 31              5050 	.ascii "TF1"
      00120B 00                    5051 	.db	0
      00120C 01                    5052 	.db	1
      00120D 00 00 0D 30           5053 	.dw	0,3376
      001211 10                    5054 	.uleb128	16
      001212 05                    5055 	.db	5
      001213 03                    5056 	.db	3
      001214 00 00 00 8E           5057 	.dw	0,(_TR1)
      001218 54 52 31              5058 	.ascii "TR1"
      00121B 00                    5059 	.db	0
      00121C 01                    5060 	.db	1
      00121D 00 00 0D 30           5061 	.dw	0,3376
      001221 10                    5062 	.uleb128	16
      001222 05                    5063 	.db	5
      001223 03                    5064 	.db	3
      001224 00 00 00 8D           5065 	.dw	0,(_TF0)
      001228 54 46 30              5066 	.ascii "TF0"
      00122B 00                    5067 	.db	0
      00122C 01                    5068 	.db	1
      00122D 00 00 0D 30           5069 	.dw	0,3376
      001231 10                    5070 	.uleb128	16
      001232 05                    5071 	.db	5
      001233 03                    5072 	.db	3
      001234 00 00 00 8C           5073 	.dw	0,(_TR0)
      001238 54 52 30              5074 	.ascii "TR0"
      00123B 00                    5075 	.db	0
      00123C 01                    5076 	.db	1
      00123D 00 00 0D 30           5077 	.dw	0,3376
      001241 10                    5078 	.uleb128	16
      001242 05                    5079 	.db	5
      001243 03                    5080 	.db	3
      001244 00 00 00 8B           5081 	.dw	0,(_IE1)
      001248 49 45 31              5082 	.ascii "IE1"
      00124B 00                    5083 	.db	0
      00124C 01                    5084 	.db	1
      00124D 00 00 0D 30           5085 	.dw	0,3376
      001251 10                    5086 	.uleb128	16
      001252 05                    5087 	.db	5
      001253 03                    5088 	.db	3
      001254 00 00 00 8A           5089 	.dw	0,(_IT1)
      001258 49 54 31              5090 	.ascii "IT1"
      00125B 00                    5091 	.db	0
      00125C 01                    5092 	.db	1
      00125D 00 00 0D 30           5093 	.dw	0,3376
      001261 10                    5094 	.uleb128	16
      001262 05                    5095 	.db	5
      001263 03                    5096 	.db	3
      001264 00 00 00 89           5097 	.dw	0,(_IE0)
      001268 49 45 30              5098 	.ascii "IE0"
      00126B 00                    5099 	.db	0
      00126C 01                    5100 	.db	1
      00126D 00 00 0D 30           5101 	.dw	0,3376
      001271 10                    5102 	.uleb128	16
      001272 05                    5103 	.db	5
      001273 03                    5104 	.db	3
      001274 00 00 00 88           5105 	.dw	0,(_IT0)
      001278 49 54 30              5106 	.ascii "IT0"
      00127B 00                    5107 	.db	0
      00127C 01                    5108 	.db	1
      00127D 00 00 0D 30           5109 	.dw	0,3376
      001281 10                    5110 	.uleb128	16
      001282 05                    5111 	.db	5
      001283 03                    5112 	.db	3
      001284 00 00 00 87           5113 	.dw	0,(_P07)
      001288 50 30 37              5114 	.ascii "P07"
      00128B 00                    5115 	.db	0
      00128C 01                    5116 	.db	1
      00128D 00 00 0D 30           5117 	.dw	0,3376
      001291 10                    5118 	.uleb128	16
      001292 05                    5119 	.db	5
      001293 03                    5120 	.db	3
      001294 00 00 00 87           5121 	.dw	0,(_RXD)
      001298 52 58 44              5122 	.ascii "RXD"
      00129B 00                    5123 	.db	0
      00129C 01                    5124 	.db	1
      00129D 00 00 0D 30           5125 	.dw	0,3376
      0012A1 10                    5126 	.uleb128	16
      0012A2 05                    5127 	.db	5
      0012A3 03                    5128 	.db	3
      0012A4 00 00 00 86           5129 	.dw	0,(_P06)
      0012A8 50 30 36              5130 	.ascii "P06"
      0012AB 00                    5131 	.db	0
      0012AC 01                    5132 	.db	1
      0012AD 00 00 0D 30           5133 	.dw	0,3376
      0012B1 10                    5134 	.uleb128	16
      0012B2 05                    5135 	.db	5
      0012B3 03                    5136 	.db	3
      0012B4 00 00 00 86           5137 	.dw	0,(_TXD)
      0012B8 54 58 44              5138 	.ascii "TXD"
      0012BB 00                    5139 	.db	0
      0012BC 01                    5140 	.db	1
      0012BD 00 00 0D 30           5141 	.dw	0,3376
      0012C1 10                    5142 	.uleb128	16
      0012C2 05                    5143 	.db	5
      0012C3 03                    5144 	.db	3
      0012C4 00 00 00 85           5145 	.dw	0,(_P05)
      0012C8 50 30 35              5146 	.ascii "P05"
      0012CB 00                    5147 	.db	0
      0012CC 01                    5148 	.db	1
      0012CD 00 00 0D 30           5149 	.dw	0,3376
      0012D1 10                    5150 	.uleb128	16
      0012D2 05                    5151 	.db	5
      0012D3 03                    5152 	.db	3
      0012D4 00 00 00 84           5153 	.dw	0,(_P04)
      0012D8 50 30 34              5154 	.ascii "P04"
      0012DB 00                    5155 	.db	0
      0012DC 01                    5156 	.db	1
      0012DD 00 00 0D 30           5157 	.dw	0,3376
      0012E1 10                    5158 	.uleb128	16
      0012E2 05                    5159 	.db	5
      0012E3 03                    5160 	.db	3
      0012E4 00 00 00 84           5161 	.dw	0,(_STADC)
      0012E8 53 54 41 44 43        5162 	.ascii "STADC"
      0012ED 00                    5163 	.db	0
      0012EE 01                    5164 	.db	1
      0012EF 00 00 0D 30           5165 	.dw	0,3376
      0012F3 10                    5166 	.uleb128	16
      0012F4 05                    5167 	.db	5
      0012F5 03                    5168 	.db	3
      0012F6 00 00 00 83           5169 	.dw	0,(_P03)
      0012FA 50 30 33              5170 	.ascii "P03"
      0012FD 00                    5171 	.db	0
      0012FE 01                    5172 	.db	1
      0012FF 00 00 0D 30           5173 	.dw	0,3376
      001303 10                    5174 	.uleb128	16
      001304 05                    5175 	.db	5
      001305 03                    5176 	.db	3
      001306 00 00 00 82           5177 	.dw	0,(_P02)
      00130A 50 30 32              5178 	.ascii "P02"
      00130D 00                    5179 	.db	0
      00130E 01                    5180 	.db	1
      00130F 00 00 0D 30           5181 	.dw	0,3376
      001313 10                    5182 	.uleb128	16
      001314 05                    5183 	.db	5
      001315 03                    5184 	.db	3
      001316 00 00 00 82           5185 	.dw	0,(_RXD_1)
      00131A 52 58 44 5F 31        5186 	.ascii "RXD_1"
      00131F 00                    5187 	.db	0
      001320 01                    5188 	.db	1
      001321 00 00 0D 30           5189 	.dw	0,3376
      001325 10                    5190 	.uleb128	16
      001326 05                    5191 	.db	5
      001327 03                    5192 	.db	3
      001328 00 00 00 81           5193 	.dw	0,(_P01)
      00132C 50 30 31              5194 	.ascii "P01"
      00132F 00                    5195 	.db	0
      001330 01                    5196 	.db	1
      001331 00 00 0D 30           5197 	.dw	0,3376
      001335 10                    5198 	.uleb128	16
      001336 05                    5199 	.db	5
      001337 03                    5200 	.db	3
      001338 00 00 00 81           5201 	.dw	0,(_MISO)
      00133C 4D 49 53 4F           5202 	.ascii "MISO"
      001340 00                    5203 	.db	0
      001341 01                    5204 	.db	1
      001342 00 00 0D 30           5205 	.dw	0,3376
      001346 10                    5206 	.uleb128	16
      001347 05                    5207 	.db	5
      001348 03                    5208 	.db	3
      001349 00 00 00 80           5209 	.dw	0,(_P00)
      00134D 50 30 30              5210 	.ascii "P00"
      001350 00                    5211 	.db	0
      001351 01                    5212 	.db	1
      001352 00 00 0D 30           5213 	.dw	0,3376
      001356 10                    5214 	.uleb128	16
      001357 05                    5215 	.db	5
      001358 03                    5216 	.db	3
      001359 00 00 00 80           5217 	.dw	0,(_MOSI)
      00135D 4D 4F 53 49           5218 	.ascii "MOSI"
      001361 00                    5219 	.db	0
      001362 01                    5220 	.db	1
      001363 00 00 0D 30           5221 	.dw	0,3376
      001367 00                    5222 	.uleb128	0
      001368                       5223 Ldebug_info_end:
                                   5224 
                                   5225 	.area .debug_pubnames (NOLOAD)
      000000 00 00 08 F0           5226 	.dw	0,Ldebug_pubnames_end-Ldebug_pubnames_start
      000004                       5227 Ldebug_pubnames_start:
      000004 00 02                 5228 	.dw	2
      000006 00 00r00r00           5229 	.dw	0,(Ldebug_info_start-4)
      00000A 00 00 13 68           5230 	.dw	0,4+Ldebug_info_end-Ldebug_info_start
      00000E 00 00 00 7D           5231 	.dw	0,125
      000012 57 72 69 74 65 5F 44  5232 	.ascii "Write_DATAFLASH_BYTE"
             41 54 41 46 4C 41 53
             48 5F 42 59 54 45
      000026 00                    5233 	.db	0
      000027 00 00 01 3F           5234 	.dw	0,319
      00002B 52 65 61 64 5F 44 41  5235 	.ascii "Read_DATAFLASH_ARRAY"
             54 41 46 4C 41 53 48
             5F 41 52 52 41 59
      00003F 00                    5236 	.db	0
      000040 00 00 01 A4           5237 	.dw	0,420
      000044 57 72 69 74 65 5F 44  5238 	.ascii "Write_DATAFLASH_ARRAY"
             41 54 41 46 4C 41 53
             48 5F 41 52 52 41 59
      000059 00                    5239 	.db	0
      00005A 00 00 02 43           5240 	.dw	0,579
      00005E 57 72 69 74 65 44 61  5241 	.ascii "WriteDataToOnePage"
             74 61 54 6F 4F 6E 65
             50 61 67 65
      000070 00                    5242 	.db	0
      000071 00 00 03 67           5243 	.dw	0,871
      000075 42 49 54 5F 54 4D 50  5244 	.ascii "BIT_TMP"
      00007C 00                    5245 	.db	0
      00007D 00 00 03 7C           5246 	.dw	0,892
      000081 45 45 43 48 45 43 4B  5247 	.ascii "EECHECKFLAG"
             46 4C 41 47
      00008C 00                    5248 	.db	0
      00008D 00 00 03 A1           5249 	.dw	0,929
      000091 70 61 67 65 5F 62 75  5250 	.ascii "page_buffer"
             66 66 65 72
      00009C 00                    5251 	.db	0
      00009D 00 00 03 B9           5252 	.dw	0,953
      0000A1 78 64 5F 74 6D 70     5253 	.ascii "xd_tmp"
      0000A7 00                    5254 	.db	0
      0000A8 00 00 03 D1           5255 	.dw	0,977
      0000AC 50 30                 5256 	.ascii "P0"
      0000AE 00                    5257 	.db	0
      0000AF 00 00 03 E0           5258 	.dw	0,992
      0000B3 53 50                 5259 	.ascii "SP"
      0000B5 00                    5260 	.db	0
      0000B6 00 00 03 EF           5261 	.dw	0,1007
      0000BA 44 50 4C              5262 	.ascii "DPL"
      0000BD 00                    5263 	.db	0
      0000BE 00 00 03 FF           5264 	.dw	0,1023
      0000C2 44 50 48              5265 	.ascii "DPH"
      0000C5 00                    5266 	.db	0
      0000C6 00 00 04 0F           5267 	.dw	0,1039
      0000CA 52 43 54 52 49 4D 30  5268 	.ascii "RCTRIM0"
      0000D1 00                    5269 	.db	0
      0000D2 00 00 04 23           5270 	.dw	0,1059
      0000D6 52 43 54 52 49 4D 31  5271 	.ascii "RCTRIM1"
      0000DD 00                    5272 	.db	0
      0000DE 00 00 04 37           5273 	.dw	0,1079
      0000E2 52 57 4B              5274 	.ascii "RWK"
      0000E5 00                    5275 	.db	0
      0000E6 00 00 04 47           5276 	.dw	0,1095
      0000EA 50 43 4F 4E           5277 	.ascii "PCON"
      0000EE 00                    5278 	.db	0
      0000EF 00 00 04 58           5279 	.dw	0,1112
      0000F3 54 43 4F 4E           5280 	.ascii "TCON"
      0000F7 00                    5281 	.db	0
      0000F8 00 00 04 69           5282 	.dw	0,1129
      0000FC 54 4D 4F 44           5283 	.ascii "TMOD"
      000100 00                    5284 	.db	0
      000101 00 00 04 7A           5285 	.dw	0,1146
      000105 54 4C 30              5286 	.ascii "TL0"
      000108 00                    5287 	.db	0
      000109 00 00 04 8A           5288 	.dw	0,1162
      00010D 54 4C 31              5289 	.ascii "TL1"
      000110 00                    5290 	.db	0
      000111 00 00 04 9A           5291 	.dw	0,1178
      000115 54 48 30              5292 	.ascii "TH0"
      000118 00                    5293 	.db	0
      000119 00 00 04 AA           5294 	.dw	0,1194
      00011D 54 48 31              5295 	.ascii "TH1"
      000120 00                    5296 	.db	0
      000121 00 00 04 BA           5297 	.dw	0,1210
      000125 43 4B 43 4F 4E        5298 	.ascii "CKCON"
      00012A 00                    5299 	.db	0
      00012B 00 00 04 CC           5300 	.dw	0,1228
      00012F 57 4B 43 4F 4E        5301 	.ascii "WKCON"
      000134 00                    5302 	.db	0
      000135 00 00 04 DE           5303 	.dw	0,1246
      000139 50 31                 5304 	.ascii "P1"
      00013B 00                    5305 	.db	0
      00013C 00 00 04 ED           5306 	.dw	0,1261
      000140 53 46 52 53           5307 	.ascii "SFRS"
      000144 00                    5308 	.db	0
      000145 00 00 04 FE           5309 	.dw	0,1278
      000149 43 41 50 43 4F 4E 30  5310 	.ascii "CAPCON0"
      000150 00                    5311 	.db	0
      000151 00 00 05 12           5312 	.dw	0,1298
      000155 43 41 50 43 4F 4E 31  5313 	.ascii "CAPCON1"
      00015C 00                    5314 	.db	0
      00015D 00 00 05 26           5315 	.dw	0,1318
      000161 43 41 50 43 4F 4E 32  5316 	.ascii "CAPCON2"
      000168 00                    5317 	.db	0
      000169 00 00 05 3A           5318 	.dw	0,1338
      00016D 43 4B 44 49 56        5319 	.ascii "CKDIV"
      000172 00                    5320 	.db	0
      000173 00 00 05 4C           5321 	.dw	0,1356
      000177 43 4B 53 57 54        5322 	.ascii "CKSWT"
      00017C 00                    5323 	.db	0
      00017D 00 00 05 5E           5324 	.dw	0,1374
      000181 43 4B 45 4E           5325 	.ascii "CKEN"
      000185 00                    5326 	.db	0
      000186 00 00 05 6F           5327 	.dw	0,1391
      00018A 53 43 4F 4E           5328 	.ascii "SCON"
      00018E 00                    5329 	.db	0
      00018F 00 00 05 80           5330 	.dw	0,1408
      000193 53 42 55 46           5331 	.ascii "SBUF"
      000197 00                    5332 	.db	0
      000198 00 00 05 91           5333 	.dw	0,1425
      00019C 53 42 55 46 5F 31     5334 	.ascii "SBUF_1"
      0001A2 00                    5335 	.db	0
      0001A3 00 00 05 A4           5336 	.dw	0,1444
      0001A7 45 49 45              5337 	.ascii "EIE"
      0001AA 00                    5338 	.db	0
      0001AB 00 00 05 B4           5339 	.dw	0,1460
      0001AF 45 49 45 31           5340 	.ascii "EIE1"
      0001B3 00                    5341 	.db	0
      0001B4 00 00 05 C5           5342 	.dw	0,1477
      0001B8 43 48 50 43 4F 4E     5343 	.ascii "CHPCON"
      0001BE 00                    5344 	.db	0
      0001BF 00 00 05 D8           5345 	.dw	0,1496
      0001C3 50 32                 5346 	.ascii "P2"
      0001C5 00                    5347 	.db	0
      0001C6 00 00 05 E7           5348 	.dw	0,1511
      0001CA 41 55 58 52 31        5349 	.ascii "AUXR1"
      0001CF 00                    5350 	.db	0
      0001D0 00 00 05 F9           5351 	.dw	0,1529
      0001D4 42 4F 44 43 4F 4E 30  5352 	.ascii "BODCON0"
      0001DB 00                    5353 	.db	0
      0001DC 00 00 06 0D           5354 	.dw	0,1549
      0001E0 49 41 50 54 52 47     5355 	.ascii "IAPTRG"
      0001E6 00                    5356 	.db	0
      0001E7 00 00 06 20           5357 	.dw	0,1568
      0001EB 49 41 50 55 45 4E     5358 	.ascii "IAPUEN"
      0001F1 00                    5359 	.db	0
      0001F2 00 00 06 33           5360 	.dw	0,1587
      0001F6 49 41 50 41 4C        5361 	.ascii "IAPAL"
      0001FB 00                    5362 	.db	0
      0001FC 00 00 06 45           5363 	.dw	0,1605
      000200 49 41 50 41 48        5364 	.ascii "IAPAH"
      000205 00                    5365 	.db	0
      000206 00 00 06 57           5366 	.dw	0,1623
      00020A 49 45                 5367 	.ascii "IE"
      00020C 00                    5368 	.db	0
      00020D 00 00 06 66           5369 	.dw	0,1638
      000211 53 41 44 44 52        5370 	.ascii "SADDR"
      000216 00                    5371 	.db	0
      000217 00 00 06 78           5372 	.dw	0,1656
      00021B 57 44 43 4F 4E        5373 	.ascii "WDCON"
      000220 00                    5374 	.db	0
      000221 00 00 06 8A           5375 	.dw	0,1674
      000225 42 4F 44 43 4F 4E 31  5376 	.ascii "BODCON1"
      00022C 00                    5377 	.db	0
      00022D 00 00 06 9E           5378 	.dw	0,1694
      000231 50 33 4D 31           5379 	.ascii "P3M1"
      000235 00                    5380 	.db	0
      000236 00 00 06 AF           5381 	.dw	0,1711
      00023A 50 33 53              5382 	.ascii "P3S"
      00023D 00                    5383 	.db	0
      00023E 00 00 06 BF           5384 	.dw	0,1727
      000242 50 33 4D 32           5385 	.ascii "P3M2"
      000246 00                    5386 	.db	0
      000247 00 00 06 D0           5387 	.dw	0,1744
      00024B 50 33 53 52           5388 	.ascii "P3SR"
      00024F 00                    5389 	.db	0
      000250 00 00 06 E1           5390 	.dw	0,1761
      000254 49 41 50 46 44        5391 	.ascii "IAPFD"
      000259 00                    5392 	.db	0
      00025A 00 00 06 F3           5393 	.dw	0,1779
      00025E 49 41 50 43 4E        5394 	.ascii "IAPCN"
      000263 00                    5395 	.db	0
      000264 00 00 07 05           5396 	.dw	0,1797
      000268 50 33                 5397 	.ascii "P3"
      00026A 00                    5398 	.db	0
      00026B 00 00 07 14           5399 	.dw	0,1812
      00026F 50 30 4D 31           5400 	.ascii "P0M1"
      000273 00                    5401 	.db	0
      000274 00 00 07 25           5402 	.dw	0,1829
      000278 50 30 53              5403 	.ascii "P0S"
      00027B 00                    5404 	.db	0
      00027C 00 00 07 35           5405 	.dw	0,1845
      000280 50 30 4D 32           5406 	.ascii "P0M2"
      000284 00                    5407 	.db	0
      000285 00 00 07 46           5408 	.dw	0,1862
      000289 50 30 53 52           5409 	.ascii "P0SR"
      00028D 00                    5410 	.db	0
      00028E 00 00 07 57           5411 	.dw	0,1879
      000292 50 31 4D 31           5412 	.ascii "P1M1"
      000296 00                    5413 	.db	0
      000297 00 00 07 68           5414 	.dw	0,1896
      00029B 50 31 53              5415 	.ascii "P1S"
      00029E 00                    5416 	.db	0
      00029F 00 00 07 78           5417 	.dw	0,1912
      0002A3 50 31 4D 32           5418 	.ascii "P1M2"
      0002A7 00                    5419 	.db	0
      0002A8 00 00 07 89           5420 	.dw	0,1929
      0002AC 50 31 53 52           5421 	.ascii "P1SR"
      0002B0 00                    5422 	.db	0
      0002B1 00 00 07 9A           5423 	.dw	0,1946
      0002B5 50 32 53              5424 	.ascii "P2S"
      0002B8 00                    5425 	.db	0
      0002B9 00 00 07 AA           5426 	.dw	0,1962
      0002BD 49 50 48              5427 	.ascii "IPH"
      0002C0 00                    5428 	.db	0
      0002C1 00 00 07 BA           5429 	.dw	0,1978
      0002C5 50 57 4D 49 4E 54 43  5430 	.ascii "PWMINTC"
      0002CC 00                    5431 	.db	0
      0002CD 00 00 07 CE           5432 	.dw	0,1998
      0002D1 49 50                 5433 	.ascii "IP"
      0002D3 00                    5434 	.db	0
      0002D4 00 00 07 DD           5435 	.dw	0,2013
      0002D8 53 41 44 45 4E        5436 	.ascii "SADEN"
      0002DD 00                    5437 	.db	0
      0002DE 00 00 07 EF           5438 	.dw	0,2031
      0002E2 53 41 44 45 4E 5F 31  5439 	.ascii "SADEN_1"
      0002E9 00                    5440 	.db	0
      0002EA 00 00 08 03           5441 	.dw	0,2051
      0002EE 53 41 44 44 52 5F 31  5442 	.ascii "SADDR_1"
      0002F5 00                    5443 	.db	0
      0002F6 00 00 08 17           5444 	.dw	0,2071
      0002FA 49 32 44 41 54        5445 	.ascii "I2DAT"
      0002FF 00                    5446 	.db	0
      000300 00 00 08 29           5447 	.dw	0,2089
      000304 49 32 53 54 41 54     5448 	.ascii "I2STAT"
      00030A 00                    5449 	.db	0
      00030B 00 00 08 3C           5450 	.dw	0,2108
      00030F 49 32 43 4C 4B        5451 	.ascii "I2CLK"
      000314 00                    5452 	.db	0
      000315 00 00 08 4E           5453 	.dw	0,2126
      000319 49 32 54 4F 43        5454 	.ascii "I2TOC"
      00031E 00                    5455 	.db	0
      00031F 00 00 08 60           5456 	.dw	0,2144
      000323 49 32 43 4F 4E        5457 	.ascii "I2CON"
      000328 00                    5458 	.db	0
      000329 00 00 08 72           5459 	.dw	0,2162
      00032D 49 32 41 44 44 52     5460 	.ascii "I2ADDR"
      000333 00                    5461 	.db	0
      000334 00 00 08 85           5462 	.dw	0,2181
      000338 41 44 43 52 4C        5463 	.ascii "ADCRL"
      00033D 00                    5464 	.db	0
      00033E 00 00 08 97           5465 	.dw	0,2199
      000342 41 44 43 52 48        5466 	.ascii "ADCRH"
      000347 00                    5467 	.db	0
      000348 00 00 08 A9           5468 	.dw	0,2217
      00034C 54 33 43 4F 4E        5469 	.ascii "T3CON"
      000351 00                    5470 	.db	0
      000352 00 00 08 BB           5471 	.dw	0,2235
      000356 50 57 4D 34 48        5472 	.ascii "PWM4H"
      00035B 00                    5473 	.db	0
      00035C 00 00 08 CD           5474 	.dw	0,2253
      000360 52 4C 33              5475 	.ascii "RL3"
      000363 00                    5476 	.db	0
      000364 00 00 08 DD           5477 	.dw	0,2269
      000368 50 57 4D 35 48        5478 	.ascii "PWM5H"
      00036D 00                    5479 	.db	0
      00036E 00 00 08 EF           5480 	.dw	0,2287
      000372 52 48 33              5481 	.ascii "RH3"
      000375 00                    5482 	.db	0
      000376 00 00 08 FF           5483 	.dw	0,2303
      00037A 50 49 4F 43 4F 4E 31  5484 	.ascii "PIOCON1"
      000381 00                    5485 	.db	0
      000382 00 00 09 13           5486 	.dw	0,2323
      000386 54 41                 5487 	.ascii "TA"
      000388 00                    5488 	.db	0
      000389 00 00 09 22           5489 	.dw	0,2338
      00038D 54 32 43 4F 4E        5490 	.ascii "T2CON"
      000392 00                    5491 	.db	0
      000393 00 00 09 34           5492 	.dw	0,2356
      000397 54 32 4D 4F 44        5493 	.ascii "T2MOD"
      00039C 00                    5494 	.db	0
      00039D 00 00 09 46           5495 	.dw	0,2374
      0003A1 52 43 4D 50 32 4C     5496 	.ascii "RCMP2L"
      0003A7 00                    5497 	.db	0
      0003A8 00 00 09 59           5498 	.dw	0,2393
      0003AC 52 43 4D 50 32 48     5499 	.ascii "RCMP2H"
      0003B2 00                    5500 	.db	0
      0003B3 00 00 09 6C           5501 	.dw	0,2412
      0003B7 54 4C 32              5502 	.ascii "TL2"
      0003BA 00                    5503 	.db	0
      0003BB 00 00 09 7C           5504 	.dw	0,2428
      0003BF 50 57 4D 34 4C        5505 	.ascii "PWM4L"
      0003C4 00                    5506 	.db	0
      0003C5 00 00 09 8E           5507 	.dw	0,2446
      0003C9 54 48 32              5508 	.ascii "TH2"
      0003CC 00                    5509 	.db	0
      0003CD 00 00 09 9E           5510 	.dw	0,2462
      0003D1 50 57 4D 35 4C        5511 	.ascii "PWM5L"
      0003D6 00                    5512 	.db	0
      0003D7 00 00 09 B0           5513 	.dw	0,2480
      0003DB 41 44 43 4D 50 4C     5514 	.ascii "ADCMPL"
      0003E1 00                    5515 	.db	0
      0003E2 00 00 09 C3           5516 	.dw	0,2499
      0003E6 41 44 43 4D 50 48     5517 	.ascii "ADCMPH"
      0003EC 00                    5518 	.db	0
      0003ED 00 00 09 D6           5519 	.dw	0,2518
      0003F1 50 53 57              5520 	.ascii "PSW"
      0003F4 00                    5521 	.db	0
      0003F5 00 00 09 E6           5522 	.dw	0,2534
      0003F9 50 57 4D 50 48        5523 	.ascii "PWMPH"
      0003FE 00                    5524 	.db	0
      0003FF 00 00 09 F8           5525 	.dw	0,2552
      000403 50 57 4D 30 48        5526 	.ascii "PWM0H"
      000408 00                    5527 	.db	0
      000409 00 00 0A 0A           5528 	.dw	0,2570
      00040D 50 57 4D 31 48        5529 	.ascii "PWM1H"
      000412 00                    5530 	.db	0
      000413 00 00 0A 1C           5531 	.dw	0,2588
      000417 50 57 4D 32 48        5532 	.ascii "PWM2H"
      00041C 00                    5533 	.db	0
      00041D 00 00 0A 2E           5534 	.dw	0,2606
      000421 50 57 4D 33 48        5535 	.ascii "PWM3H"
      000426 00                    5536 	.db	0
      000427 00 00 0A 40           5537 	.dw	0,2624
      00042B 50 4E 50              5538 	.ascii "PNP"
      00042E 00                    5539 	.db	0
      00042F 00 00 0A 50           5540 	.dw	0,2640
      000433 46 42 44              5541 	.ascii "FBD"
      000436 00                    5542 	.db	0
      000437 00 00 0A 60           5543 	.dw	0,2656
      00043B 50 57 4D 43 4F 4E 30  5544 	.ascii "PWMCON0"
      000442 00                    5545 	.db	0
      000443 00 00 0A 74           5546 	.dw	0,2676
      000447 50 57 4D 50 4C        5547 	.ascii "PWMPL"
      00044C 00                    5548 	.db	0
      00044D 00 00 0A 86           5549 	.dw	0,2694
      000451 50 57 4D 30 4C        5550 	.ascii "PWM0L"
      000456 00                    5551 	.db	0
      000457 00 00 0A 98           5552 	.dw	0,2712
      00045B 50 57 4D 31 4C        5553 	.ascii "PWM1L"
      000460 00                    5554 	.db	0
      000461 00 00 0A AA           5555 	.dw	0,2730
      000465 50 57 4D 32 4C        5556 	.ascii "PWM2L"
      00046A 00                    5557 	.db	0
      00046B 00 00 0A BC           5558 	.dw	0,2748
      00046F 50 57 4D 33 4C        5559 	.ascii "PWM3L"
      000474 00                    5560 	.db	0
      000475 00 00 0A CE           5561 	.dw	0,2766
      000479 50 49 4F 43 4F 4E 30  5562 	.ascii "PIOCON0"
      000480 00                    5563 	.db	0
      000481 00 00 0A E2           5564 	.dw	0,2786
      000485 50 57 4D 43 4F 4E 31  5565 	.ascii "PWMCON1"
      00048C 00                    5566 	.db	0
      00048D 00 00 0A F6           5567 	.dw	0,2806
      000491 41 43 43              5568 	.ascii "ACC"
      000494 00                    5569 	.db	0
      000495 00 00 0B 06           5570 	.dw	0,2822
      000499 41 44 43 43 4F 4E 31  5571 	.ascii "ADCCON1"
      0004A0 00                    5572 	.db	0
      0004A1 00 00 0B 1A           5573 	.dw	0,2842
      0004A5 41 44 43 43 4F 4E 32  5574 	.ascii "ADCCON2"
      0004AC 00                    5575 	.db	0
      0004AD 00 00 0B 2E           5576 	.dw	0,2862
      0004B1 41 44 43 44 4C 59     5577 	.ascii "ADCDLY"
      0004B7 00                    5578 	.db	0
      0004B8 00 00 0B 41           5579 	.dw	0,2881
      0004BC 43 30 4C              5580 	.ascii "C0L"
      0004BF 00                    5581 	.db	0
      0004C0 00 00 0B 51           5582 	.dw	0,2897
      0004C4 43 30 48              5583 	.ascii "C0H"
      0004C7 00                    5584 	.db	0
      0004C8 00 00 0B 61           5585 	.dw	0,2913
      0004CC 43 31 4C              5586 	.ascii "C1L"
      0004CF 00                    5587 	.db	0
      0004D0 00 00 0B 71           5588 	.dw	0,2929
      0004D4 43 31 48              5589 	.ascii "C1H"
      0004D7 00                    5590 	.db	0
      0004D8 00 00 0B 81           5591 	.dw	0,2945
      0004DC 41 44 43 43 4F 4E 30  5592 	.ascii "ADCCON0"
      0004E3 00                    5593 	.db	0
      0004E4 00 00 0B 95           5594 	.dw	0,2965
      0004E8 50 49 43 4F 4E        5595 	.ascii "PICON"
      0004ED 00                    5596 	.db	0
      0004EE 00 00 0B A7           5597 	.dw	0,2983
      0004F2 50 49 4E 45 4E        5598 	.ascii "PINEN"
      0004F7 00                    5599 	.db	0
      0004F8 00 00 0B B9           5600 	.dw	0,3001
      0004FC 50 49 50 45 4E        5601 	.ascii "PIPEN"
      000501 00                    5602 	.db	0
      000502 00 00 0B CB           5603 	.dw	0,3019
      000506 50 49 46              5604 	.ascii "PIF"
      000509 00                    5605 	.db	0
      00050A 00 00 0B DB           5606 	.dw	0,3035
      00050E 43 32 4C              5607 	.ascii "C2L"
      000511 00                    5608 	.db	0
      000512 00 00 0B EB           5609 	.dw	0,3051
      000516 43 32 48              5610 	.ascii "C2H"
      000519 00                    5611 	.db	0
      00051A 00 00 0B FB           5612 	.dw	0,3067
      00051E 45 49 50              5613 	.ascii "EIP"
      000521 00                    5614 	.db	0
      000522 00 00 0C 0B           5615 	.dw	0,3083
      000526 42                    5616 	.ascii "B"
      000527 00                    5617 	.db	0
      000528 00 00 0C 19           5618 	.dw	0,3097
      00052C 43 41 50 43 4F 4E 33  5619 	.ascii "CAPCON3"
      000533 00                    5620 	.db	0
      000534 00 00 0C 2D           5621 	.dw	0,3117
      000538 43 41 50 43 4F 4E 34  5622 	.ascii "CAPCON4"
      00053F 00                    5623 	.db	0
      000540 00 00 0C 41           5624 	.dw	0,3137
      000544 53 50 43 52           5625 	.ascii "SPCR"
      000548 00                    5626 	.db	0
      000549 00 00 0C 52           5627 	.dw	0,3154
      00054D 53 50 43 52 32        5628 	.ascii "SPCR2"
      000552 00                    5629 	.db	0
      000553 00 00 0C 64           5630 	.dw	0,3172
      000557 53 50 53 52           5631 	.ascii "SPSR"
      00055B 00                    5632 	.db	0
      00055C 00 00 0C 75           5633 	.dw	0,3189
      000560 53 50 44 52           5634 	.ascii "SPDR"
      000564 00                    5635 	.db	0
      000565 00 00 0C 86           5636 	.dw	0,3206
      000569 41 49 4E 44 49 44 53  5637 	.ascii "AINDIDS"
      000570 00                    5638 	.db	0
      000571 00 00 0C 9A           5639 	.dw	0,3226
      000575 45 49 50 48           5640 	.ascii "EIPH"
      000579 00                    5641 	.db	0
      00057A 00 00 0C AB           5642 	.dw	0,3243
      00057E 53 43 4F 4E 5F 31     5643 	.ascii "SCON_1"
      000584 00                    5644 	.db	0
      000585 00 00 0C BE           5645 	.dw	0,3262
      000589 50 44 54 45 4E        5646 	.ascii "PDTEN"
      00058E 00                    5647 	.db	0
      00058F 00 00 0C D0           5648 	.dw	0,3280
      000593 50 44 54 43 4E 54     5649 	.ascii "PDTCNT"
      000599 00                    5650 	.db	0
      00059A 00 00 0C E3           5651 	.dw	0,3299
      00059E 50 4D 45 4E           5652 	.ascii "PMEN"
      0005A2 00                    5653 	.db	0
      0005A3 00 00 0C F4           5654 	.dw	0,3316
      0005A7 50 4D 44              5655 	.ascii "PMD"
      0005AA 00                    5656 	.db	0
      0005AB 00 00 0D 04           5657 	.dw	0,3332
      0005AF 45 49 50 31           5658 	.ascii "EIP1"
      0005B3 00                    5659 	.db	0
      0005B4 00 00 0D 15           5660 	.dw	0,3349
      0005B8 45 49 50 48 31        5661 	.ascii "EIPH1"
      0005BD 00                    5662 	.db	0
      0005BE 00 00 0D 35           5663 	.dw	0,3381
      0005C2 53 4D 30 5F 31        5664 	.ascii "SM0_1"
      0005C7 00                    5665 	.db	0
      0005C8 00 00 0D 47           5666 	.dw	0,3399
      0005CC 46 45 5F 31           5667 	.ascii "FE_1"
      0005D0 00                    5668 	.db	0
      0005D1 00 00 0D 58           5669 	.dw	0,3416
      0005D5 53 4D 31 5F 31        5670 	.ascii "SM1_1"
      0005DA 00                    5671 	.db	0
      0005DB 00 00 0D 6A           5672 	.dw	0,3434
      0005DF 53 4D 32 5F 31        5673 	.ascii "SM2_1"
      0005E4 00                    5674 	.db	0
      0005E5 00 00 0D 7C           5675 	.dw	0,3452
      0005E9 52 45 4E 5F 31        5676 	.ascii "REN_1"
      0005EE 00                    5677 	.db	0
      0005EF 00 00 0D 8E           5678 	.dw	0,3470
      0005F3 54 42 38 5F 31        5679 	.ascii "TB8_1"
      0005F8 00                    5680 	.db	0
      0005F9 00 00 0D A0           5681 	.dw	0,3488
      0005FD 52 42 38 5F 31        5682 	.ascii "RB8_1"
      000602 00                    5683 	.db	0
      000603 00 00 0D B2           5684 	.dw	0,3506
      000607 54 49 5F 31           5685 	.ascii "TI_1"
      00060B 00                    5686 	.db	0
      00060C 00 00 0D C3           5687 	.dw	0,3523
      000610 52 49 5F 31           5688 	.ascii "RI_1"
      000614 00                    5689 	.db	0
      000615 00 00 0D D4           5690 	.dw	0,3540
      000619 41 44 43 46           5691 	.ascii "ADCF"
      00061D 00                    5692 	.db	0
      00061E 00 00 0D E5           5693 	.dw	0,3557
      000622 41 44 43 53           5694 	.ascii "ADCS"
      000626 00                    5695 	.db	0
      000627 00 00 0D F6           5696 	.dw	0,3574
      00062B 45 54 47 53 45 4C 31  5697 	.ascii "ETGSEL1"
      000632 00                    5698 	.db	0
      000633 00 00 0E 0A           5699 	.dw	0,3594
      000637 45 54 47 53 45 4C 30  5700 	.ascii "ETGSEL0"
      00063E 00                    5701 	.db	0
      00063F 00 00 0E 1E           5702 	.dw	0,3614
      000643 41 44 43 48 53 33     5703 	.ascii "ADCHS3"
      000649 00                    5704 	.db	0
      00064A 00 00 0E 31           5705 	.dw	0,3633
      00064E 41 44 43 48 53 32     5706 	.ascii "ADCHS2"
      000654 00                    5707 	.db	0
      000655 00 00 0E 44           5708 	.dw	0,3652
      000659 41 44 43 48 53 31     5709 	.ascii "ADCHS1"
      00065F 00                    5710 	.db	0
      000660 00 00 0E 57           5711 	.dw	0,3671
      000664 41 44 43 48 53 30     5712 	.ascii "ADCHS0"
      00066A 00                    5713 	.db	0
      00066B 00 00 0E 6A           5714 	.dw	0,3690
      00066F 50 57 4D 52 55 4E     5715 	.ascii "PWMRUN"
      000675 00                    5716 	.db	0
      000676 00 00 0E 7D           5717 	.dw	0,3709
      00067A 4C 4F 41 44           5718 	.ascii "LOAD"
      00067E 00                    5719 	.db	0
      00067F 00 00 0E 8E           5720 	.dw	0,3726
      000683 50 57 4D 46           5721 	.ascii "PWMF"
      000687 00                    5722 	.db	0
      000688 00 00 0E 9F           5723 	.dw	0,3743
      00068C 43 4C 52 50 57 4D     5724 	.ascii "CLRPWM"
      000692 00                    5725 	.db	0
      000693 00 00 0E B2           5726 	.dw	0,3762
      000697 43 59                 5727 	.ascii "CY"
      000699 00                    5728 	.db	0
      00069A 00 00 0E C1           5729 	.dw	0,3777
      00069E 41 43                 5730 	.ascii "AC"
      0006A0 00                    5731 	.db	0
      0006A1 00 00 0E D0           5732 	.dw	0,3792
      0006A5 46 30                 5733 	.ascii "F0"
      0006A7 00                    5734 	.db	0
      0006A8 00 00 0E DF           5735 	.dw	0,3807
      0006AC 52 53 31              5736 	.ascii "RS1"
      0006AF 00                    5737 	.db	0
      0006B0 00 00 0E EF           5738 	.dw	0,3823
      0006B4 52 53 30              5739 	.ascii "RS0"
      0006B7 00                    5740 	.db	0
      0006B8 00 00 0E FF           5741 	.dw	0,3839
      0006BC 4F 56                 5742 	.ascii "OV"
      0006BE 00                    5743 	.db	0
      0006BF 00 00 0F 0E           5744 	.dw	0,3854
      0006C3 50                    5745 	.ascii "P"
      0006C4 00                    5746 	.db	0
      0006C5 00 00 0F 1C           5747 	.dw	0,3868
      0006C9 54 46 32              5748 	.ascii "TF2"
      0006CC 00                    5749 	.db	0
      0006CD 00 00 0F 2C           5750 	.dw	0,3884
      0006D1 54 52 32              5751 	.ascii "TR2"
      0006D4 00                    5752 	.db	0
      0006D5 00 00 0F 3C           5753 	.dw	0,3900
      0006D9 43 4D 5F 52 4C 32     5754 	.ascii "CM_RL2"
      0006DF 00                    5755 	.db	0
      0006E0 00 00 0F 4F           5756 	.dw	0,3919
      0006E4 49 32 43 45 4E        5757 	.ascii "I2CEN"
      0006E9 00                    5758 	.db	0
      0006EA 00 00 0F 61           5759 	.dw	0,3937
      0006EE 53 54 41              5760 	.ascii "STA"
      0006F1 00                    5761 	.db	0
      0006F2 00 00 0F 71           5762 	.dw	0,3953
      0006F6 53 54 4F              5763 	.ascii "STO"
      0006F9 00                    5764 	.db	0
      0006FA 00 00 0F 81           5765 	.dw	0,3969
      0006FE 53 49                 5766 	.ascii "SI"
      000700 00                    5767 	.db	0
      000701 00 00 0F 90           5768 	.dw	0,3984
      000705 41 41                 5769 	.ascii "AA"
      000707 00                    5770 	.db	0
      000708 00 00 0F 9F           5771 	.dw	0,3999
      00070C 49 32 43 50 58        5772 	.ascii "I2CPX"
      000711 00                    5773 	.db	0
      000712 00 00 0F B1           5774 	.dw	0,4017
      000716 50 41 44 43           5775 	.ascii "PADC"
      00071A 00                    5776 	.db	0
      00071B 00 00 0F C2           5777 	.dw	0,4034
      00071F 50 42 4F 44           5778 	.ascii "PBOD"
      000723 00                    5779 	.db	0
      000724 00 00 0F D3           5780 	.dw	0,4051
      000728 50 53                 5781 	.ascii "PS"
      00072A 00                    5782 	.db	0
      00072B 00 00 0F E2           5783 	.dw	0,4066
      00072F 50 54 31              5784 	.ascii "PT1"
      000732 00                    5785 	.db	0
      000733 00 00 0F F2           5786 	.dw	0,4082
      000737 50 58 31              5787 	.ascii "PX1"
      00073A 00                    5788 	.db	0
      00073B 00 00 10 02           5789 	.dw	0,4098
      00073F 50 54 30              5790 	.ascii "PT0"
      000742 00                    5791 	.db	0
      000743 00 00 10 12           5792 	.dw	0,4114
      000747 50 58 30              5793 	.ascii "PX0"
      00074A 00                    5794 	.db	0
      00074B 00 00 10 22           5795 	.dw	0,4130
      00074F 50 33 30              5796 	.ascii "P30"
      000752 00                    5797 	.db	0
      000753 00 00 10 32           5798 	.dw	0,4146
      000757 45 41                 5799 	.ascii "EA"
      000759 00                    5800 	.db	0
      00075A 00 00 10 41           5801 	.dw	0,4161
      00075E 45 41 44 43           5802 	.ascii "EADC"
      000762 00                    5803 	.db	0
      000763 00 00 10 52           5804 	.dw	0,4178
      000767 45 42 4F 44           5805 	.ascii "EBOD"
      00076B 00                    5806 	.db	0
      00076C 00 00 10 63           5807 	.dw	0,4195
      000770 45 53                 5808 	.ascii "ES"
      000772 00                    5809 	.db	0
      000773 00 00 10 72           5810 	.dw	0,4210
      000777 45 54 31              5811 	.ascii "ET1"
      00077A 00                    5812 	.db	0
      00077B 00 00 10 82           5813 	.dw	0,4226
      00077F 45 58 31              5814 	.ascii "EX1"
      000782 00                    5815 	.db	0
      000783 00 00 10 92           5816 	.dw	0,4242
      000787 45 54 30              5817 	.ascii "ET0"
      00078A 00                    5818 	.db	0
      00078B 00 00 10 A2           5819 	.dw	0,4258
      00078F 45 58 30              5820 	.ascii "EX0"
      000792 00                    5821 	.db	0
      000793 00 00 10 B2           5822 	.dw	0,4274
      000797 50 32 30              5823 	.ascii "P20"
      00079A 00                    5824 	.db	0
      00079B 00 00 10 C2           5825 	.dw	0,4290
      00079F 53 4D 30              5826 	.ascii "SM0"
      0007A2 00                    5827 	.db	0
      0007A3 00 00 10 D2           5828 	.dw	0,4306
      0007A7 46 45                 5829 	.ascii "FE"
      0007A9 00                    5830 	.db	0
      0007AA 00 00 10 E1           5831 	.dw	0,4321
      0007AE 53 4D 31              5832 	.ascii "SM1"
      0007B1 00                    5833 	.db	0
      0007B2 00 00 10 F1           5834 	.dw	0,4337
      0007B6 53 4D 32              5835 	.ascii "SM2"
      0007B9 00                    5836 	.db	0
      0007BA 00 00 11 01           5837 	.dw	0,4353
      0007BE 52 45 4E              5838 	.ascii "REN"
      0007C1 00                    5839 	.db	0
      0007C2 00 00 11 11           5840 	.dw	0,4369
      0007C6 54 42 38              5841 	.ascii "TB8"
      0007C9 00                    5842 	.db	0
      0007CA 00 00 11 21           5843 	.dw	0,4385
      0007CE 52 42 38              5844 	.ascii "RB8"
      0007D1 00                    5845 	.db	0
      0007D2 00 00 11 31           5846 	.dw	0,4401
      0007D6 54 49                 5847 	.ascii "TI"
      0007D8 00                    5848 	.db	0
      0007D9 00 00 11 40           5849 	.dw	0,4416
      0007DD 52 49                 5850 	.ascii "RI"
      0007DF 00                    5851 	.db	0
      0007E0 00 00 11 4F           5852 	.dw	0,4431
      0007E4 50 31 37              5853 	.ascii "P17"
      0007E7 00                    5854 	.db	0
      0007E8 00 00 11 5F           5855 	.dw	0,4447
      0007EC 50 31 36              5856 	.ascii "P16"
      0007EF 00                    5857 	.db	0
      0007F0 00 00 11 6F           5858 	.dw	0,4463
      0007F4 54 58 44 5F 31        5859 	.ascii "TXD_1"
      0007F9 00                    5860 	.db	0
      0007FA 00 00 11 81           5861 	.dw	0,4481
      0007FE 50 31 35              5862 	.ascii "P15"
      000801 00                    5863 	.db	0
      000802 00 00 11 91           5864 	.dw	0,4497
      000806 50 31 34              5865 	.ascii "P14"
      000809 00                    5866 	.db	0
      00080A 00 00 11 A1           5867 	.dw	0,4513
      00080E 53 44 41              5868 	.ascii "SDA"
      000811 00                    5869 	.db	0
      000812 00 00 11 B1           5870 	.dw	0,4529
      000816 50 31 33              5871 	.ascii "P13"
      000819 00                    5872 	.db	0
      00081A 00 00 11 C1           5873 	.dw	0,4545
      00081E 53 43 4C              5874 	.ascii "SCL"
      000821 00                    5875 	.db	0
      000822 00 00 11 D1           5876 	.dw	0,4561
      000826 50 31 32              5877 	.ascii "P12"
      000829 00                    5878 	.db	0
      00082A 00 00 11 E1           5879 	.dw	0,4577
      00082E 50 31 31              5880 	.ascii "P11"
      000831 00                    5881 	.db	0
      000832 00 00 11 F1           5882 	.dw	0,4593
      000836 50 31 30              5883 	.ascii "P10"
      000839 00                    5884 	.db	0
      00083A 00 00 12 01           5885 	.dw	0,4609
      00083E 54 46 31              5886 	.ascii "TF1"
      000841 00                    5887 	.db	0
      000842 00 00 12 11           5888 	.dw	0,4625
      000846 54 52 31              5889 	.ascii "TR1"
      000849 00                    5890 	.db	0
      00084A 00 00 12 21           5891 	.dw	0,4641
      00084E 54 46 30              5892 	.ascii "TF0"
      000851 00                    5893 	.db	0
      000852 00 00 12 31           5894 	.dw	0,4657
      000856 54 52 30              5895 	.ascii "TR0"
      000859 00                    5896 	.db	0
      00085A 00 00 12 41           5897 	.dw	0,4673
      00085E 49 45 31              5898 	.ascii "IE1"
      000861 00                    5899 	.db	0
      000862 00 00 12 51           5900 	.dw	0,4689
      000866 49 54 31              5901 	.ascii "IT1"
      000869 00                    5902 	.db	0
      00086A 00 00 12 61           5903 	.dw	0,4705
      00086E 49 45 30              5904 	.ascii "IE0"
      000871 00                    5905 	.db	0
      000872 00 00 12 71           5906 	.dw	0,4721
      000876 49 54 30              5907 	.ascii "IT0"
      000879 00                    5908 	.db	0
      00087A 00 00 12 81           5909 	.dw	0,4737
      00087E 50 30 37              5910 	.ascii "P07"
      000881 00                    5911 	.db	0
      000882 00 00 12 91           5912 	.dw	0,4753
      000886 52 58 44              5913 	.ascii "RXD"
      000889 00                    5914 	.db	0
      00088A 00 00 12 A1           5915 	.dw	0,4769
      00088E 50 30 36              5916 	.ascii "P06"
      000891 00                    5917 	.db	0
      000892 00 00 12 B1           5918 	.dw	0,4785
      000896 54 58 44              5919 	.ascii "TXD"
      000899 00                    5920 	.db	0
      00089A 00 00 12 C1           5921 	.dw	0,4801
      00089E 50 30 35              5922 	.ascii "P05"
      0008A1 00                    5923 	.db	0
      0008A2 00 00 12 D1           5924 	.dw	0,4817
      0008A6 50 30 34              5925 	.ascii "P04"
      0008A9 00                    5926 	.db	0
      0008AA 00 00 12 E1           5927 	.dw	0,4833
      0008AE 53 54 41 44 43        5928 	.ascii "STADC"
      0008B3 00                    5929 	.db	0
      0008B4 00 00 12 F3           5930 	.dw	0,4851
      0008B8 50 30 33              5931 	.ascii "P03"
      0008BB 00                    5932 	.db	0
      0008BC 00 00 13 03           5933 	.dw	0,4867
      0008C0 50 30 32              5934 	.ascii "P02"
      0008C3 00                    5935 	.db	0
      0008C4 00 00 13 13           5936 	.dw	0,4883
      0008C8 52 58 44 5F 31        5937 	.ascii "RXD_1"
      0008CD 00                    5938 	.db	0
      0008CE 00 00 13 25           5939 	.dw	0,4901
      0008D2 50 30 31              5940 	.ascii "P01"
      0008D5 00                    5941 	.db	0
      0008D6 00 00 13 35           5942 	.dw	0,4917
      0008DA 4D 49 53 4F           5943 	.ascii "MISO"
      0008DE 00                    5944 	.db	0
      0008DF 00 00 13 46           5945 	.dw	0,4934
      0008E3 50 30 30              5946 	.ascii "P00"
      0008E6 00                    5947 	.db	0
      0008E7 00 00 13 56           5948 	.dw	0,4950
      0008EB 4D 4F 53 49           5949 	.ascii "MOSI"
      0008EF 00                    5950 	.db	0
      0008F0 00 00 00 00           5951 	.dw	0,0
      0008F4                       5952 Ldebug_pubnames_end:
                                   5953 
                                   5954 	.area .debug_frame (NOLOAD)
      000000 00 00                 5955 	.dw	0
      000002 00 10                 5956 	.dw	Ldebug_CIE0_end-Ldebug_CIE0_start
      000004                       5957 Ldebug_CIE0_start:
      000004 FF FF                 5958 	.dw	0xffff
      000006 FF FF                 5959 	.dw	0xffff
      000008 01                    5960 	.db	1
      000009 00                    5961 	.db	0
      00000A 01                    5962 	.uleb128	1
      00000B 01                    5963 	.sleb128	1
      00000C 09                    5964 	.db	9
      00000D 0C                    5965 	.db	12
      00000E 16                    5966 	.uleb128	22
      00000F 02                    5967 	.uleb128	2
      000010 89                    5968 	.db	137
      000011 01                    5969 	.uleb128	1
      000012 00                    5970 	.db	0
      000013 00                    5971 	.db	0
      000014                       5972 Ldebug_CIE0_end:
      000014 00 00 00 14           5973 	.dw	0,20
      000018 00 00r00r00           5974 	.dw	0,(Ldebug_CIE0_start-4)
      00001C 00 00r02rD5           5975 	.dw	0,(Seeprom$WriteDataToOnePage$75)	;initial loc
      000020 00 00 02 B9           5976 	.dw	0,Seeprom$WriteDataToOnePage$165-Seeprom$WriteDataToOnePage$75
      000024 01                    5977 	.db	1
      000025 00 00r02rD5           5978 	.dw	0,(Seeprom$WriteDataToOnePage$75)
      000029 0E                    5979 	.db	14
      00002A 02                    5980 	.uleb128	2
      00002B 00                    5981 	.db	0
                                   5982 
                                   5983 	.area .debug_frame (NOLOAD)
      00002C 00 00                 5984 	.dw	0
      00002E 00 10                 5985 	.dw	Ldebug_CIE1_end-Ldebug_CIE1_start
      000030                       5986 Ldebug_CIE1_start:
      000030 FF FF                 5987 	.dw	0xffff
      000032 FF FF                 5988 	.dw	0xffff
      000034 01                    5989 	.db	1
      000035 00                    5990 	.db	0
      000036 01                    5991 	.uleb128	1
      000037 01                    5992 	.sleb128	1
      000038 09                    5993 	.db	9
      000039 0C                    5994 	.db	12
      00003A 16                    5995 	.uleb128	22
      00003B 02                    5996 	.uleb128	2
      00003C 89                    5997 	.db	137
      00003D 01                    5998 	.uleb128	1
      00003E 00                    5999 	.db	0
      00003F 00                    6000 	.db	0
      000040                       6001 Ldebug_CIE1_end:
      000040 00 00 00 14           6002 	.dw	0,20
      000044 00 00r00r2C           6003 	.dw	0,(Ldebug_CIE1_start-4)
      000048 00 00r01rB7           6004 	.dw	0,(Seeprom$Write_DATAFLASH_ARRAY$54)	;initial loc
      00004C 00 00 01 1E           6005 	.dw	0,Seeprom$Write_DATAFLASH_ARRAY$73-Seeprom$Write_DATAFLASH_ARRAY$54
      000050 01                    6006 	.db	1
      000051 00 00r01rB7           6007 	.dw	0,(Seeprom$Write_DATAFLASH_ARRAY$54)
      000055 0E                    6008 	.db	14
      000056 02                    6009 	.uleb128	2
      000057 00                    6010 	.db	0
                                   6011 
                                   6012 	.area .debug_frame (NOLOAD)
      000058 00 00                 6013 	.dw	0
      00005A 00 10                 6014 	.dw	Ldebug_CIE2_end-Ldebug_CIE2_start
      00005C                       6015 Ldebug_CIE2_start:
      00005C FF FF                 6016 	.dw	0xffff
      00005E FF FF                 6017 	.dw	0xffff
      000060 01                    6018 	.db	1
      000061 00                    6019 	.db	0
      000062 01                    6020 	.uleb128	1
      000063 01                    6021 	.sleb128	1
      000064 09                    6022 	.db	9
      000065 0C                    6023 	.db	12
      000066 16                    6024 	.uleb128	22
      000067 02                    6025 	.uleb128	2
      000068 89                    6026 	.db	137
      000069 01                    6027 	.uleb128	1
      00006A 00                    6028 	.db	0
      00006B 00                    6029 	.db	0
      00006C                       6030 Ldebug_CIE2_end:
      00006C 00 00 00 14           6031 	.dw	0,20
      000070 00 00r00r58           6032 	.dw	0,(Ldebug_CIE2_start-4)
      000074 00 00r01r4A           6033 	.dw	0,(Seeprom$Read_DATAFLASH_ARRAY$44)	;initial loc
      000078 00 00 00 6D           6034 	.dw	0,Seeprom$Read_DATAFLASH_ARRAY$52-Seeprom$Read_DATAFLASH_ARRAY$44
      00007C 01                    6035 	.db	1
      00007D 00 00r01r4A           6036 	.dw	0,(Seeprom$Read_DATAFLASH_ARRAY$44)
      000081 0E                    6037 	.db	14
      000082 02                    6038 	.uleb128	2
      000083 00                    6039 	.db	0
                                   6040 
                                   6041 	.area .debug_frame (NOLOAD)
      000084 00 00                 6042 	.dw	0
      000086 00 10                 6043 	.dw	Ldebug_CIE3_end-Ldebug_CIE3_start
      000088                       6044 Ldebug_CIE3_start:
      000088 FF FF                 6045 	.dw	0xffff
      00008A FF FF                 6046 	.dw	0xffff
      00008C 01                    6047 	.db	1
      00008D 00                    6048 	.db	0
      00008E 01                    6049 	.uleb128	1
      00008F 01                    6050 	.sleb128	1
      000090 09                    6051 	.db	9
      000091 0C                    6052 	.db	12
      000092 16                    6053 	.uleb128	22
      000093 02                    6054 	.uleb128	2
      000094 89                    6055 	.db	137
      000095 01                    6056 	.uleb128	1
      000096 00                    6057 	.db	0
      000097 00                    6058 	.db	0
      000098                       6059 Ldebug_CIE3_end:
      000098 00 00 00 14           6060 	.dw	0,20
      00009C 00 00r00r84           6061 	.dw	0,(Ldebug_CIE3_start-4)
      0000A0 00 00r00r00           6062 	.dw	0,(Seeprom$Write_DATAFLASH_BYTE$1)	;initial loc
      0000A4 00 00 01 4A           6063 	.dw	0,Seeprom$Write_DATAFLASH_BYTE$42-Seeprom$Write_DATAFLASH_BYTE$1
      0000A8 01                    6064 	.db	1
      0000A9 00 00r00r00           6065 	.dw	0,(Seeprom$Write_DATAFLASH_BYTE$1)
      0000AD 0E                    6066 	.db	14
      0000AE 02                    6067 	.uleb128	2
      0000AF 00                    6068 	.db	0
