                                      1 ;--------------------------------------------------------
                                      2 ; File Created by SDCC : free open source ISO C Compiler 
                                      3 ; Version 4.2.6 #13647 (MINGW32)
                                      4 ;--------------------------------------------------------
                                      5 	.module iap
                                      6 	.optsdcc -mmcs51 --model-large
                                      7 	
                                      8 ;--------------------------------------------------------
                                      9 ; Public variables in this module
                                     10 ;--------------------------------------------------------
                                     11 	.globl _MOSI
                                     12 	.globl _P00
                                     13 	.globl _MISO
                                     14 	.globl _P01
                                     15 	.globl _RXD_1
                                     16 	.globl _P02
                                     17 	.globl _P03
                                     18 	.globl _STADC
                                     19 	.globl _P04
                                     20 	.globl _P05
                                     21 	.globl _TXD
                                     22 	.globl _P06
                                     23 	.globl _RXD
                                     24 	.globl _P07
                                     25 	.globl _IT0
                                     26 	.globl _IE0
                                     27 	.globl _IT1
                                     28 	.globl _IE1
                                     29 	.globl _TR0
                                     30 	.globl _TF0
                                     31 	.globl _TR1
                                     32 	.globl _TF1
                                     33 	.globl _P10
                                     34 	.globl _P11
                                     35 	.globl _P12
                                     36 	.globl _SCL
                                     37 	.globl _P13
                                     38 	.globl _SDA
                                     39 	.globl _P14
                                     40 	.globl _P15
                                     41 	.globl _TXD_1
                                     42 	.globl _P16
                                     43 	.globl _P17
                                     44 	.globl _RI
                                     45 	.globl _TI
                                     46 	.globl _RB8
                                     47 	.globl _TB8
                                     48 	.globl _REN
                                     49 	.globl _SM2
                                     50 	.globl _SM1
                                     51 	.globl _FE
                                     52 	.globl _SM0
                                     53 	.globl _P20
                                     54 	.globl _EX0
                                     55 	.globl _ET0
                                     56 	.globl _EX1
                                     57 	.globl _ET1
                                     58 	.globl _ES
                                     59 	.globl _EBOD
                                     60 	.globl _EADC
                                     61 	.globl _EA
                                     62 	.globl _P30
                                     63 	.globl _PX0
                                     64 	.globl _PT0
                                     65 	.globl _PX1
                                     66 	.globl _PT1
                                     67 	.globl _PS
                                     68 	.globl _PBOD
                                     69 	.globl _PADC
                                     70 	.globl _I2CPX
                                     71 	.globl _AA
                                     72 	.globl _SI
                                     73 	.globl _STO
                                     74 	.globl _STA
                                     75 	.globl _I2CEN
                                     76 	.globl _CM_RL2
                                     77 	.globl _TR2
                                     78 	.globl _TF2
                                     79 	.globl _P
                                     80 	.globl _OV
                                     81 	.globl _RS0
                                     82 	.globl _RS1
                                     83 	.globl _F0
                                     84 	.globl _AC
                                     85 	.globl _CY
                                     86 	.globl _CLRPWM
                                     87 	.globl _PWMF
                                     88 	.globl _LOAD
                                     89 	.globl _PWMRUN
                                     90 	.globl _ADCHS0
                                     91 	.globl _ADCHS1
                                     92 	.globl _ADCHS2
                                     93 	.globl _ADCHS3
                                     94 	.globl _ETGSEL0
                                     95 	.globl _ETGSEL1
                                     96 	.globl _ADCS
                                     97 	.globl _ADCF
                                     98 	.globl _RI_1
                                     99 	.globl _TI_1
                                    100 	.globl _RB8_1
                                    101 	.globl _TB8_1
                                    102 	.globl _REN_1
                                    103 	.globl _SM2_1
                                    104 	.globl _SM1_1
                                    105 	.globl _FE_1
                                    106 	.globl _SM0_1
                                    107 	.globl _EIPH1
                                    108 	.globl _EIP1
                                    109 	.globl _PMD
                                    110 	.globl _PMEN
                                    111 	.globl _PDTCNT
                                    112 	.globl _PDTEN
                                    113 	.globl _SCON_1
                                    114 	.globl _EIPH
                                    115 	.globl _AINDIDS
                                    116 	.globl _SPDR
                                    117 	.globl _SPSR
                                    118 	.globl _SPCR2
                                    119 	.globl _SPCR
                                    120 	.globl _CAPCON4
                                    121 	.globl _CAPCON3
                                    122 	.globl _B
                                    123 	.globl _EIP
                                    124 	.globl _C2H
                                    125 	.globl _C2L
                                    126 	.globl _PIF
                                    127 	.globl _PIPEN
                                    128 	.globl _PINEN
                                    129 	.globl _PICON
                                    130 	.globl _ADCCON0
                                    131 	.globl _C1H
                                    132 	.globl _C1L
                                    133 	.globl _C0H
                                    134 	.globl _C0L
                                    135 	.globl _ADCDLY
                                    136 	.globl _ADCCON2
                                    137 	.globl _ADCCON1
                                    138 	.globl _ACC
                                    139 	.globl _PWMCON1
                                    140 	.globl _PIOCON0
                                    141 	.globl _PWM3L
                                    142 	.globl _PWM2L
                                    143 	.globl _PWM1L
                                    144 	.globl _PWM0L
                                    145 	.globl _PWMPL
                                    146 	.globl _PWMCON0
                                    147 	.globl _FBD
                                    148 	.globl _PNP
                                    149 	.globl _PWM3H
                                    150 	.globl _PWM2H
                                    151 	.globl _PWM1H
                                    152 	.globl _PWM0H
                                    153 	.globl _PWMPH
                                    154 	.globl _PSW
                                    155 	.globl _ADCMPH
                                    156 	.globl _ADCMPL
                                    157 	.globl _PWM5L
                                    158 	.globl _TH2
                                    159 	.globl _PWM4L
                                    160 	.globl _TL2
                                    161 	.globl _RCMP2H
                                    162 	.globl _RCMP2L
                                    163 	.globl _T2MOD
                                    164 	.globl _T2CON
                                    165 	.globl _TA
                                    166 	.globl _PIOCON1
                                    167 	.globl _RH3
                                    168 	.globl _PWM5H
                                    169 	.globl _RL3
                                    170 	.globl _PWM4H
                                    171 	.globl _T3CON
                                    172 	.globl _ADCRH
                                    173 	.globl _ADCRL
                                    174 	.globl _I2ADDR
                                    175 	.globl _I2CON
                                    176 	.globl _I2TOC
                                    177 	.globl _I2CLK
                                    178 	.globl _I2STAT
                                    179 	.globl _I2DAT
                                    180 	.globl _SADDR_1
                                    181 	.globl _SADEN_1
                                    182 	.globl _SADEN
                                    183 	.globl _IP
                                    184 	.globl _PWMINTC
                                    185 	.globl _IPH
                                    186 	.globl _P2S
                                    187 	.globl _P1SR
                                    188 	.globl _P1M2
                                    189 	.globl _P1S
                                    190 	.globl _P1M1
                                    191 	.globl _P0SR
                                    192 	.globl _P0M2
                                    193 	.globl _P0S
                                    194 	.globl _P0M1
                                    195 	.globl _P3
                                    196 	.globl _IAPCN
                                    197 	.globl _IAPFD
                                    198 	.globl _P3SR
                                    199 	.globl _P3M2
                                    200 	.globl _P3S
                                    201 	.globl _P3M1
                                    202 	.globl _BODCON1
                                    203 	.globl _WDCON
                                    204 	.globl _SADDR
                                    205 	.globl _IE
                                    206 	.globl _IAPAH
                                    207 	.globl _IAPAL
                                    208 	.globl _IAPUEN
                                    209 	.globl _IAPTRG
                                    210 	.globl _BODCON0
                                    211 	.globl _AUXR1
                                    212 	.globl _P2
                                    213 	.globl _CHPCON
                                    214 	.globl _EIE1
                                    215 	.globl _EIE
                                    216 	.globl _SBUF_1
                                    217 	.globl _SBUF
                                    218 	.globl _SCON
                                    219 	.globl _CKEN
                                    220 	.globl _CKSWT
                                    221 	.globl _CKDIV
                                    222 	.globl _CAPCON2
                                    223 	.globl _CAPCON1
                                    224 	.globl _CAPCON0
                                    225 	.globl _SFRS
                                    226 	.globl _P1
                                    227 	.globl _WKCON
                                    228 	.globl _CKCON
                                    229 	.globl _TH1
                                    230 	.globl _TH0
                                    231 	.globl _TL1
                                    232 	.globl _TL0
                                    233 	.globl _TMOD
                                    234 	.globl _TCON
                                    235 	.globl _PCON
                                    236 	.globl _RWK
                                    237 	.globl _RCTRIM1
                                    238 	.globl _RCTRIM0
                                    239 	.globl _DPH
                                    240 	.globl _DPL
                                    241 	.globl _SP
                                    242 	.globl _P0
                                    243 	.globl _Modify_CONFIG_PARM_5
                                    244 	.globl _Modify_CONFIG_PARM_4
                                    245 	.globl _Modify_CONFIG_PARM_3
                                    246 	.globl _Modify_CONFIG_PARM_2
                                    247 	.globl _Program_Verify_APROM_PARM_2
                                    248 	.globl _Program_APROM_PARM_2
                                    249 	.globl _Erase_Verify_APROM_PARM_2
                                    250 	.globl _Erase_APROM_PARM_2
                                    251 	.globl _Program_Verify_LDROM_PARM_2
                                    252 	.globl _Program_LDROM_PARM_2
                                    253 	.globl _Erase_Verify_LDROM_PARM_2
                                    254 	.globl _Erase_LDROM_PARM_2
                                    255 	.globl _IAPCFBuf
                                    256 	.globl _IAPDataBuf
                                    257 	.globl _UCIDBuffer
                                    258 	.globl _UIDBuffer
                                    259 	.globl _PIDBuffer
                                    260 	.globl _DIDBuffer
                                    261 	.globl _ConfigModifyFlag
                                    262 	.globl _Erase_LDROM
                                    263 	.globl _Erase_Verify_LDROM
                                    264 	.globl _Program_LDROM
                                    265 	.globl _Program_Verify_LDROM
                                    266 	.globl _Erase_APROM
                                    267 	.globl _Erase_Verify_APROM
                                    268 	.globl _Program_APROM
                                    269 	.globl _Program_Verify_APROM
                                    270 	.globl _Modify_CONFIG
                                    271 	.globl _Read_CONFIG
                                    272 	.globl _Read_UID
                                    273 	.globl _Read_UCID
                                    274 	.globl _Read_DID
                                    275 	.globl _Read_PID
                                    276 ;--------------------------------------------------------
                                    277 ; special function registers
                                    278 ;--------------------------------------------------------
                                    279 	.area RSEG    (ABS,DATA)
      000000                        280 	.org 0x0000
                           000080   281 G$P0$0_0$0 == 0x0080
                           000080   282 _P0	=	0x0080
                           000081   283 G$SP$0_0$0 == 0x0081
                           000081   284 _SP	=	0x0081
                           000082   285 G$DPL$0_0$0 == 0x0082
                           000082   286 _DPL	=	0x0082
                           000083   287 G$DPH$0_0$0 == 0x0083
                           000083   288 _DPH	=	0x0083
                           000084   289 G$RCTRIM0$0_0$0 == 0x0084
                           000084   290 _RCTRIM0	=	0x0084
                           000085   291 G$RCTRIM1$0_0$0 == 0x0085
                           000085   292 _RCTRIM1	=	0x0085
                           000086   293 G$RWK$0_0$0 == 0x0086
                           000086   294 _RWK	=	0x0086
                           000087   295 G$PCON$0_0$0 == 0x0087
                           000087   296 _PCON	=	0x0087
                           000088   297 G$TCON$0_0$0 == 0x0088
                           000088   298 _TCON	=	0x0088
                           000089   299 G$TMOD$0_0$0 == 0x0089
                           000089   300 _TMOD	=	0x0089
                           00008A   301 G$TL0$0_0$0 == 0x008a
                           00008A   302 _TL0	=	0x008a
                           00008B   303 G$TL1$0_0$0 == 0x008b
                           00008B   304 _TL1	=	0x008b
                           00008C   305 G$TH0$0_0$0 == 0x008c
                           00008C   306 _TH0	=	0x008c
                           00008D   307 G$TH1$0_0$0 == 0x008d
                           00008D   308 _TH1	=	0x008d
                           00008E   309 G$CKCON$0_0$0 == 0x008e
                           00008E   310 _CKCON	=	0x008e
                           00008F   311 G$WKCON$0_0$0 == 0x008f
                           00008F   312 _WKCON	=	0x008f
                           000090   313 G$P1$0_0$0 == 0x0090
                           000090   314 _P1	=	0x0090
                           000091   315 G$SFRS$0_0$0 == 0x0091
                           000091   316 _SFRS	=	0x0091
                           000092   317 G$CAPCON0$0_0$0 == 0x0092
                           000092   318 _CAPCON0	=	0x0092
                           000093   319 G$CAPCON1$0_0$0 == 0x0093
                           000093   320 _CAPCON1	=	0x0093
                           000094   321 G$CAPCON2$0_0$0 == 0x0094
                           000094   322 _CAPCON2	=	0x0094
                           000095   323 G$CKDIV$0_0$0 == 0x0095
                           000095   324 _CKDIV	=	0x0095
                           000096   325 G$CKSWT$0_0$0 == 0x0096
                           000096   326 _CKSWT	=	0x0096
                           000097   327 G$CKEN$0_0$0 == 0x0097
                           000097   328 _CKEN	=	0x0097
                           000098   329 G$SCON$0_0$0 == 0x0098
                           000098   330 _SCON	=	0x0098
                           000099   331 G$SBUF$0_0$0 == 0x0099
                           000099   332 _SBUF	=	0x0099
                           00009A   333 G$SBUF_1$0_0$0 == 0x009a
                           00009A   334 _SBUF_1	=	0x009a
                           00009B   335 G$EIE$0_0$0 == 0x009b
                           00009B   336 _EIE	=	0x009b
                           00009C   337 G$EIE1$0_0$0 == 0x009c
                           00009C   338 _EIE1	=	0x009c
                           00009F   339 G$CHPCON$0_0$0 == 0x009f
                           00009F   340 _CHPCON	=	0x009f
                           0000A0   341 G$P2$0_0$0 == 0x00a0
                           0000A0   342 _P2	=	0x00a0
                           0000A2   343 G$AUXR1$0_0$0 == 0x00a2
                           0000A2   344 _AUXR1	=	0x00a2
                           0000A3   345 G$BODCON0$0_0$0 == 0x00a3
                           0000A3   346 _BODCON0	=	0x00a3
                           0000A4   347 G$IAPTRG$0_0$0 == 0x00a4
                           0000A4   348 _IAPTRG	=	0x00a4
                           0000A5   349 G$IAPUEN$0_0$0 == 0x00a5
                           0000A5   350 _IAPUEN	=	0x00a5
                           0000A6   351 G$IAPAL$0_0$0 == 0x00a6
                           0000A6   352 _IAPAL	=	0x00a6
                           0000A7   353 G$IAPAH$0_0$0 == 0x00a7
                           0000A7   354 _IAPAH	=	0x00a7
                           0000A8   355 G$IE$0_0$0 == 0x00a8
                           0000A8   356 _IE	=	0x00a8
                           0000A9   357 G$SADDR$0_0$0 == 0x00a9
                           0000A9   358 _SADDR	=	0x00a9
                           0000AA   359 G$WDCON$0_0$0 == 0x00aa
                           0000AA   360 _WDCON	=	0x00aa
                           0000AB   361 G$BODCON1$0_0$0 == 0x00ab
                           0000AB   362 _BODCON1	=	0x00ab
                           0000AC   363 G$P3M1$0_0$0 == 0x00ac
                           0000AC   364 _P3M1	=	0x00ac
                           0000AC   365 G$P3S$0_0$0 == 0x00ac
                           0000AC   366 _P3S	=	0x00ac
                           0000AD   367 G$P3M2$0_0$0 == 0x00ad
                           0000AD   368 _P3M2	=	0x00ad
                           0000AD   369 G$P3SR$0_0$0 == 0x00ad
                           0000AD   370 _P3SR	=	0x00ad
                           0000AE   371 G$IAPFD$0_0$0 == 0x00ae
                           0000AE   372 _IAPFD	=	0x00ae
                           0000AF   373 G$IAPCN$0_0$0 == 0x00af
                           0000AF   374 _IAPCN	=	0x00af
                           0000B0   375 G$P3$0_0$0 == 0x00b0
                           0000B0   376 _P3	=	0x00b0
                           0000B1   377 G$P0M1$0_0$0 == 0x00b1
                           0000B1   378 _P0M1	=	0x00b1
                           0000B1   379 G$P0S$0_0$0 == 0x00b1
                           0000B1   380 _P0S	=	0x00b1
                           0000B2   381 G$P0M2$0_0$0 == 0x00b2
                           0000B2   382 _P0M2	=	0x00b2
                           0000B2   383 G$P0SR$0_0$0 == 0x00b2
                           0000B2   384 _P0SR	=	0x00b2
                           0000B3   385 G$P1M1$0_0$0 == 0x00b3
                           0000B3   386 _P1M1	=	0x00b3
                           0000B3   387 G$P1S$0_0$0 == 0x00b3
                           0000B3   388 _P1S	=	0x00b3
                           0000B4   389 G$P1M2$0_0$0 == 0x00b4
                           0000B4   390 _P1M2	=	0x00b4
                           0000B4   391 G$P1SR$0_0$0 == 0x00b4
                           0000B4   392 _P1SR	=	0x00b4
                           0000B5   393 G$P2S$0_0$0 == 0x00b5
                           0000B5   394 _P2S	=	0x00b5
                           0000B7   395 G$IPH$0_0$0 == 0x00b7
                           0000B7   396 _IPH	=	0x00b7
                           0000B7   397 G$PWMINTC$0_0$0 == 0x00b7
                           0000B7   398 _PWMINTC	=	0x00b7
                           0000B8   399 G$IP$0_0$0 == 0x00b8
                           0000B8   400 _IP	=	0x00b8
                           0000B9   401 G$SADEN$0_0$0 == 0x00b9
                           0000B9   402 _SADEN	=	0x00b9
                           0000BA   403 G$SADEN_1$0_0$0 == 0x00ba
                           0000BA   404 _SADEN_1	=	0x00ba
                           0000BB   405 G$SADDR_1$0_0$0 == 0x00bb
                           0000BB   406 _SADDR_1	=	0x00bb
                           0000BC   407 G$I2DAT$0_0$0 == 0x00bc
                           0000BC   408 _I2DAT	=	0x00bc
                           0000BD   409 G$I2STAT$0_0$0 == 0x00bd
                           0000BD   410 _I2STAT	=	0x00bd
                           0000BE   411 G$I2CLK$0_0$0 == 0x00be
                           0000BE   412 _I2CLK	=	0x00be
                           0000BF   413 G$I2TOC$0_0$0 == 0x00bf
                           0000BF   414 _I2TOC	=	0x00bf
                           0000C0   415 G$I2CON$0_0$0 == 0x00c0
                           0000C0   416 _I2CON	=	0x00c0
                           0000C1   417 G$I2ADDR$0_0$0 == 0x00c1
                           0000C1   418 _I2ADDR	=	0x00c1
                           0000C2   419 G$ADCRL$0_0$0 == 0x00c2
                           0000C2   420 _ADCRL	=	0x00c2
                           0000C3   421 G$ADCRH$0_0$0 == 0x00c3
                           0000C3   422 _ADCRH	=	0x00c3
                           0000C4   423 G$T3CON$0_0$0 == 0x00c4
                           0000C4   424 _T3CON	=	0x00c4
                           0000C4   425 G$PWM4H$0_0$0 == 0x00c4
                           0000C4   426 _PWM4H	=	0x00c4
                           0000C5   427 G$RL3$0_0$0 == 0x00c5
                           0000C5   428 _RL3	=	0x00c5
                           0000C5   429 G$PWM5H$0_0$0 == 0x00c5
                           0000C5   430 _PWM5H	=	0x00c5
                           0000C6   431 G$RH3$0_0$0 == 0x00c6
                           0000C6   432 _RH3	=	0x00c6
                           0000C6   433 G$PIOCON1$0_0$0 == 0x00c6
                           0000C6   434 _PIOCON1	=	0x00c6
                           0000C7   435 G$TA$0_0$0 == 0x00c7
                           0000C7   436 _TA	=	0x00c7
                           0000C8   437 G$T2CON$0_0$0 == 0x00c8
                           0000C8   438 _T2CON	=	0x00c8
                           0000C9   439 G$T2MOD$0_0$0 == 0x00c9
                           0000C9   440 _T2MOD	=	0x00c9
                           0000CA   441 G$RCMP2L$0_0$0 == 0x00ca
                           0000CA   442 _RCMP2L	=	0x00ca
                           0000CB   443 G$RCMP2H$0_0$0 == 0x00cb
                           0000CB   444 _RCMP2H	=	0x00cb
                           0000CC   445 G$TL2$0_0$0 == 0x00cc
                           0000CC   446 _TL2	=	0x00cc
                           0000CC   447 G$PWM4L$0_0$0 == 0x00cc
                           0000CC   448 _PWM4L	=	0x00cc
                           0000CD   449 G$TH2$0_0$0 == 0x00cd
                           0000CD   450 _TH2	=	0x00cd
                           0000CD   451 G$PWM5L$0_0$0 == 0x00cd
                           0000CD   452 _PWM5L	=	0x00cd
                           0000CE   453 G$ADCMPL$0_0$0 == 0x00ce
                           0000CE   454 _ADCMPL	=	0x00ce
                           0000CF   455 G$ADCMPH$0_0$0 == 0x00cf
                           0000CF   456 _ADCMPH	=	0x00cf
                           0000D0   457 G$PSW$0_0$0 == 0x00d0
                           0000D0   458 _PSW	=	0x00d0
                           0000D1   459 G$PWMPH$0_0$0 == 0x00d1
                           0000D1   460 _PWMPH	=	0x00d1
                           0000D2   461 G$PWM0H$0_0$0 == 0x00d2
                           0000D2   462 _PWM0H	=	0x00d2
                           0000D3   463 G$PWM1H$0_0$0 == 0x00d3
                           0000D3   464 _PWM1H	=	0x00d3
                           0000D4   465 G$PWM2H$0_0$0 == 0x00d4
                           0000D4   466 _PWM2H	=	0x00d4
                           0000D5   467 G$PWM3H$0_0$0 == 0x00d5
                           0000D5   468 _PWM3H	=	0x00d5
                           0000D6   469 G$PNP$0_0$0 == 0x00d6
                           0000D6   470 _PNP	=	0x00d6
                           0000D7   471 G$FBD$0_0$0 == 0x00d7
                           0000D7   472 _FBD	=	0x00d7
                           0000D8   473 G$PWMCON0$0_0$0 == 0x00d8
                           0000D8   474 _PWMCON0	=	0x00d8
                           0000D9   475 G$PWMPL$0_0$0 == 0x00d9
                           0000D9   476 _PWMPL	=	0x00d9
                           0000DA   477 G$PWM0L$0_0$0 == 0x00da
                           0000DA   478 _PWM0L	=	0x00da
                           0000DB   479 G$PWM1L$0_0$0 == 0x00db
                           0000DB   480 _PWM1L	=	0x00db
                           0000DC   481 G$PWM2L$0_0$0 == 0x00dc
                           0000DC   482 _PWM2L	=	0x00dc
                           0000DD   483 G$PWM3L$0_0$0 == 0x00dd
                           0000DD   484 _PWM3L	=	0x00dd
                           0000DE   485 G$PIOCON0$0_0$0 == 0x00de
                           0000DE   486 _PIOCON0	=	0x00de
                           0000DF   487 G$PWMCON1$0_0$0 == 0x00df
                           0000DF   488 _PWMCON1	=	0x00df
                           0000E0   489 G$ACC$0_0$0 == 0x00e0
                           0000E0   490 _ACC	=	0x00e0
                           0000E1   491 G$ADCCON1$0_0$0 == 0x00e1
                           0000E1   492 _ADCCON1	=	0x00e1
                           0000E2   493 G$ADCCON2$0_0$0 == 0x00e2
                           0000E2   494 _ADCCON2	=	0x00e2
                           0000E3   495 G$ADCDLY$0_0$0 == 0x00e3
                           0000E3   496 _ADCDLY	=	0x00e3
                           0000E4   497 G$C0L$0_0$0 == 0x00e4
                           0000E4   498 _C0L	=	0x00e4
                           0000E5   499 G$C0H$0_0$0 == 0x00e5
                           0000E5   500 _C0H	=	0x00e5
                           0000E6   501 G$C1L$0_0$0 == 0x00e6
                           0000E6   502 _C1L	=	0x00e6
                           0000E7   503 G$C1H$0_0$0 == 0x00e7
                           0000E7   504 _C1H	=	0x00e7
                           0000E8   505 G$ADCCON0$0_0$0 == 0x00e8
                           0000E8   506 _ADCCON0	=	0x00e8
                           0000E9   507 G$PICON$0_0$0 == 0x00e9
                           0000E9   508 _PICON	=	0x00e9
                           0000EA   509 G$PINEN$0_0$0 == 0x00ea
                           0000EA   510 _PINEN	=	0x00ea
                           0000EB   511 G$PIPEN$0_0$0 == 0x00eb
                           0000EB   512 _PIPEN	=	0x00eb
                           0000EC   513 G$PIF$0_0$0 == 0x00ec
                           0000EC   514 _PIF	=	0x00ec
                           0000ED   515 G$C2L$0_0$0 == 0x00ed
                           0000ED   516 _C2L	=	0x00ed
                           0000EE   517 G$C2H$0_0$0 == 0x00ee
                           0000EE   518 _C2H	=	0x00ee
                           0000EF   519 G$EIP$0_0$0 == 0x00ef
                           0000EF   520 _EIP	=	0x00ef
                           0000F0   521 G$B$0_0$0 == 0x00f0
                           0000F0   522 _B	=	0x00f0
                           0000F1   523 G$CAPCON3$0_0$0 == 0x00f1
                           0000F1   524 _CAPCON3	=	0x00f1
                           0000F2   525 G$CAPCON4$0_0$0 == 0x00f2
                           0000F2   526 _CAPCON4	=	0x00f2
                           0000F3   527 G$SPCR$0_0$0 == 0x00f3
                           0000F3   528 _SPCR	=	0x00f3
                           0000F3   529 G$SPCR2$0_0$0 == 0x00f3
                           0000F3   530 _SPCR2	=	0x00f3
                           0000F4   531 G$SPSR$0_0$0 == 0x00f4
                           0000F4   532 _SPSR	=	0x00f4
                           0000F5   533 G$SPDR$0_0$0 == 0x00f5
                           0000F5   534 _SPDR	=	0x00f5
                           0000F6   535 G$AINDIDS$0_0$0 == 0x00f6
                           0000F6   536 _AINDIDS	=	0x00f6
                           0000F7   537 G$EIPH$0_0$0 == 0x00f7
                           0000F7   538 _EIPH	=	0x00f7
                           0000F8   539 G$SCON_1$0_0$0 == 0x00f8
                           0000F8   540 _SCON_1	=	0x00f8
                           0000F9   541 G$PDTEN$0_0$0 == 0x00f9
                           0000F9   542 _PDTEN	=	0x00f9
                           0000FA   543 G$PDTCNT$0_0$0 == 0x00fa
                           0000FA   544 _PDTCNT	=	0x00fa
                           0000FB   545 G$PMEN$0_0$0 == 0x00fb
                           0000FB   546 _PMEN	=	0x00fb
                           0000FC   547 G$PMD$0_0$0 == 0x00fc
                           0000FC   548 _PMD	=	0x00fc
                           0000FE   549 G$EIP1$0_0$0 == 0x00fe
                           0000FE   550 _EIP1	=	0x00fe
                           0000FF   551 G$EIPH1$0_0$0 == 0x00ff
                           0000FF   552 _EIPH1	=	0x00ff
                                    553 ;--------------------------------------------------------
                                    554 ; special function bits
                                    555 ;--------------------------------------------------------
                                    556 	.area RSEG    (ABS,DATA)
      000000                        557 	.org 0x0000
                           0000FF   558 G$SM0_1$0_0$0 == 0x00ff
                           0000FF   559 _SM0_1	=	0x00ff
                           0000FF   560 G$FE_1$0_0$0 == 0x00ff
                           0000FF   561 _FE_1	=	0x00ff
                           0000FE   562 G$SM1_1$0_0$0 == 0x00fe
                           0000FE   563 _SM1_1	=	0x00fe
                           0000FD   564 G$SM2_1$0_0$0 == 0x00fd
                           0000FD   565 _SM2_1	=	0x00fd
                           0000FC   566 G$REN_1$0_0$0 == 0x00fc
                           0000FC   567 _REN_1	=	0x00fc
                           0000FB   568 G$TB8_1$0_0$0 == 0x00fb
                           0000FB   569 _TB8_1	=	0x00fb
                           0000FA   570 G$RB8_1$0_0$0 == 0x00fa
                           0000FA   571 _RB8_1	=	0x00fa
                           0000F9   572 G$TI_1$0_0$0 == 0x00f9
                           0000F9   573 _TI_1	=	0x00f9
                           0000F8   574 G$RI_1$0_0$0 == 0x00f8
                           0000F8   575 _RI_1	=	0x00f8
                           0000EF   576 G$ADCF$0_0$0 == 0x00ef
                           0000EF   577 _ADCF	=	0x00ef
                           0000EE   578 G$ADCS$0_0$0 == 0x00ee
                           0000EE   579 _ADCS	=	0x00ee
                           0000ED   580 G$ETGSEL1$0_0$0 == 0x00ed
                           0000ED   581 _ETGSEL1	=	0x00ed
                           0000EC   582 G$ETGSEL0$0_0$0 == 0x00ec
                           0000EC   583 _ETGSEL0	=	0x00ec
                           0000EB   584 G$ADCHS3$0_0$0 == 0x00eb
                           0000EB   585 _ADCHS3	=	0x00eb
                           0000EA   586 G$ADCHS2$0_0$0 == 0x00ea
                           0000EA   587 _ADCHS2	=	0x00ea
                           0000E9   588 G$ADCHS1$0_0$0 == 0x00e9
                           0000E9   589 _ADCHS1	=	0x00e9
                           0000E8   590 G$ADCHS0$0_0$0 == 0x00e8
                           0000E8   591 _ADCHS0	=	0x00e8
                           0000DF   592 G$PWMRUN$0_0$0 == 0x00df
                           0000DF   593 _PWMRUN	=	0x00df
                           0000DE   594 G$LOAD$0_0$0 == 0x00de
                           0000DE   595 _LOAD	=	0x00de
                           0000DD   596 G$PWMF$0_0$0 == 0x00dd
                           0000DD   597 _PWMF	=	0x00dd
                           0000DC   598 G$CLRPWM$0_0$0 == 0x00dc
                           0000DC   599 _CLRPWM	=	0x00dc
                           0000D7   600 G$CY$0_0$0 == 0x00d7
                           0000D7   601 _CY	=	0x00d7
                           0000D6   602 G$AC$0_0$0 == 0x00d6
                           0000D6   603 _AC	=	0x00d6
                           0000D5   604 G$F0$0_0$0 == 0x00d5
                           0000D5   605 _F0	=	0x00d5
                           0000D4   606 G$RS1$0_0$0 == 0x00d4
                           0000D4   607 _RS1	=	0x00d4
                           0000D3   608 G$RS0$0_0$0 == 0x00d3
                           0000D3   609 _RS0	=	0x00d3
                           0000D2   610 G$OV$0_0$0 == 0x00d2
                           0000D2   611 _OV	=	0x00d2
                           0000D0   612 G$P$0_0$0 == 0x00d0
                           0000D0   613 _P	=	0x00d0
                           0000CF   614 G$TF2$0_0$0 == 0x00cf
                           0000CF   615 _TF2	=	0x00cf
                           0000CA   616 G$TR2$0_0$0 == 0x00ca
                           0000CA   617 _TR2	=	0x00ca
                           0000C8   618 G$CM_RL2$0_0$0 == 0x00c8
                           0000C8   619 _CM_RL2	=	0x00c8
                           0000C6   620 G$I2CEN$0_0$0 == 0x00c6
                           0000C6   621 _I2CEN	=	0x00c6
                           0000C5   622 G$STA$0_0$0 == 0x00c5
                           0000C5   623 _STA	=	0x00c5
                           0000C4   624 G$STO$0_0$0 == 0x00c4
                           0000C4   625 _STO	=	0x00c4
                           0000C3   626 G$SI$0_0$0 == 0x00c3
                           0000C3   627 _SI	=	0x00c3
                           0000C2   628 G$AA$0_0$0 == 0x00c2
                           0000C2   629 _AA	=	0x00c2
                           0000C0   630 G$I2CPX$0_0$0 == 0x00c0
                           0000C0   631 _I2CPX	=	0x00c0
                           0000BE   632 G$PADC$0_0$0 == 0x00be
                           0000BE   633 _PADC	=	0x00be
                           0000BD   634 G$PBOD$0_0$0 == 0x00bd
                           0000BD   635 _PBOD	=	0x00bd
                           0000BC   636 G$PS$0_0$0 == 0x00bc
                           0000BC   637 _PS	=	0x00bc
                           0000BB   638 G$PT1$0_0$0 == 0x00bb
                           0000BB   639 _PT1	=	0x00bb
                           0000BA   640 G$PX1$0_0$0 == 0x00ba
                           0000BA   641 _PX1	=	0x00ba
                           0000B9   642 G$PT0$0_0$0 == 0x00b9
                           0000B9   643 _PT0	=	0x00b9
                           0000B8   644 G$PX0$0_0$0 == 0x00b8
                           0000B8   645 _PX0	=	0x00b8
                           0000B0   646 G$P30$0_0$0 == 0x00b0
                           0000B0   647 _P30	=	0x00b0
                           0000AF   648 G$EA$0_0$0 == 0x00af
                           0000AF   649 _EA	=	0x00af
                           0000AE   650 G$EADC$0_0$0 == 0x00ae
                           0000AE   651 _EADC	=	0x00ae
                           0000AD   652 G$EBOD$0_0$0 == 0x00ad
                           0000AD   653 _EBOD	=	0x00ad
                           0000AC   654 G$ES$0_0$0 == 0x00ac
                           0000AC   655 _ES	=	0x00ac
                           0000AB   656 G$ET1$0_0$0 == 0x00ab
                           0000AB   657 _ET1	=	0x00ab
                           0000AA   658 G$EX1$0_0$0 == 0x00aa
                           0000AA   659 _EX1	=	0x00aa
                           0000A9   660 G$ET0$0_0$0 == 0x00a9
                           0000A9   661 _ET0	=	0x00a9
                           0000A8   662 G$EX0$0_0$0 == 0x00a8
                           0000A8   663 _EX0	=	0x00a8
                           0000A0   664 G$P20$0_0$0 == 0x00a0
                           0000A0   665 _P20	=	0x00a0
                           00009F   666 G$SM0$0_0$0 == 0x009f
                           00009F   667 _SM0	=	0x009f
                           00009F   668 G$FE$0_0$0 == 0x009f
                           00009F   669 _FE	=	0x009f
                           00009E   670 G$SM1$0_0$0 == 0x009e
                           00009E   671 _SM1	=	0x009e
                           00009D   672 G$SM2$0_0$0 == 0x009d
                           00009D   673 _SM2	=	0x009d
                           00009C   674 G$REN$0_0$0 == 0x009c
                           00009C   675 _REN	=	0x009c
                           00009B   676 G$TB8$0_0$0 == 0x009b
                           00009B   677 _TB8	=	0x009b
                           00009A   678 G$RB8$0_0$0 == 0x009a
                           00009A   679 _RB8	=	0x009a
                           000099   680 G$TI$0_0$0 == 0x0099
                           000099   681 _TI	=	0x0099
                           000098   682 G$RI$0_0$0 == 0x0098
                           000098   683 _RI	=	0x0098
                           000097   684 G$P17$0_0$0 == 0x0097
                           000097   685 _P17	=	0x0097
                           000096   686 G$P16$0_0$0 == 0x0096
                           000096   687 _P16	=	0x0096
                           000096   688 G$TXD_1$0_0$0 == 0x0096
                           000096   689 _TXD_1	=	0x0096
                           000095   690 G$P15$0_0$0 == 0x0095
                           000095   691 _P15	=	0x0095
                           000094   692 G$P14$0_0$0 == 0x0094
                           000094   693 _P14	=	0x0094
                           000094   694 G$SDA$0_0$0 == 0x0094
                           000094   695 _SDA	=	0x0094
                           000093   696 G$P13$0_0$0 == 0x0093
                           000093   697 _P13	=	0x0093
                           000093   698 G$SCL$0_0$0 == 0x0093
                           000093   699 _SCL	=	0x0093
                           000092   700 G$P12$0_0$0 == 0x0092
                           000092   701 _P12	=	0x0092
                           000091   702 G$P11$0_0$0 == 0x0091
                           000091   703 _P11	=	0x0091
                           000090   704 G$P10$0_0$0 == 0x0090
                           000090   705 _P10	=	0x0090
                           00008F   706 G$TF1$0_0$0 == 0x008f
                           00008F   707 _TF1	=	0x008f
                           00008E   708 G$TR1$0_0$0 == 0x008e
                           00008E   709 _TR1	=	0x008e
                           00008D   710 G$TF0$0_0$0 == 0x008d
                           00008D   711 _TF0	=	0x008d
                           00008C   712 G$TR0$0_0$0 == 0x008c
                           00008C   713 _TR0	=	0x008c
                           00008B   714 G$IE1$0_0$0 == 0x008b
                           00008B   715 _IE1	=	0x008b
                           00008A   716 G$IT1$0_0$0 == 0x008a
                           00008A   717 _IT1	=	0x008a
                           000089   718 G$IE0$0_0$0 == 0x0089
                           000089   719 _IE0	=	0x0089
                           000088   720 G$IT0$0_0$0 == 0x0088
                           000088   721 _IT0	=	0x0088
                           000087   722 G$P07$0_0$0 == 0x0087
                           000087   723 _P07	=	0x0087
                           000087   724 G$RXD$0_0$0 == 0x0087
                           000087   725 _RXD	=	0x0087
                           000086   726 G$P06$0_0$0 == 0x0086
                           000086   727 _P06	=	0x0086
                           000086   728 G$TXD$0_0$0 == 0x0086
                           000086   729 _TXD	=	0x0086
                           000085   730 G$P05$0_0$0 == 0x0085
                           000085   731 _P05	=	0x0085
                           000084   732 G$P04$0_0$0 == 0x0084
                           000084   733 _P04	=	0x0084
                           000084   734 G$STADC$0_0$0 == 0x0084
                           000084   735 _STADC	=	0x0084
                           000083   736 G$P03$0_0$0 == 0x0083
                           000083   737 _P03	=	0x0083
                           000082   738 G$P02$0_0$0 == 0x0082
                           000082   739 _P02	=	0x0082
                           000082   740 G$RXD_1$0_0$0 == 0x0082
                           000082   741 _RXD_1	=	0x0082
                           000081   742 G$P01$0_0$0 == 0x0081
                           000081   743 _P01	=	0x0081
                           000081   744 G$MISO$0_0$0 == 0x0081
                           000081   745 _MISO	=	0x0081
                           000080   746 G$P00$0_0$0 == 0x0080
                           000080   747 _P00	=	0x0080
                           000080   748 G$MOSI$0_0$0 == 0x0080
                           000080   749 _MOSI	=	0x0080
                                    750 ;--------------------------------------------------------
                                    751 ; overlayable register banks
                                    752 ;--------------------------------------------------------
                                    753 	.area REG_BANK_0	(REL,OVR,DATA)
      000000                        754 	.ds 8
                                    755 ;--------------------------------------------------------
                                    756 ; internal ram data
                                    757 ;--------------------------------------------------------
                                    758 	.area DSEG    (DATA)
                                    759 ;--------------------------------------------------------
                                    760 ; internal ram data
                                    761 ;--------------------------------------------------------
                                    762 	.area INITIALIZED
                                    763 ;--------------------------------------------------------
                                    764 ; overlayable items in internal ram
                                    765 ;--------------------------------------------------------
                                    766 	.area	OSEG    (OVR,DATA)
                           000000   767 Liap.Erase_LDROM$sloc0$0_1$0==.
      00002F                        768 _Erase_LDROM_sloc0_1_0:
      00002F                        769 	.ds 2
                                    770 	.area	OSEG    (OVR,DATA)
                           000000   771 Liap.Erase_APROM$sloc0$0_1$0==.
      00002F                        772 _Erase_APROM_sloc0_1_0:
      00002F                        773 	.ds 2
                                    774 ;--------------------------------------------------------
                                    775 ; indirectly addressable internal ram data
                                    776 ;--------------------------------------------------------
                                    777 	.area ISEG    (DATA)
                                    778 ;--------------------------------------------------------
                                    779 ; absolute internal ram data
                                    780 ;--------------------------------------------------------
                                    781 	.area IABS    (ABS,DATA)
                                    782 	.area IABS    (ABS,DATA)
                                    783 ;--------------------------------------------------------
                                    784 ; bit data
                                    785 ;--------------------------------------------------------
                                    786 	.area BSEG    (BIT)
                           000000   787 G$ConfigModifyFlag$0_0$0==.
      000001                        788 _ConfigModifyFlag::
      000001                        789 	.ds 1
                                    790 ;--------------------------------------------------------
                                    791 ; paged external ram data
                                    792 ;--------------------------------------------------------
                                    793 	.area PSEG    (PAG,XDATA)
                                    794 ;--------------------------------------------------------
                                    795 ; uninitialized external ram data
                                    796 ;--------------------------------------------------------
                                    797 	.area XSEG    (XDATA)
                           000000   798 G$DIDBuffer$0_0$0==.
      000007                        799 _DIDBuffer::
      000007                        800 	.ds 2
                           000002   801 G$PIDBuffer$0_0$0==.
      000009                        802 _PIDBuffer::
      000009                        803 	.ds 2
                           000004   804 G$UIDBuffer$0_0$0==.
      00000B                        805 _UIDBuffer::
      00000B                        806 	.ds 12
                           000010   807 G$UCIDBuffer$0_0$0==.
      000017                        808 _UCIDBuffer::
      000017                        809 	.ds 12
                           00001C   810 G$IAPDataBuf$0_0$0==.
      000023                        811 _IAPDataBuf::
      000023                        812 	.ds 128
                           00009C   813 G$IAPCFBuf$0_0$0==.
      0000A3                        814 _IAPCFBuf::
      0000A3                        815 	.ds 5
                           0000A1   816 Liap.Erase_LDROM$u16IAPDataSize$1_0$153==.
      0000A8                        817 _Erase_LDROM_PARM_2:
      0000A8                        818 	.ds 2
                           0000A3   819 Liap.Erase_LDROM$u16IAPStartAddress$1_0$153==.
      0000AA                        820 _Erase_LDROM_u16IAPStartAddress_65536_153:
      0000AA                        821 	.ds 2
                           0000A5   822 Liap.Erase_Verify_LDROM$u16IAPDataSize$1_0$157==.
      0000AC                        823 _Erase_Verify_LDROM_PARM_2:
      0000AC                        824 	.ds 2
                           0000A7   825 Liap.Erase_Verify_LDROM$u16IAPStartAddress$1_0$157==.
      0000AE                        826 _Erase_Verify_LDROM_u16IAPStartAddress_65536_157:
      0000AE                        827 	.ds 2
                           0000A9   828 Liap.Program_LDROM$u16IAPDataSize$1_0$161==.
      0000B0                        829 _Program_LDROM_PARM_2:
      0000B0                        830 	.ds 2
                           0000AB   831 Liap.Program_LDROM$u16IAPStartAddress$1_0$161==.
      0000B2                        832 _Program_LDROM_u16IAPStartAddress_65536_161:
      0000B2                        833 	.ds 2
                           0000AD   834 Liap.Program_Verify_LDROM$u16IAPDataSize$1_0$166==.
      0000B4                        835 _Program_Verify_LDROM_PARM_2:
      0000B4                        836 	.ds 2
                           0000AF   837 Liap.Program_Verify_LDROM$u16IAPStartAddress$1_0$166==.
      0000B6                        838 _Program_Verify_LDROM_u16IAPStartAddress_65536_166:
      0000B6                        839 	.ds 2
                           0000B1   840 Liap.Erase_APROM$u16IAPDataSize$1_0$171==.
      0000B8                        841 _Erase_APROM_PARM_2:
      0000B8                        842 	.ds 2
                           0000B3   843 Liap.Erase_APROM$u16IAPStartAddress$1_0$171==.
      0000BA                        844 _Erase_APROM_u16IAPStartAddress_65536_171:
      0000BA                        845 	.ds 2
                           0000B5   846 Liap.Erase_Verify_APROM$u16IAPDataSize$1_0$175==.
      0000BC                        847 _Erase_Verify_APROM_PARM_2:
      0000BC                        848 	.ds 2
                           0000B7   849 Liap.Erase_Verify_APROM$u16IAPStartAddress$1_0$175==.
      0000BE                        850 _Erase_Verify_APROM_u16IAPStartAddress_65536_175:
      0000BE                        851 	.ds 2
                           0000B9   852 Liap.Program_APROM$u16IAPDataSize$1_0$179==.
      0000C0                        853 _Program_APROM_PARM_2:
      0000C0                        854 	.ds 2
                           0000BB   855 Liap.Program_APROM$u16IAPStartAddress$1_0$179==.
      0000C2                        856 _Program_APROM_u16IAPStartAddress_65536_179:
      0000C2                        857 	.ds 2
                           0000BD   858 Liap.Program_Verify_APROM$u16IAPDataSize$1_0$184==.
      0000C4                        859 _Program_Verify_APROM_PARM_2:
      0000C4                        860 	.ds 2
                           0000BF   861 Liap.Program_Verify_APROM$u16IAPStartAddress$1_0$184==.
      0000C6                        862 _Program_Verify_APROM_u16IAPStartAddress_65536_184:
      0000C6                        863 	.ds 2
                           0000C1   864 Liap.Modify_CONFIG$u8CF1$1_0$189==.
      0000C8                        865 _Modify_CONFIG_PARM_2:
      0000C8                        866 	.ds 1
                           0000C2   867 Liap.Modify_CONFIG$u8CF2$1_0$189==.
      0000C9                        868 _Modify_CONFIG_PARM_3:
      0000C9                        869 	.ds 1
                           0000C3   870 Liap.Modify_CONFIG$u8CF3$1_0$189==.
      0000CA                        871 _Modify_CONFIG_PARM_4:
      0000CA                        872 	.ds 1
                           0000C4   873 Liap.Modify_CONFIG$u8CF4$1_0$189==.
      0000CB                        874 _Modify_CONFIG_PARM_5:
      0000CB                        875 	.ds 1
                           0000C5   876 Liap.Modify_CONFIG$u8CF0$1_0$189==.
      0000CC                        877 _Modify_CONFIG_u8CF0_65536_189:
      0000CC                        878 	.ds 1
                                    879 ;--------------------------------------------------------
                                    880 ; absolute external ram data
                                    881 ;--------------------------------------------------------
                                    882 	.area XABS    (ABS,XDATA)
                                    883 ;--------------------------------------------------------
                                    884 ; initialized external ram data
                                    885 ;--------------------------------------------------------
                                    886 	.area XISEG   (XDATA)
                                    887 	.area HOME    (CODE)
                                    888 	.area GSINIT0 (CODE)
                                    889 	.area GSINIT1 (CODE)
                                    890 	.area GSINIT2 (CODE)
                                    891 	.area GSINIT3 (CODE)
                                    892 	.area GSINIT4 (CODE)
                                    893 	.area GSINIT5 (CODE)
                                    894 	.area GSINIT  (CODE)
                                    895 	.area GSFINAL (CODE)
                                    896 	.area CSEG    (CODE)
                                    897 ;--------------------------------------------------------
                                    898 ; global & static initialisations
                                    899 ;--------------------------------------------------------
                                    900 	.area HOME    (CODE)
                                    901 	.area GSINIT  (CODE)
                                    902 	.area GSFINAL (CODE)
                                    903 	.area GSINIT  (CODE)
                                    904 ;--------------------------------------------------------
                                    905 ; Home
                                    906 ;--------------------------------------------------------
                                    907 	.area HOME    (CODE)
                                    908 	.area HOME    (CODE)
                                    909 ;--------------------------------------------------------
                                    910 ; code
                                    911 ;--------------------------------------------------------
                                    912 	.area CSEG    (CODE)
                                    913 ;------------------------------------------------------------
                                    914 ;Allocation info for local variables in function 'Erase_LDROM'
                                    915 ;------------------------------------------------------------
                                    916 ;u16IAPDataSize            Allocated with name '_Erase_LDROM_PARM_2'
                                    917 ;u16IAPStartAddress        Allocated with name '_Erase_LDROM_u16IAPStartAddress_65536_153'
                                    918 ;u16Count                  Allocated with name '_Erase_LDROM_u16Count_65536_154'
                                    919 ;sloc0                     Allocated with name '_Erase_LDROM_sloc0_1_0'
                                    920 ;------------------------------------------------------------
                           000000   921 	Siap$Erase_LDROM$0 ==.
                                    922 ;	C:/BSP/MG51xC9AE_MG51xB9AE_Series/Library/StdDriver/src/iap.c:46: void Erase_LDROM(uint16_t u16IAPStartAddress, uint16_t u16IAPDataSize)
                                    923 ;	-----------------------------------------
                                    924 ;	 function Erase_LDROM
                                    925 ;	-----------------------------------------
      000185                        926 _Erase_LDROM:
                           000007   927 	ar7 = 0x07
                           000006   928 	ar6 = 0x06
                           000005   929 	ar5 = 0x05
                           000004   930 	ar4 = 0x04
                           000003   931 	ar3 = 0x03
                           000002   932 	ar2 = 0x02
                           000001   933 	ar1 = 0x01
                           000000   934 	ar0 = 0x00
                           000000   935 	Siap$Erase_LDROM$1 ==.
      000185 AF 83            [24]  936 	mov	r7,dph
      000187 E5 82            [12]  937 	mov	a,dpl
      000189 90 00 AA         [24]  938 	mov	dptr,#_Erase_LDROM_u16IAPStartAddress_65536_153
      00018C F0               [24]  939 	movx	@dptr,a
      00018D EF               [12]  940 	mov	a,r7
      00018E A3               [24]  941 	inc	dptr
      00018F F0               [24]  942 	movx	@dptr,a
                           00000B   943 	Siap$Erase_LDROM$2 ==.
                                    944 ;	C:/BSP/MG51xC9AE_MG51xB9AE_Series/Library/StdDriver/src/iap.c:50: set_CHPCON_IAPEN;                    // Enable IAP function
                                    945 ;	assignBit
      000190 A2 AF            [12]  946 	mov	c,_EA
      000192 92 00            [24]  947 	mov	_BIT_TMP,c
                                    948 ;	assignBit
      000194 C2 AF            [12]  949 	clr	_EA
      000196 75 C7 AA         [24]  950 	mov	_TA,#0xaa
      000199 75 C7 55         [24]  951 	mov	_TA,#0x55
      00019C 43 9F 01         [24]  952 	orl	_CHPCON,#0x01
                                    953 ;	assignBit
      00019F A2 00            [12]  954 	mov	c,_BIT_TMP
      0001A1 92 AF            [24]  955 	mov	_EA,c
                           00001E   956 	Siap$Erase_LDROM$3 ==.
                                    957 ;	C:/BSP/MG51xC9AE_MG51xB9AE_Series/Library/StdDriver/src/iap.c:51: set_IAPUEN_LDUEN;                    //  LDROM modify Enable
                                    958 ;	assignBit
      0001A3 A2 AF            [12]  959 	mov	c,_EA
      0001A5 92 00            [24]  960 	mov	_BIT_TMP,c
                                    961 ;	assignBit
      0001A7 C2 AF            [12]  962 	clr	_EA
      0001A9 75 C7 AA         [24]  963 	mov	_TA,#0xaa
      0001AC 75 C7 55         [24]  964 	mov	_TA,#0x55
      0001AF 43 A5 02         [24]  965 	orl	_IAPUEN,#0x02
                                    966 ;	assignBit
      0001B2 A2 00            [12]  967 	mov	c,_BIT_TMP
      0001B4 92 AF            [24]  968 	mov	_EA,c
                           000031   969 	Siap$Erase_LDROM$4 ==.
                                    970 ;	C:/BSP/MG51xC9AE_MG51xB9AE_Series/Library/StdDriver/src/iap.c:52: IAPFD = 0xFF;                        // IMPORTANT !! To erase function must setting IAPFD = 0xFF 
      0001B6 75 AE FF         [24]  971 	mov	_IAPFD,#0xff
                           000034   972 	Siap$Erase_LDROM$5 ==.
                                    973 ;	C:/BSP/MG51xC9AE_MG51xB9AE_Series/Library/StdDriver/src/iap.c:53: IAPCN = PAGE_ERASE_LDROM;
      0001B9 75 AF 62         [24]  974 	mov	_IAPCN,#0x62
                           000037   975 	Siap$Erase_LDROM$6 ==.
                           000037   976 	Siap$Erase_LDROM$7 ==.
                                    977 ;	C:/BSP/MG51xC9AE_MG51xB9AE_Series/Library/StdDriver/src/iap.c:54: for(u16Count=0x0000;u16Count<(u16IAPDataSize/PAGE_SIZE);u16Count++)            // Loop page erase LDROM special  address area.
      0001BC 90 00 AA         [24]  978 	mov	dptr,#_Erase_LDROM_u16IAPStartAddress_65536_153
      0001BF E0               [24]  979 	movx	a,@dptr
      0001C0 FE               [12]  980 	mov	r6,a
      0001C1 A3               [24]  981 	inc	dptr
      0001C2 E0               [24]  982 	movx	a,@dptr
      0001C3 FF               [12]  983 	mov	r7,a
                           00003F   984 	Siap$Erase_LDROM$8 ==.
      0001C4 90 00 A8         [24]  985 	mov	dptr,#_Erase_LDROM_PARM_2
      0001C7 E0               [24]  986 	movx	a,@dptr
      0001C8 FC               [12]  987 	mov	r4,a
      0001C9 A3               [24]  988 	inc	dptr
      0001CA E0               [24]  989 	movx	a,@dptr
      0001CB FD               [12]  990 	mov	r5,a
      0001CC 7A 00            [12]  991 	mov	r2,#0x00
      0001CE 7B 00            [12]  992 	mov	r3,#0x00
      0001D0                        993 00103$:
      0001D0 8C 00            [24]  994 	mov	ar0,r4
      0001D2 8D 01            [24]  995 	mov	ar1,r5
      0001D4 E9               [12]  996 	mov	a,r1
      0001D5 A2 E7            [12]  997 	mov	c,acc.7
      0001D7 C8               [12]  998 	xch	a,r0
      0001D8 33               [12]  999 	rlc	a
      0001D9 C8               [12] 1000 	xch	a,r0
      0001DA 33               [12] 1001 	rlc	a
      0001DB C8               [12] 1002 	xch	a,r0
      0001DC 54 01            [12] 1003 	anl	a,#0x01
      0001DE F9               [12] 1004 	mov	r1,a
      0001DF 8A 2F            [24] 1005 	mov	_Erase_LDROM_sloc0_1_0,r2
      0001E1 8B 30            [24] 1006 	mov	(_Erase_LDROM_sloc0_1_0 + 1),r3
      0001E3 C3               [12] 1007 	clr	c
      0001E4 E5 2F            [12] 1008 	mov	a,_Erase_LDROM_sloc0_1_0
      0001E6 98               [12] 1009 	subb	a,r0
      0001E7 E5 30            [12] 1010 	mov	a,(_Erase_LDROM_sloc0_1_0 + 1)
      0001E9 99               [12] 1011 	subb	a,r1
      0001EA 50 4F            [24] 1012 	jnc	00101$
                           000067  1013 	Siap$Erase_LDROM$9 ==.
                                   1014 ;	C:/BSP/MG51xC9AE_MG51xB9AE_Series/Library/StdDriver/src/iap.c:56: IAPAL = LOBYTE(u16Count*PAGE_SIZE + u16IAPStartAddress);
      0001EC 8A 01            [24] 1015 	mov	ar1,r2
      0001EE E9               [12] 1016 	mov	a,r1
      0001EF 75 F0 80         [24] 1017 	mov	b,#0x80
      0001F2 A4               [48] 1018 	mul	ab
      0001F3 F9               [12] 1019 	mov	r1,a
      0001F4 8E 00            [24] 1020 	mov	ar0,r6
      0001F6 E8               [12] 1021 	mov	a,r0
      0001F7 29               [12] 1022 	add	a,r1
      0001F8 F9               [12] 1023 	mov	r1,a
      0001F9 89 A6            [24] 1024 	mov	_IAPAL,r1
                           000076  1025 	Siap$Erase_LDROM$10 ==.
                                   1026 ;	C:/BSP/MG51xC9AE_MG51xB9AE_Series/Library/StdDriver/src/iap.c:57: IAPAH = HIBYTE(u16Count*PAGE_SIZE + u16IAPStartAddress);
      0001FB A8 2F            [24] 1027 	mov	r0,_Erase_LDROM_sloc0_1_0
      0001FD E5 30            [12] 1028 	mov	a,(_Erase_LDROM_sloc0_1_0 + 1)
      0001FF 54 01            [12] 1029 	anl	a,#0x01
      000201 A2 E0            [12] 1030 	mov	c,acc.0
      000203 C8               [12] 1031 	xch	a,r0
      000204 13               [12] 1032 	rrc	a
      000205 C8               [12] 1033 	xch	a,r0
      000206 13               [12] 1034 	rrc	a
      000207 C8               [12] 1035 	xch	a,r0
      000208 F9               [12] 1036 	mov	r1,a
      000209 EE               [12] 1037 	mov	a,r6
      00020A 28               [12] 1038 	add	a,r0
      00020B EF               [12] 1039 	mov	a,r7
      00020C 39               [12] 1040 	addc	a,r1
      00020D F9               [12] 1041 	mov	r1,a
      00020E 89 A7            [24] 1042 	mov	_IAPAH,r1
                           00008B  1043 	Siap$Erase_LDROM$11 ==.
                                   1044 ;	C:/BSP/MG51xC9AE_MG51xB9AE_Series/Library/StdDriver/src/iap.c:58: set_IAPTRG_IAPGO_WDCLR;
      000210 A2 AF            [12] 1045 	mov	c,_EA
                                   1046 ;	assignBit
      000212 C2 AF            [12] 1047 	clr	_EA
                                   1048 ;	assignBit
      000214 A2 AF            [12] 1049 	mov	c,_EA
      000216 92 00            [24] 1050 	mov	_BIT_TMP,c
                                   1051 ;	assignBit
      000218 C2 AF            [12] 1052 	clr	_EA
      00021A 75 C7 AA         [24] 1053 	mov	_TA,#0xaa
      00021D 75 C7 55         [24] 1054 	mov	_TA,#0x55
      000220 43 AA 40         [24] 1055 	orl	_WDCON,#0x40
                                   1056 ;	assignBit
      000223 A2 00            [12] 1057 	mov	c,_BIT_TMP
      000225 92 AF            [24] 1058 	mov	_EA,c
      000227 75 C7 AA         [24] 1059 	mov	_TA,#0xaa
      00022A 75 C7 55         [24] 1060 	mov	_TA,#0x55
      00022D 43 A4 01         [24] 1061 	orl	_IAPTRG,#0x01
                                   1062 ;	assignBit
      000230 A2 00            [12] 1063 	mov	c,_BIT_TMP
      000232 92 AF            [24] 1064 	mov	_EA,c
                           0000AF  1065 	Siap$Erase_LDROM$12 ==.
                                   1066 ;	C:/BSP/MG51xC9AE_MG51xB9AE_Series/Library/StdDriver/src/iap.c:54: for(u16Count=0x0000;u16Count<(u16IAPDataSize/PAGE_SIZE);u16Count++)            // Loop page erase LDROM special  address area.
      000234 0A               [12] 1067 	inc	r2
      000235 BA 00 98         [24] 1068 	cjne	r2,#0x00,00103$
      000238 0B               [12] 1069 	inc	r3
      000239 80 95            [24] 1070 	sjmp	00103$
      00023B                       1071 00101$:
                           0000B6  1072 	Siap$Erase_LDROM$13 ==.
                                   1073 ;	C:/BSP/MG51xC9AE_MG51xB9AE_Series/Library/StdDriver/src/iap.c:60: clr_IAPUEN_LDUEN;                    // Disable LDROM modify 
                                   1074 ;	assignBit
      00023B A2 AF            [12] 1075 	mov	c,_EA
      00023D 92 00            [24] 1076 	mov	_BIT_TMP,c
                                   1077 ;	assignBit
      00023F C2 AF            [12] 1078 	clr	_EA
      000241 75 C7 AA         [24] 1079 	mov	_TA,#0xaa
      000244 75 C7 55         [24] 1080 	mov	_TA,#0x55
      000247 53 A5 FD         [24] 1081 	anl	_IAPUEN,#0xfd
                                   1082 ;	assignBit
      00024A A2 00            [12] 1083 	mov	c,_BIT_TMP
      00024C 92 AF            [24] 1084 	mov	_EA,c
                           0000C9  1085 	Siap$Erase_LDROM$14 ==.
                                   1086 ;	C:/BSP/MG51xC9AE_MG51xB9AE_Series/Library/StdDriver/src/iap.c:61: clr_CHPCON_IAPEN;                    // Disable IAP
                                   1087 ;	assignBit
      00024E A2 AF            [12] 1088 	mov	c,_EA
      000250 92 00            [24] 1089 	mov	_BIT_TMP,c
                                   1090 ;	assignBit
      000252 C2 AF            [12] 1091 	clr	_EA
      000254 75 C7 AA         [24] 1092 	mov	_TA,#0xaa
      000257 75 C7 55         [24] 1093 	mov	_TA,#0x55
      00025A 53 9F FE         [24] 1094 	anl	_CHPCON,#0xfe
                                   1095 ;	assignBit
      00025D A2 00            [12] 1096 	mov	c,_BIT_TMP
      00025F 92 AF            [24] 1097 	mov	_EA,c
                           0000DC  1098 	Siap$Erase_LDROM$15 ==.
                                   1099 ;	C:/BSP/MG51xC9AE_MG51xB9AE_Series/Library/StdDriver/src/iap.c:62: }
                           0000DC  1100 	Siap$Erase_LDROM$16 ==.
                           0000DC  1101 	XG$Erase_LDROM$0$0 ==.
      000261 22               [24] 1102 	ret
                           0000DD  1103 	Siap$Erase_LDROM$17 ==.
                                   1104 ;------------------------------------------------------------
                                   1105 ;Allocation info for local variables in function 'Erase_Verify_LDROM'
                                   1106 ;------------------------------------------------------------
                                   1107 ;u16IAPDataSize            Allocated with name '_Erase_Verify_LDROM_PARM_2'
                                   1108 ;u16IAPStartAddress        Allocated with name '_Erase_Verify_LDROM_u16IAPStartAddress_65536_157'
                                   1109 ;u16Count                  Allocated with name '_Erase_Verify_LDROM_u16Count_65536_158'
                                   1110 ;------------------------------------------------------------
                           0000DD  1111 	Siap$Erase_Verify_LDROM$18 ==.
                                   1112 ;	C:/BSP/MG51xC9AE_MG51xB9AE_Series/Library/StdDriver/src/iap.c:72: void Erase_Verify_LDROM(uint16_t u16IAPStartAddress, uint16_t u16IAPDataSize)
                                   1113 ;	-----------------------------------------
                                   1114 ;	 function Erase_Verify_LDROM
                                   1115 ;	-----------------------------------------
      000262                       1116 _Erase_Verify_LDROM:
                           0000DD  1117 	Siap$Erase_Verify_LDROM$19 ==.
      000262 AF 83            [24] 1118 	mov	r7,dph
      000264 E5 82            [12] 1119 	mov	a,dpl
      000266 90 00 AE         [24] 1120 	mov	dptr,#_Erase_Verify_LDROM_u16IAPStartAddress_65536_157
      000269 F0               [24] 1121 	movx	@dptr,a
      00026A EF               [12] 1122 	mov	a,r7
      00026B A3               [24] 1123 	inc	dptr
      00026C F0               [24] 1124 	movx	@dptr,a
                           0000E8  1125 	Siap$Erase_Verify_LDROM$20 ==.
                                   1126 ;	C:/BSP/MG51xC9AE_MG51xB9AE_Series/Library/StdDriver/src/iap.c:75: set_CHPCON_IAPEN;
                                   1127 ;	assignBit
      00026D A2 AF            [12] 1128 	mov	c,_EA
      00026F 92 00            [24] 1129 	mov	_BIT_TMP,c
                                   1130 ;	assignBit
      000271 C2 AF            [12] 1131 	clr	_EA
      000273 75 C7 AA         [24] 1132 	mov	_TA,#0xaa
      000276 75 C7 55         [24] 1133 	mov	_TA,#0x55
      000279 43 9F 01         [24] 1134 	orl	_CHPCON,#0x01
                                   1135 ;	assignBit
      00027C A2 00            [12] 1136 	mov	c,_BIT_TMP
      00027E 92 AF            [24] 1137 	mov	_EA,c
                           0000FB  1138 	Siap$Erase_Verify_LDROM$21 ==.
                                   1139 ;	C:/BSP/MG51xC9AE_MG51xB9AE_Series/Library/StdDriver/src/iap.c:76: IAPAL = LOBYTE(u16IAPStartAddress);
      000280 90 00 AE         [24] 1140 	mov	dptr,#_Erase_Verify_LDROM_u16IAPStartAddress_65536_157
      000283 E0               [24] 1141 	movx	a,@dptr
      000284 FE               [12] 1142 	mov	r6,a
      000285 A3               [24] 1143 	inc	dptr
      000286 E0               [24] 1144 	movx	a,@dptr
      000287 FF               [12] 1145 	mov	r7,a
      000288 8E A6            [24] 1146 	mov	_IAPAL,r6
                           000105  1147 	Siap$Erase_Verify_LDROM$22 ==.
                                   1148 ;	C:/BSP/MG51xC9AE_MG51xB9AE_Series/Library/StdDriver/src/iap.c:77: IAPAH = HIBYTE(u16IAPStartAddress);
      00028A 8F A7            [24] 1149 	mov	_IAPAH,r7
                           000107  1150 	Siap$Erase_Verify_LDROM$23 ==.
                                   1151 ;	C:/BSP/MG51xC9AE_MG51xB9AE_Series/Library/StdDriver/src/iap.c:78: IAPCN = BYTE_READ_LDROM;
      00028C 75 AF 40         [24] 1152 	mov	_IAPCN,#0x40
                           00010A  1153 	Siap$Erase_Verify_LDROM$24 ==.
                                   1154 ;	C:/BSP/MG51xC9AE_MG51xB9AE_Series/Library/StdDriver/src/iap.c:80: for(u16Count=0;u16Count<u16IAPDataSize;u16Count++)
      00028F 90 00 AC         [24] 1155 	mov	dptr,#_Erase_Verify_LDROM_PARM_2
      000292 E0               [24] 1156 	movx	a,@dptr
      000293 FE               [12] 1157 	mov	r6,a
      000294 A3               [24] 1158 	inc	dptr
      000295 E0               [24] 1159 	movx	a,@dptr
      000296 FF               [12] 1160 	mov	r7,a
      000297 7C 00            [12] 1161 	mov	r4,#0x00
      000299 7D 00            [12] 1162 	mov	r5,#0x00
      00029B                       1163 00110$:
      00029B C3               [12] 1164 	clr	c
      00029C EC               [12] 1165 	mov	a,r4
      00029D 9E               [12] 1166 	subb	a,r6
      00029E ED               [12] 1167 	mov	a,r5
      00029F 9F               [12] 1168 	subb	a,r7
      0002A0 50 34            [24] 1169 	jnc	00108$
                           00011D  1170 	Siap$Erase_Verify_LDROM$25 ==.
                           00011D  1171 	Siap$Erase_Verify_LDROM$26 ==.
                                   1172 ;	C:/BSP/MG51xC9AE_MG51xB9AE_Series/Library/StdDriver/src/iap.c:82: IAPFD = 0x00;    
      0002A2 75 AE 00         [24] 1173 	mov	_IAPFD,#0x00
                           000120  1174 	Siap$Erase_Verify_LDROM$27 ==.
                                   1175 ;	C:/BSP/MG51xC9AE_MG51xB9AE_Series/Library/StdDriver/src/iap.c:83: set_IAPTRG_IAPGO;
                                   1176 ;	assignBit
      0002A5 A2 AF            [12] 1177 	mov	c,_EA
      0002A7 92 00            [24] 1178 	mov	_BIT_TMP,c
                                   1179 ;	assignBit
      0002A9 C2 AF            [12] 1180 	clr	_EA
      0002AB 75 C7 AA         [24] 1181 	mov	_TA,#0xaa
      0002AE 75 C7 55         [24] 1182 	mov	_TA,#0x55
      0002B1 43 A4 01         [24] 1183 	orl	_IAPTRG,#0x01
                                   1184 ;	assignBit
      0002B4 A2 00            [12] 1185 	mov	c,_BIT_TMP
      0002B6 92 AF            [24] 1186 	mov	_EA,c
                           000133  1187 	Siap$Erase_Verify_LDROM$28 ==.
                                   1188 ;	C:/BSP/MG51xC9AE_MG51xB9AE_Series/Library/StdDriver/src/iap.c:84: if(IAPFD != 0xFF)
      0002B8 74 FF            [12] 1189 	mov	a,#0xff
      0002BA B5 AE 02         [24] 1190 	cjne	a,_IAPFD,00131$
      0002BD 80 02            [24] 1191 	sjmp	00105$
      0002BF                       1192 00131$:
                           00013A  1193 	Siap$Erase_Verify_LDROM$29 ==.
                                   1194 ;	C:/BSP/MG51xC9AE_MG51xB9AE_Series/Library/StdDriver/src/iap.c:85: while(1);
      0002BF                       1195 00102$:
      0002BF 80 FE            [24] 1196 	sjmp	00102$
      0002C1                       1197 00105$:
                           00013C  1198 	Siap$Erase_Verify_LDROM$30 ==.
                                   1199 ;	C:/BSP/MG51xC9AE_MG51xB9AE_Series/Library/StdDriver/src/iap.c:86: IAPAL++;
      0002C1 E5 A6            [12] 1200 	mov	a,_IAPAL
      0002C3 04               [12] 1201 	inc	a
      0002C4 F5 A6            [12] 1202 	mov	_IAPAL,a
                           000141  1203 	Siap$Erase_Verify_LDROM$31 ==.
                                   1204 ;	C:/BSP/MG51xC9AE_MG51xB9AE_Series/Library/StdDriver/src/iap.c:87: if(IAPAL == 0x00)
      0002C6 E5 A6            [12] 1205 	mov	a,_IAPAL
      0002C8 70 05            [24] 1206 	jnz	00111$
                           000145  1207 	Siap$Erase_Verify_LDROM$32 ==.
                                   1208 ;	C:/BSP/MG51xC9AE_MG51xB9AE_Series/Library/StdDriver/src/iap.c:88: IAPAH++;
      0002CA E5 A7            [12] 1209 	mov	a,_IAPAH
      0002CC 04               [12] 1210 	inc	a
      0002CD F5 A7            [12] 1211 	mov	_IAPAH,a
      0002CF                       1212 00111$:
                           00014A  1213 	Siap$Erase_Verify_LDROM$33 ==.
                           00014A  1214 	Siap$Erase_Verify_LDROM$34 ==.
                                   1215 ;	C:/BSP/MG51xC9AE_MG51xB9AE_Series/Library/StdDriver/src/iap.c:80: for(u16Count=0;u16Count<u16IAPDataSize;u16Count++)
      0002CF 0C               [12] 1216 	inc	r4
      0002D0 BC 00 C8         [24] 1217 	cjne	r4,#0x00,00110$
      0002D3 0D               [12] 1218 	inc	r5
      0002D4 80 C5            [24] 1219 	sjmp	00110$
      0002D6                       1220 00108$:
                           000151  1221 	Siap$Erase_Verify_LDROM$35 ==.
                                   1222 ;	C:/BSP/MG51xC9AE_MG51xB9AE_Series/Library/StdDriver/src/iap.c:90: clr_CHPCON_IAPEN;
                                   1223 ;	assignBit
      0002D6 A2 AF            [12] 1224 	mov	c,_EA
      0002D8 92 00            [24] 1225 	mov	_BIT_TMP,c
                                   1226 ;	assignBit
      0002DA C2 AF            [12] 1227 	clr	_EA
      0002DC 75 C7 AA         [24] 1228 	mov	_TA,#0xaa
      0002DF 75 C7 55         [24] 1229 	mov	_TA,#0x55
      0002E2 53 9F FE         [24] 1230 	anl	_CHPCON,#0xfe
                                   1231 ;	assignBit
      0002E5 A2 00            [12] 1232 	mov	c,_BIT_TMP
      0002E7 92 AF            [24] 1233 	mov	_EA,c
                           000164  1234 	Siap$Erase_Verify_LDROM$36 ==.
                                   1235 ;	C:/BSP/MG51xC9AE_MG51xB9AE_Series/Library/StdDriver/src/iap.c:91: }
                           000164  1236 	Siap$Erase_Verify_LDROM$37 ==.
                           000164  1237 	XG$Erase_Verify_LDROM$0$0 ==.
      0002E9 22               [24] 1238 	ret
                           000165  1239 	Siap$Erase_Verify_LDROM$38 ==.
                                   1240 ;------------------------------------------------------------
                                   1241 ;Allocation info for local variables in function 'Program_LDROM'
                                   1242 ;------------------------------------------------------------
                                   1243 ;u16IAPDataSize            Allocated with name '_Program_LDROM_PARM_2'
                                   1244 ;u16IAPStartAddress        Allocated with name '_Program_LDROM_u16IAPStartAddress_65536_161'
                                   1245 ;u16Count                  Allocated with name '_Program_LDROM_u16Count_65536_162'
                                   1246 ;------------------------------------------------------------
                           000165  1247 	Siap$Program_LDROM$39 ==.
                                   1248 ;	C:/BSP/MG51xC9AE_MG51xB9AE_Series/Library/StdDriver/src/iap.c:101: void Program_LDROM(uint16_t u16IAPStartAddress, uint16_t u16IAPDataSize)
                                   1249 ;	-----------------------------------------
                                   1250 ;	 function Program_LDROM
                                   1251 ;	-----------------------------------------
      0002EA                       1252 _Program_LDROM:
                           000165  1253 	Siap$Program_LDROM$40 ==.
      0002EA AF 83            [24] 1254 	mov	r7,dph
      0002EC E5 82            [12] 1255 	mov	a,dpl
      0002EE 90 00 B2         [24] 1256 	mov	dptr,#_Program_LDROM_u16IAPStartAddress_65536_161
      0002F1 F0               [24] 1257 	movx	@dptr,a
      0002F2 EF               [12] 1258 	mov	a,r7
      0002F3 A3               [24] 1259 	inc	dptr
      0002F4 F0               [24] 1260 	movx	@dptr,a
                           000170  1261 	Siap$Program_LDROM$41 ==.
                                   1262 ;	C:/BSP/MG51xC9AE_MG51xB9AE_Series/Library/StdDriver/src/iap.c:105: set_CHPCON_IAPEN;
                                   1263 ;	assignBit
      0002F5 A2 AF            [12] 1264 	mov	c,_EA
      0002F7 92 00            [24] 1265 	mov	_BIT_TMP,c
                                   1266 ;	assignBit
      0002F9 C2 AF            [12] 1267 	clr	_EA
      0002FB 75 C7 AA         [24] 1268 	mov	_TA,#0xaa
      0002FE 75 C7 55         [24] 1269 	mov	_TA,#0x55
      000301 43 9F 01         [24] 1270 	orl	_CHPCON,#0x01
                                   1271 ;	assignBit
      000304 A2 00            [12] 1272 	mov	c,_BIT_TMP
      000306 92 AF            [24] 1273 	mov	_EA,c
                           000183  1274 	Siap$Program_LDROM$42 ==.
                                   1275 ;	C:/BSP/MG51xC9AE_MG51xB9AE_Series/Library/StdDriver/src/iap.c:106: set_IAPUEN_LDUEN;    
                                   1276 ;	assignBit
      000308 A2 AF            [12] 1277 	mov	c,_EA
      00030A 92 00            [24] 1278 	mov	_BIT_TMP,c
                                   1279 ;	assignBit
      00030C C2 AF            [12] 1280 	clr	_EA
      00030E 75 C7 AA         [24] 1281 	mov	_TA,#0xaa
      000311 75 C7 55         [24] 1282 	mov	_TA,#0x55
      000314 43 A5 02         [24] 1283 	orl	_IAPUEN,#0x02
                                   1284 ;	assignBit
      000317 A2 00            [12] 1285 	mov	c,_BIT_TMP
      000319 92 AF            [24] 1286 	mov	_EA,c
                           000196  1287 	Siap$Program_LDROM$43 ==.
                                   1288 ;	C:/BSP/MG51xC9AE_MG51xB9AE_Series/Library/StdDriver/src/iap.c:107: IAPAL = LOBYTE(u16IAPStartAddress);
      00031B 90 00 B2         [24] 1289 	mov	dptr,#_Program_LDROM_u16IAPStartAddress_65536_161
      00031E E0               [24] 1290 	movx	a,@dptr
      00031F FE               [12] 1291 	mov	r6,a
      000320 A3               [24] 1292 	inc	dptr
      000321 E0               [24] 1293 	movx	a,@dptr
      000322 FF               [12] 1294 	mov	r7,a
      000323 8E A6            [24] 1295 	mov	_IAPAL,r6
                           0001A0  1296 	Siap$Program_LDROM$44 ==.
                                   1297 ;	C:/BSP/MG51xC9AE_MG51xB9AE_Series/Library/StdDriver/src/iap.c:108: IAPAH = HIBYTE(u16IAPStartAddress);
      000325 8F A7            [24] 1298 	mov	_IAPAH,r7
                           0001A2  1299 	Siap$Program_LDROM$45 ==.
                                   1300 ;	C:/BSP/MG51xC9AE_MG51xB9AE_Series/Library/StdDriver/src/iap.c:109: IAPCN = BYTE_PROGRAM_LDROM;
      000327 75 AF 61         [24] 1301 	mov	_IAPCN,#0x61
                           0001A5  1302 	Siap$Program_LDROM$46 ==.
                                   1303 ;	C:/BSP/MG51xC9AE_MG51xB9AE_Series/Library/StdDriver/src/iap.c:111: for(u16Count=0;u16Count<u16IAPDataSize;u16Count++)
      00032A 90 00 B0         [24] 1304 	mov	dptr,#_Program_LDROM_PARM_2
      00032D E0               [24] 1305 	movx	a,@dptr
      00032E FE               [12] 1306 	mov	r6,a
      00032F A3               [24] 1307 	inc	dptr
      000330 E0               [24] 1308 	movx	a,@dptr
      000331 FF               [12] 1309 	mov	r7,a
      000332 7C 00            [12] 1310 	mov	r4,#0x00
      000334 7D 00            [12] 1311 	mov	r5,#0x00
      000336                       1312 00105$:
      000336 C3               [12] 1313 	clr	c
      000337 EC               [12] 1314 	mov	a,r4
      000338 9E               [12] 1315 	subb	a,r6
      000339 ED               [12] 1316 	mov	a,r5
      00033A 9F               [12] 1317 	subb	a,r7
      00033B 50 46            [24] 1318 	jnc	00103$
                           0001B8  1319 	Siap$Program_LDROM$47 ==.
                           0001B8  1320 	Siap$Program_LDROM$48 ==.
                                   1321 ;	C:/BSP/MG51xC9AE_MG51xB9AE_Series/Library/StdDriver/src/iap.c:113: IAPFD = IAPDataBuf[u16Count];     
      00033D EC               [12] 1322 	mov	a,r4
      00033E 24 23            [12] 1323 	add	a,#_IAPDataBuf
      000340 F5 82            [12] 1324 	mov	dpl,a
      000342 ED               [12] 1325 	mov	a,r5
      000343 34 00            [12] 1326 	addc	a,#(_IAPDataBuf >> 8)
      000345 F5 83            [12] 1327 	mov	dph,a
      000347 E0               [24] 1328 	movx	a,@dptr
      000348 F5 AE            [12] 1329 	mov	_IAPFD,a
                           0001C5  1330 	Siap$Program_LDROM$49 ==.
                                   1331 ;	C:/BSP/MG51xC9AE_MG51xB9AE_Series/Library/StdDriver/src/iap.c:114: set_IAPTRG_IAPGO_WDCLR;
      00034A A2 AF            [12] 1332 	mov	c,_EA
                                   1333 ;	assignBit
      00034C C2 AF            [12] 1334 	clr	_EA
                                   1335 ;	assignBit
      00034E A2 AF            [12] 1336 	mov	c,_EA
      000350 92 00            [24] 1337 	mov	_BIT_TMP,c
                                   1338 ;	assignBit
      000352 C2 AF            [12] 1339 	clr	_EA
      000354 75 C7 AA         [24] 1340 	mov	_TA,#0xaa
      000357 75 C7 55         [24] 1341 	mov	_TA,#0x55
      00035A 43 AA 40         [24] 1342 	orl	_WDCON,#0x40
                                   1343 ;	assignBit
      00035D A2 00            [12] 1344 	mov	c,_BIT_TMP
      00035F 92 AF            [24] 1345 	mov	_EA,c
      000361 75 C7 AA         [24] 1346 	mov	_TA,#0xaa
      000364 75 C7 55         [24] 1347 	mov	_TA,#0x55
      000367 43 A4 01         [24] 1348 	orl	_IAPTRG,#0x01
                                   1349 ;	assignBit
      00036A A2 00            [12] 1350 	mov	c,_BIT_TMP
      00036C 92 AF            [24] 1351 	mov	_EA,c
                           0001E9  1352 	Siap$Program_LDROM$50 ==.
                                   1353 ;	C:/BSP/MG51xC9AE_MG51xB9AE_Series/Library/StdDriver/src/iap.c:115: IAPAL++;
      00036E E5 A6            [12] 1354 	mov	a,_IAPAL
      000370 04               [12] 1355 	inc	a
      000371 F5 A6            [12] 1356 	mov	_IAPAL,a
                           0001EE  1357 	Siap$Program_LDROM$51 ==.
                                   1358 ;	C:/BSP/MG51xC9AE_MG51xB9AE_Series/Library/StdDriver/src/iap.c:116: if(IAPAL == 0)
      000373 E5 A6            [12] 1359 	mov	a,_IAPAL
      000375 70 05            [24] 1360 	jnz	00106$
                           0001F2  1361 	Siap$Program_LDROM$52 ==.
                           0001F2  1362 	Siap$Program_LDROM$53 ==.
                                   1363 ;	C:/BSP/MG51xC9AE_MG51xB9AE_Series/Library/StdDriver/src/iap.c:118: IAPAH++;
      000377 E5 A7            [12] 1364 	mov	a,_IAPAH
      000379 04               [12] 1365 	inc	a
      00037A F5 A7            [12] 1366 	mov	_IAPAH,a
                           0001F7  1367 	Siap$Program_LDROM$54 ==.
      00037C                       1368 00106$:
                           0001F7  1369 	Siap$Program_LDROM$55 ==.
                           0001F7  1370 	Siap$Program_LDROM$56 ==.
                                   1371 ;	C:/BSP/MG51xC9AE_MG51xB9AE_Series/Library/StdDriver/src/iap.c:111: for(u16Count=0;u16Count<u16IAPDataSize;u16Count++)
      00037C 0C               [12] 1372 	inc	r4
      00037D BC 00 B6         [24] 1373 	cjne	r4,#0x00,00105$
      000380 0D               [12] 1374 	inc	r5
      000381 80 B3            [24] 1375 	sjmp	00105$
      000383                       1376 00103$:
                           0001FE  1377 	Siap$Program_LDROM$57 ==.
                                   1378 ;	C:/BSP/MG51xC9AE_MG51xB9AE_Series/Library/StdDriver/src/iap.c:121: clr_IAPUEN_LDUEN;
                                   1379 ;	assignBit
      000383 A2 AF            [12] 1380 	mov	c,_EA
      000385 92 00            [24] 1381 	mov	_BIT_TMP,c
                                   1382 ;	assignBit
      000387 C2 AF            [12] 1383 	clr	_EA
      000389 75 C7 AA         [24] 1384 	mov	_TA,#0xaa
      00038C 75 C7 55         [24] 1385 	mov	_TA,#0x55
      00038F 53 A5 FD         [24] 1386 	anl	_IAPUEN,#0xfd
                                   1387 ;	assignBit
      000392 A2 00            [12] 1388 	mov	c,_BIT_TMP
      000394 92 AF            [24] 1389 	mov	_EA,c
                           000211  1390 	Siap$Program_LDROM$58 ==.
                                   1391 ;	C:/BSP/MG51xC9AE_MG51xB9AE_Series/Library/StdDriver/src/iap.c:122: clr_CHPCON_IAPEN;
                                   1392 ;	assignBit
      000396 A2 AF            [12] 1393 	mov	c,_EA
      000398 92 00            [24] 1394 	mov	_BIT_TMP,c
                                   1395 ;	assignBit
      00039A C2 AF            [12] 1396 	clr	_EA
      00039C 75 C7 AA         [24] 1397 	mov	_TA,#0xaa
      00039F 75 C7 55         [24] 1398 	mov	_TA,#0x55
      0003A2 53 9F FE         [24] 1399 	anl	_CHPCON,#0xfe
                                   1400 ;	assignBit
      0003A5 A2 00            [12] 1401 	mov	c,_BIT_TMP
      0003A7 92 AF            [24] 1402 	mov	_EA,c
                           000224  1403 	Siap$Program_LDROM$59 ==.
                                   1404 ;	C:/BSP/MG51xC9AE_MG51xB9AE_Series/Library/StdDriver/src/iap.c:123: }
                           000224  1405 	Siap$Program_LDROM$60 ==.
                           000224  1406 	XG$Program_LDROM$0$0 ==.
      0003A9 22               [24] 1407 	ret
                           000225  1408 	Siap$Program_LDROM$61 ==.
                                   1409 ;------------------------------------------------------------
                                   1410 ;Allocation info for local variables in function 'Program_Verify_LDROM'
                                   1411 ;------------------------------------------------------------
                                   1412 ;u16IAPDataSize            Allocated with name '_Program_Verify_LDROM_PARM_2'
                                   1413 ;u16IAPStartAddress        Allocated with name '_Program_Verify_LDROM_u16IAPStartAddress_65536_166'
                                   1414 ;u16Count                  Allocated with name '_Program_Verify_LDROM_u16Count_65536_167'
                                   1415 ;------------------------------------------------------------
                           000225  1416 	Siap$Program_Verify_LDROM$62 ==.
                                   1417 ;	C:/BSP/MG51xC9AE_MG51xB9AE_Series/Library/StdDriver/src/iap.c:134: void Program_Verify_LDROM(uint16_t u16IAPStartAddress, uint16_t u16IAPDataSize)
                                   1418 ;	-----------------------------------------
                                   1419 ;	 function Program_Verify_LDROM
                                   1420 ;	-----------------------------------------
      0003AA                       1421 _Program_Verify_LDROM:
                           000225  1422 	Siap$Program_Verify_LDROM$63 ==.
      0003AA AF 83            [24] 1423 	mov	r7,dph
      0003AC E5 82            [12] 1424 	mov	a,dpl
      0003AE 90 00 B6         [24] 1425 	mov	dptr,#_Program_Verify_LDROM_u16IAPStartAddress_65536_166
      0003B1 F0               [24] 1426 	movx	@dptr,a
      0003B2 EF               [12] 1427 	mov	a,r7
      0003B3 A3               [24] 1428 	inc	dptr
      0003B4 F0               [24] 1429 	movx	@dptr,a
                           000230  1430 	Siap$Program_Verify_LDROM$64 ==.
                                   1431 ;	C:/BSP/MG51xC9AE_MG51xB9AE_Series/Library/StdDriver/src/iap.c:138: set_CHPCON_IAPEN;
                                   1432 ;	assignBit
      0003B5 A2 AF            [12] 1433 	mov	c,_EA
      0003B7 92 00            [24] 1434 	mov	_BIT_TMP,c
                                   1435 ;	assignBit
      0003B9 C2 AF            [12] 1436 	clr	_EA
      0003BB 75 C7 AA         [24] 1437 	mov	_TA,#0xaa
      0003BE 75 C7 55         [24] 1438 	mov	_TA,#0x55
      0003C1 43 9F 01         [24] 1439 	orl	_CHPCON,#0x01
                                   1440 ;	assignBit
      0003C4 A2 00            [12] 1441 	mov	c,_BIT_TMP
      0003C6 92 AF            [24] 1442 	mov	_EA,c
                           000243  1443 	Siap$Program_Verify_LDROM$65 ==.
                                   1444 ;	C:/BSP/MG51xC9AE_MG51xB9AE_Series/Library/StdDriver/src/iap.c:139: IAPAL = LOBYTE(u16IAPStartAddress);
      0003C8 90 00 B6         [24] 1445 	mov	dptr,#_Program_Verify_LDROM_u16IAPStartAddress_65536_166
      0003CB E0               [24] 1446 	movx	a,@dptr
      0003CC FE               [12] 1447 	mov	r6,a
      0003CD A3               [24] 1448 	inc	dptr
      0003CE E0               [24] 1449 	movx	a,@dptr
      0003CF FF               [12] 1450 	mov	r7,a
      0003D0 8E A6            [24] 1451 	mov	_IAPAL,r6
                           00024D  1452 	Siap$Program_Verify_LDROM$66 ==.
                                   1453 ;	C:/BSP/MG51xC9AE_MG51xB9AE_Series/Library/StdDriver/src/iap.c:140: IAPAH = HIBYTE(u16IAPStartAddress);
      0003D2 8F A7            [24] 1454 	mov	_IAPAH,r7
                           00024F  1455 	Siap$Program_Verify_LDROM$67 ==.
                                   1456 ;	C:/BSP/MG51xC9AE_MG51xB9AE_Series/Library/StdDriver/src/iap.c:141: IAPCN = BYTE_READ_LDROM;
      0003D4 75 AF 40         [24] 1457 	mov	_IAPCN,#0x40
                           000252  1458 	Siap$Program_Verify_LDROM$68 ==.
                                   1459 ;	C:/BSP/MG51xC9AE_MG51xB9AE_Series/Library/StdDriver/src/iap.c:142: for(u16Count=0;u16Count<u16IAPDataSize;u16Count++)
      0003D7 90 00 B4         [24] 1460 	mov	dptr,#_Program_Verify_LDROM_PARM_2
      0003DA E0               [24] 1461 	movx	a,@dptr
      0003DB FE               [12] 1462 	mov	r6,a
      0003DC A3               [24] 1463 	inc	dptr
      0003DD E0               [24] 1464 	movx	a,@dptr
      0003DE FF               [12] 1465 	mov	r7,a
      0003DF 7C 00            [12] 1466 	mov	r4,#0x00
      0003E1 7D 00            [12] 1467 	mov	r5,#0x00
      0003E3                       1468 00110$:
      0003E3 C3               [12] 1469 	clr	c
      0003E4 EC               [12] 1470 	mov	a,r4
      0003E5 9E               [12] 1471 	subb	a,r6
      0003E6 ED               [12] 1472 	mov	a,r5
      0003E7 9F               [12] 1473 	subb	a,r7
      0003E8 50 3E            [24] 1474 	jnc	00108$
                           000265  1475 	Siap$Program_Verify_LDROM$69 ==.
                           000265  1476 	Siap$Program_Verify_LDROM$70 ==.
                                   1477 ;	C:/BSP/MG51xC9AE_MG51xB9AE_Series/Library/StdDriver/src/iap.c:144: IAPFD = 0x00;
      0003EA 75 AE 00         [24] 1478 	mov	_IAPFD,#0x00
                           000268  1479 	Siap$Program_Verify_LDROM$71 ==.
                                   1480 ;	C:/BSP/MG51xC9AE_MG51xB9AE_Series/Library/StdDriver/src/iap.c:145: set_IAPTRG_IAPGO;
                                   1481 ;	assignBit
      0003ED A2 AF            [12] 1482 	mov	c,_EA
      0003EF 92 00            [24] 1483 	mov	_BIT_TMP,c
                                   1484 ;	assignBit
      0003F1 C2 AF            [12] 1485 	clr	_EA
      0003F3 75 C7 AA         [24] 1486 	mov	_TA,#0xaa
      0003F6 75 C7 55         [24] 1487 	mov	_TA,#0x55
      0003F9 43 A4 01         [24] 1488 	orl	_IAPTRG,#0x01
                                   1489 ;	assignBit
      0003FC A2 00            [12] 1490 	mov	c,_BIT_TMP
      0003FE 92 AF            [24] 1491 	mov	_EA,c
                           00027B  1492 	Siap$Program_Verify_LDROM$72 ==.
                                   1493 ;	C:/BSP/MG51xC9AE_MG51xB9AE_Series/Library/StdDriver/src/iap.c:146: if (IAPFD != IAPDataBuf[u16Count])    
      000400 EC               [12] 1494 	mov	a,r4
      000401 24 23            [12] 1495 	add	a,#_IAPDataBuf
      000403 F5 82            [12] 1496 	mov	dpl,a
      000405 ED               [12] 1497 	mov	a,r5
      000406 34 00            [12] 1498 	addc	a,#(_IAPDataBuf >> 8)
      000408 F5 83            [12] 1499 	mov	dph,a
      00040A E0               [24] 1500 	movx	a,@dptr
      00040B FB               [12] 1501 	mov	r3,a
      00040C B5 AE 02         [24] 1502 	cjne	a,_IAPFD,00131$
      00040F 80 02            [24] 1503 	sjmp	00105$
      000411                       1504 00131$:
                           00028C  1505 	Siap$Program_Verify_LDROM$73 ==.
                                   1506 ;	C:/BSP/MG51xC9AE_MG51xB9AE_Series/Library/StdDriver/src/iap.c:147: while(1);
      000411                       1507 00102$:
      000411 80 FE            [24] 1508 	sjmp	00102$
      000413                       1509 00105$:
                           00028E  1510 	Siap$Program_Verify_LDROM$74 ==.
                                   1511 ;	C:/BSP/MG51xC9AE_MG51xB9AE_Series/Library/StdDriver/src/iap.c:148: IAPAL++;
      000413 E5 A6            [12] 1512 	mov	a,_IAPAL
      000415 04               [12] 1513 	inc	a
      000416 F5 A6            [12] 1514 	mov	_IAPAL,a
                           000293  1515 	Siap$Program_Verify_LDROM$75 ==.
                                   1516 ;	C:/BSP/MG51xC9AE_MG51xB9AE_Series/Library/StdDriver/src/iap.c:149: if(IAPAL == 0)
      000418 E5 A6            [12] 1517 	mov	a,_IAPAL
      00041A 70 05            [24] 1518 	jnz	00111$
                           000297  1519 	Siap$Program_Verify_LDROM$76 ==.
                           000297  1520 	Siap$Program_Verify_LDROM$77 ==.
                                   1521 ;	C:/BSP/MG51xC9AE_MG51xB9AE_Series/Library/StdDriver/src/iap.c:151: IAPAH++;
      00041C E5 A7            [12] 1522 	mov	a,_IAPAH
      00041E 04               [12] 1523 	inc	a
      00041F F5 A7            [12] 1524 	mov	_IAPAH,a
                           00029C  1525 	Siap$Program_Verify_LDROM$78 ==.
      000421                       1526 00111$:
                           00029C  1527 	Siap$Program_Verify_LDROM$79 ==.
                           00029C  1528 	Siap$Program_Verify_LDROM$80 ==.
                                   1529 ;	C:/BSP/MG51xC9AE_MG51xB9AE_Series/Library/StdDriver/src/iap.c:142: for(u16Count=0;u16Count<u16IAPDataSize;u16Count++)
      000421 0C               [12] 1530 	inc	r4
      000422 BC 00 BE         [24] 1531 	cjne	r4,#0x00,00110$
      000425 0D               [12] 1532 	inc	r5
      000426 80 BB            [24] 1533 	sjmp	00110$
      000428                       1534 00108$:
                           0002A3  1535 	Siap$Program_Verify_LDROM$81 ==.
                                   1536 ;	C:/BSP/MG51xC9AE_MG51xB9AE_Series/Library/StdDriver/src/iap.c:154: clr_CHPCON_IAPEN;
                                   1537 ;	assignBit
      000428 A2 AF            [12] 1538 	mov	c,_EA
      00042A 92 00            [24] 1539 	mov	_BIT_TMP,c
                                   1540 ;	assignBit
      00042C C2 AF            [12] 1541 	clr	_EA
      00042E 75 C7 AA         [24] 1542 	mov	_TA,#0xaa
      000431 75 C7 55         [24] 1543 	mov	_TA,#0x55
      000434 53 9F FE         [24] 1544 	anl	_CHPCON,#0xfe
                                   1545 ;	assignBit
      000437 A2 00            [12] 1546 	mov	c,_BIT_TMP
      000439 92 AF            [24] 1547 	mov	_EA,c
                           0002B6  1548 	Siap$Program_Verify_LDROM$82 ==.
                                   1549 ;	C:/BSP/MG51xC9AE_MG51xB9AE_Series/Library/StdDriver/src/iap.c:155: }
                           0002B6  1550 	Siap$Program_Verify_LDROM$83 ==.
                           0002B6  1551 	XG$Program_Verify_LDROM$0$0 ==.
      00043B 22               [24] 1552 	ret
                           0002B7  1553 	Siap$Program_Verify_LDROM$84 ==.
                                   1554 ;------------------------------------------------------------
                                   1555 ;Allocation info for local variables in function 'Erase_APROM'
                                   1556 ;------------------------------------------------------------
                                   1557 ;u16IAPDataSize            Allocated with name '_Erase_APROM_PARM_2'
                                   1558 ;u16IAPStartAddress        Allocated with name '_Erase_APROM_u16IAPStartAddress_65536_171'
                                   1559 ;u16Count                  Allocated with name '_Erase_APROM_u16Count_65536_172'
                                   1560 ;sloc0                     Allocated with name '_Erase_APROM_sloc0_1_0'
                                   1561 ;------------------------------------------------------------
                           0002B7  1562 	Siap$Erase_APROM$85 ==.
                                   1563 ;	C:/BSP/MG51xC9AE_MG51xB9AE_Series/Library/StdDriver/src/iap.c:165: void Erase_APROM(uint16_t u16IAPStartAddress, uint16_t u16IAPDataSize)
                                   1564 ;	-----------------------------------------
                                   1565 ;	 function Erase_APROM
                                   1566 ;	-----------------------------------------
      00043C                       1567 _Erase_APROM:
                           0002B7  1568 	Siap$Erase_APROM$86 ==.
      00043C AF 83            [24] 1569 	mov	r7,dph
      00043E E5 82            [12] 1570 	mov	a,dpl
      000440 90 00 BA         [24] 1571 	mov	dptr,#_Erase_APROM_u16IAPStartAddress_65536_171
      000443 F0               [24] 1572 	movx	@dptr,a
      000444 EF               [12] 1573 	mov	a,r7
      000445 A3               [24] 1574 	inc	dptr
      000446 F0               [24] 1575 	movx	@dptr,a
                           0002C2  1576 	Siap$Erase_APROM$87 ==.
                                   1577 ;	C:/BSP/MG51xC9AE_MG51xB9AE_Series/Library/StdDriver/src/iap.c:169: set_CHPCON_IAPEN;                    // Enable IAP function
                                   1578 ;	assignBit
      000447 A2 AF            [12] 1579 	mov	c,_EA
      000449 92 00            [24] 1580 	mov	_BIT_TMP,c
                                   1581 ;	assignBit
      00044B C2 AF            [12] 1582 	clr	_EA
      00044D 75 C7 AA         [24] 1583 	mov	_TA,#0xaa
      000450 75 C7 55         [24] 1584 	mov	_TA,#0x55
      000453 43 9F 01         [24] 1585 	orl	_CHPCON,#0x01
                                   1586 ;	assignBit
      000456 A2 00            [12] 1587 	mov	c,_BIT_TMP
      000458 92 AF            [24] 1588 	mov	_EA,c
                           0002D5  1589 	Siap$Erase_APROM$88 ==.
                                   1590 ;	C:/BSP/MG51xC9AE_MG51xB9AE_Series/Library/StdDriver/src/iap.c:170: set_IAPUEN_APUEN;                    // APROM modify Enable
                                   1591 ;	assignBit
      00045A A2 AF            [12] 1592 	mov	c,_EA
      00045C 92 00            [24] 1593 	mov	_BIT_TMP,c
                                   1594 ;	assignBit
      00045E C2 AF            [12] 1595 	clr	_EA
      000460 75 C7 AA         [24] 1596 	mov	_TA,#0xaa
      000463 75 C7 55         [24] 1597 	mov	_TA,#0x55
      000466 43 A5 01         [24] 1598 	orl	_IAPUEN,#0x01
                                   1599 ;	assignBit
      000469 A2 00            [12] 1600 	mov	c,_BIT_TMP
      00046B 92 AF            [24] 1601 	mov	_EA,c
                           0002E8  1602 	Siap$Erase_APROM$89 ==.
                                   1603 ;	C:/BSP/MG51xC9AE_MG51xB9AE_Series/Library/StdDriver/src/iap.c:171: IAPFD = 0xFF;                        // IMPORTANT !! To erase function must setting IAPFD = 0xFF 
      00046D 75 AE FF         [24] 1604 	mov	_IAPFD,#0xff
                           0002EB  1605 	Siap$Erase_APROM$90 ==.
                                   1606 ;	C:/BSP/MG51xC9AE_MG51xB9AE_Series/Library/StdDriver/src/iap.c:172: IAPCN = PAGE_ERASE_APROM;
      000470 75 AF 22         [24] 1607 	mov	_IAPCN,#0x22
                           0002EE  1608 	Siap$Erase_APROM$91 ==.
                           0002EE  1609 	Siap$Erase_APROM$92 ==.
                                   1610 ;	C:/BSP/MG51xC9AE_MG51xB9AE_Series/Library/StdDriver/src/iap.c:173: for(u16Count=0x0000;u16Count<u16IAPDataSize/PAGE_SIZE;u16Count++)            // Loop page erase APROM special  address area.
      000473 90 00 BA         [24] 1611 	mov	dptr,#_Erase_APROM_u16IAPStartAddress_65536_171
      000476 E0               [24] 1612 	movx	a,@dptr
      000477 FE               [12] 1613 	mov	r6,a
      000478 A3               [24] 1614 	inc	dptr
      000479 E0               [24] 1615 	movx	a,@dptr
      00047A FF               [12] 1616 	mov	r7,a
                           0002F6  1617 	Siap$Erase_APROM$93 ==.
      00047B 90 00 B8         [24] 1618 	mov	dptr,#_Erase_APROM_PARM_2
      00047E E0               [24] 1619 	movx	a,@dptr
      00047F FC               [12] 1620 	mov	r4,a
      000480 A3               [24] 1621 	inc	dptr
      000481 E0               [24] 1622 	movx	a,@dptr
      000482 FD               [12] 1623 	mov	r5,a
      000483 7A 00            [12] 1624 	mov	r2,#0x00
      000485 7B 00            [12] 1625 	mov	r3,#0x00
      000487                       1626 00103$:
      000487 8C 00            [24] 1627 	mov	ar0,r4
      000489 8D 01            [24] 1628 	mov	ar1,r5
      00048B E9               [12] 1629 	mov	a,r1
      00048C A2 E7            [12] 1630 	mov	c,acc.7
      00048E C8               [12] 1631 	xch	a,r0
      00048F 33               [12] 1632 	rlc	a
      000490 C8               [12] 1633 	xch	a,r0
      000491 33               [12] 1634 	rlc	a
      000492 C8               [12] 1635 	xch	a,r0
      000493 54 01            [12] 1636 	anl	a,#0x01
      000495 F9               [12] 1637 	mov	r1,a
      000496 8A 2F            [24] 1638 	mov	_Erase_APROM_sloc0_1_0,r2
      000498 8B 30            [24] 1639 	mov	(_Erase_APROM_sloc0_1_0 + 1),r3
      00049A C3               [12] 1640 	clr	c
      00049B E5 2F            [12] 1641 	mov	a,_Erase_APROM_sloc0_1_0
      00049D 98               [12] 1642 	subb	a,r0
      00049E E5 30            [12] 1643 	mov	a,(_Erase_APROM_sloc0_1_0 + 1)
      0004A0 99               [12] 1644 	subb	a,r1
      0004A1 50 4F            [24] 1645 	jnc	00101$
                           00031E  1646 	Siap$Erase_APROM$94 ==.
                                   1647 ;	C:/BSP/MG51xC9AE_MG51xB9AE_Series/Library/StdDriver/src/iap.c:175: IAPAL = LOBYTE(u16Count*PAGE_SIZE + u16IAPStartAddress);
      0004A3 8A 01            [24] 1648 	mov	ar1,r2
      0004A5 E9               [12] 1649 	mov	a,r1
      0004A6 75 F0 80         [24] 1650 	mov	b,#0x80
      0004A9 A4               [48] 1651 	mul	ab
      0004AA F9               [12] 1652 	mov	r1,a
      0004AB 8E 00            [24] 1653 	mov	ar0,r6
      0004AD E8               [12] 1654 	mov	a,r0
      0004AE 29               [12] 1655 	add	a,r1
      0004AF F9               [12] 1656 	mov	r1,a
      0004B0 89 A6            [24] 1657 	mov	_IAPAL,r1
                           00032D  1658 	Siap$Erase_APROM$95 ==.
                                   1659 ;	C:/BSP/MG51xC9AE_MG51xB9AE_Series/Library/StdDriver/src/iap.c:176: IAPAH = HIBYTE(u16Count*PAGE_SIZE + u16IAPStartAddress);
      0004B2 A8 2F            [24] 1660 	mov	r0,_Erase_APROM_sloc0_1_0
      0004B4 E5 30            [12] 1661 	mov	a,(_Erase_APROM_sloc0_1_0 + 1)
      0004B6 54 01            [12] 1662 	anl	a,#0x01
      0004B8 A2 E0            [12] 1663 	mov	c,acc.0
      0004BA C8               [12] 1664 	xch	a,r0
      0004BB 13               [12] 1665 	rrc	a
      0004BC C8               [12] 1666 	xch	a,r0
      0004BD 13               [12] 1667 	rrc	a
      0004BE C8               [12] 1668 	xch	a,r0
      0004BF F9               [12] 1669 	mov	r1,a
      0004C0 EE               [12] 1670 	mov	a,r6
      0004C1 28               [12] 1671 	add	a,r0
      0004C2 EF               [12] 1672 	mov	a,r7
      0004C3 39               [12] 1673 	addc	a,r1
      0004C4 F9               [12] 1674 	mov	r1,a
      0004C5 89 A7            [24] 1675 	mov	_IAPAH,r1
                           000342  1676 	Siap$Erase_APROM$96 ==.
                                   1677 ;	C:/BSP/MG51xC9AE_MG51xB9AE_Series/Library/StdDriver/src/iap.c:177: set_IAPTRG_IAPGO_WDCLR; 
      0004C7 A2 AF            [12] 1678 	mov	c,_EA
                                   1679 ;	assignBit
      0004C9 C2 AF            [12] 1680 	clr	_EA
                                   1681 ;	assignBit
      0004CB A2 AF            [12] 1682 	mov	c,_EA
      0004CD 92 00            [24] 1683 	mov	_BIT_TMP,c
                                   1684 ;	assignBit
      0004CF C2 AF            [12] 1685 	clr	_EA
      0004D1 75 C7 AA         [24] 1686 	mov	_TA,#0xaa
      0004D4 75 C7 55         [24] 1687 	mov	_TA,#0x55
      0004D7 43 AA 40         [24] 1688 	orl	_WDCON,#0x40
                                   1689 ;	assignBit
      0004DA A2 00            [12] 1690 	mov	c,_BIT_TMP
      0004DC 92 AF            [24] 1691 	mov	_EA,c
      0004DE 75 C7 AA         [24] 1692 	mov	_TA,#0xaa
      0004E1 75 C7 55         [24] 1693 	mov	_TA,#0x55
      0004E4 43 A4 01         [24] 1694 	orl	_IAPTRG,#0x01
                                   1695 ;	assignBit
      0004E7 A2 00            [12] 1696 	mov	c,_BIT_TMP
      0004E9 92 AF            [24] 1697 	mov	_EA,c
                           000366  1698 	Siap$Erase_APROM$97 ==.
                                   1699 ;	C:/BSP/MG51xC9AE_MG51xB9AE_Series/Library/StdDriver/src/iap.c:173: for(u16Count=0x0000;u16Count<u16IAPDataSize/PAGE_SIZE;u16Count++)            // Loop page erase APROM special  address area.
      0004EB 0A               [12] 1700 	inc	r2
      0004EC BA 00 98         [24] 1701 	cjne	r2,#0x00,00103$
      0004EF 0B               [12] 1702 	inc	r3
      0004F0 80 95            [24] 1703 	sjmp	00103$
      0004F2                       1704 00101$:
                           00036D  1705 	Siap$Erase_APROM$98 ==.
                                   1706 ;	C:/BSP/MG51xC9AE_MG51xB9AE_Series/Library/StdDriver/src/iap.c:179: clr_IAPUEN_APUEN;                    // Disable APROM modify 
                                   1707 ;	assignBit
      0004F2 A2 AF            [12] 1708 	mov	c,_EA
      0004F4 92 00            [24] 1709 	mov	_BIT_TMP,c
                                   1710 ;	assignBit
      0004F6 C2 AF            [12] 1711 	clr	_EA
      0004F8 75 C7 AA         [24] 1712 	mov	_TA,#0xaa
      0004FB 75 C7 55         [24] 1713 	mov	_TA,#0x55
      0004FE 53 A5 FE         [24] 1714 	anl	_IAPUEN,#0xfe
                                   1715 ;	assignBit
      000501 A2 00            [12] 1716 	mov	c,_BIT_TMP
      000503 92 AF            [24] 1717 	mov	_EA,c
                           000380  1718 	Siap$Erase_APROM$99 ==.
                                   1719 ;	C:/BSP/MG51xC9AE_MG51xB9AE_Series/Library/StdDriver/src/iap.c:180: clr_CHPCON_IAPEN;                    // Disable IAP
                                   1720 ;	assignBit
      000505 A2 AF            [12] 1721 	mov	c,_EA
      000507 92 00            [24] 1722 	mov	_BIT_TMP,c
                                   1723 ;	assignBit
      000509 C2 AF            [12] 1724 	clr	_EA
      00050B 75 C7 AA         [24] 1725 	mov	_TA,#0xaa
      00050E 75 C7 55         [24] 1726 	mov	_TA,#0x55
      000511 53 9F FE         [24] 1727 	anl	_CHPCON,#0xfe
                                   1728 ;	assignBit
      000514 A2 00            [12] 1729 	mov	c,_BIT_TMP
      000516 92 AF            [24] 1730 	mov	_EA,c
                           000393  1731 	Siap$Erase_APROM$100 ==.
                                   1732 ;	C:/BSP/MG51xC9AE_MG51xB9AE_Series/Library/StdDriver/src/iap.c:181: }
                           000393  1733 	Siap$Erase_APROM$101 ==.
                           000393  1734 	XG$Erase_APROM$0$0 ==.
      000518 22               [24] 1735 	ret
                           000394  1736 	Siap$Erase_APROM$102 ==.
                                   1737 ;------------------------------------------------------------
                                   1738 ;Allocation info for local variables in function 'Erase_Verify_APROM'
                                   1739 ;------------------------------------------------------------
                                   1740 ;u16IAPDataSize            Allocated with name '_Erase_Verify_APROM_PARM_2'
                                   1741 ;u16IAPStartAddress        Allocated with name '_Erase_Verify_APROM_u16IAPStartAddress_65536_175'
                                   1742 ;u16Count                  Allocated with name '_Erase_Verify_APROM_u16Count_65536_176'
                                   1743 ;------------------------------------------------------------
                           000394  1744 	Siap$Erase_Verify_APROM$103 ==.
                                   1745 ;	C:/BSP/MG51xC9AE_MG51xB9AE_Series/Library/StdDriver/src/iap.c:191: void Erase_Verify_APROM(uint16_t u16IAPStartAddress, uint16_t u16IAPDataSize)
                                   1746 ;	-----------------------------------------
                                   1747 ;	 function Erase_Verify_APROM
                                   1748 ;	-----------------------------------------
      000519                       1749 _Erase_Verify_APROM:
                           000394  1750 	Siap$Erase_Verify_APROM$104 ==.
      000519 AF 83            [24] 1751 	mov	r7,dph
      00051B E5 82            [12] 1752 	mov	a,dpl
      00051D 90 00 BE         [24] 1753 	mov	dptr,#_Erase_Verify_APROM_u16IAPStartAddress_65536_175
      000520 F0               [24] 1754 	movx	@dptr,a
      000521 EF               [12] 1755 	mov	a,r7
      000522 A3               [24] 1756 	inc	dptr
      000523 F0               [24] 1757 	movx	@dptr,a
                           00039F  1758 	Siap$Erase_Verify_APROM$105 ==.
                                   1759 ;	C:/BSP/MG51xC9AE_MG51xB9AE_Series/Library/StdDriver/src/iap.c:195: set_CHPCON_IAPEN;
                                   1760 ;	assignBit
      000524 A2 AF            [12] 1761 	mov	c,_EA
      000526 92 00            [24] 1762 	mov	_BIT_TMP,c
                                   1763 ;	assignBit
      000528 C2 AF            [12] 1764 	clr	_EA
      00052A 75 C7 AA         [24] 1765 	mov	_TA,#0xaa
      00052D 75 C7 55         [24] 1766 	mov	_TA,#0x55
      000530 43 9F 01         [24] 1767 	orl	_CHPCON,#0x01
                                   1768 ;	assignBit
      000533 A2 00            [12] 1769 	mov	c,_BIT_TMP
      000535 92 AF            [24] 1770 	mov	_EA,c
                           0003B2  1771 	Siap$Erase_Verify_APROM$106 ==.
                                   1772 ;	C:/BSP/MG51xC9AE_MG51xB9AE_Series/Library/StdDriver/src/iap.c:196: IAPAL = LOBYTE(u16IAPStartAddress);
      000537 90 00 BE         [24] 1773 	mov	dptr,#_Erase_Verify_APROM_u16IAPStartAddress_65536_175
      00053A E0               [24] 1774 	movx	a,@dptr
      00053B FE               [12] 1775 	mov	r6,a
      00053C A3               [24] 1776 	inc	dptr
      00053D E0               [24] 1777 	movx	a,@dptr
      00053E FF               [12] 1778 	mov	r7,a
      00053F 8E A6            [24] 1779 	mov	_IAPAL,r6
                           0003BC  1780 	Siap$Erase_Verify_APROM$107 ==.
                                   1781 ;	C:/BSP/MG51xC9AE_MG51xB9AE_Series/Library/StdDriver/src/iap.c:197: IAPAH = HIBYTE(u16IAPStartAddress);
      000541 8F A7            [24] 1782 	mov	_IAPAH,r7
                           0003BE  1783 	Siap$Erase_Verify_APROM$108 ==.
                                   1784 ;	C:/BSP/MG51xC9AE_MG51xB9AE_Series/Library/StdDriver/src/iap.c:198: IAPCN = BYTE_READ_APROM;
      000543 75 AF 00         [24] 1785 	mov	_IAPCN,#0x00
                           0003C1  1786 	Siap$Erase_Verify_APROM$109 ==.
                                   1787 ;	C:/BSP/MG51xC9AE_MG51xB9AE_Series/Library/StdDriver/src/iap.c:199: for(u16Count=0;u16Count<u16IAPDataSize;u16Count++)
      000546 90 00 BC         [24] 1788 	mov	dptr,#_Erase_Verify_APROM_PARM_2
      000549 E0               [24] 1789 	movx	a,@dptr
      00054A FE               [12] 1790 	mov	r6,a
      00054B A3               [24] 1791 	inc	dptr
      00054C E0               [24] 1792 	movx	a,@dptr
      00054D FF               [12] 1793 	mov	r7,a
      00054E 7C 00            [12] 1794 	mov	r4,#0x00
      000550 7D 00            [12] 1795 	mov	r5,#0x00
      000552                       1796 00110$:
      000552 C3               [12] 1797 	clr	c
      000553 EC               [12] 1798 	mov	a,r4
      000554 9E               [12] 1799 	subb	a,r6
      000555 ED               [12] 1800 	mov	a,r5
      000556 9F               [12] 1801 	subb	a,r7
      000557 50 34            [24] 1802 	jnc	00108$
                           0003D4  1803 	Siap$Erase_Verify_APROM$110 ==.
                           0003D4  1804 	Siap$Erase_Verify_APROM$111 ==.
                                   1805 ;	C:/BSP/MG51xC9AE_MG51xB9AE_Series/Library/StdDriver/src/iap.c:201: IAPFD = 0x00;    
      000559 75 AE 00         [24] 1806 	mov	_IAPFD,#0x00
                           0003D7  1807 	Siap$Erase_Verify_APROM$112 ==.
                                   1808 ;	C:/BSP/MG51xC9AE_MG51xB9AE_Series/Library/StdDriver/src/iap.c:202: set_IAPTRG_IAPGO;
                                   1809 ;	assignBit
      00055C A2 AF            [12] 1810 	mov	c,_EA
      00055E 92 00            [24] 1811 	mov	_BIT_TMP,c
                                   1812 ;	assignBit
      000560 C2 AF            [12] 1813 	clr	_EA
      000562 75 C7 AA         [24] 1814 	mov	_TA,#0xaa
      000565 75 C7 55         [24] 1815 	mov	_TA,#0x55
      000568 43 A4 01         [24] 1816 	orl	_IAPTRG,#0x01
                                   1817 ;	assignBit
      00056B A2 00            [12] 1818 	mov	c,_BIT_TMP
      00056D 92 AF            [24] 1819 	mov	_EA,c
                           0003EA  1820 	Siap$Erase_Verify_APROM$113 ==.
                                   1821 ;	C:/BSP/MG51xC9AE_MG51xB9AE_Series/Library/StdDriver/src/iap.c:203: if(IAPFD != 0xFF)
      00056F 74 FF            [12] 1822 	mov	a,#0xff
      000571 B5 AE 02         [24] 1823 	cjne	a,_IAPFD,00131$
      000574 80 02            [24] 1824 	sjmp	00105$
      000576                       1825 00131$:
                           0003F1  1826 	Siap$Erase_Verify_APROM$114 ==.
                                   1827 ;	C:/BSP/MG51xC9AE_MG51xB9AE_Series/Library/StdDriver/src/iap.c:204: while(1);
      000576                       1828 00102$:
      000576 80 FE            [24] 1829 	sjmp	00102$
      000578                       1830 00105$:
                           0003F3  1831 	Siap$Erase_Verify_APROM$115 ==.
                                   1832 ;	C:/BSP/MG51xC9AE_MG51xB9AE_Series/Library/StdDriver/src/iap.c:205: IAPAL++;
      000578 E5 A6            [12] 1833 	mov	a,_IAPAL
      00057A 04               [12] 1834 	inc	a
      00057B F5 A6            [12] 1835 	mov	_IAPAL,a
                           0003F8  1836 	Siap$Erase_Verify_APROM$116 ==.
                                   1837 ;	C:/BSP/MG51xC9AE_MG51xB9AE_Series/Library/StdDriver/src/iap.c:206: if(IAPAL == 0x00)
      00057D E5 A6            [12] 1838 	mov	a,_IAPAL
      00057F 70 05            [24] 1839 	jnz	00111$
                           0003FC  1840 	Siap$Erase_Verify_APROM$117 ==.
                                   1841 ;	C:/BSP/MG51xC9AE_MG51xB9AE_Series/Library/StdDriver/src/iap.c:207: IAPAH++;
      000581 E5 A7            [12] 1842 	mov	a,_IAPAH
      000583 04               [12] 1843 	inc	a
      000584 F5 A7            [12] 1844 	mov	_IAPAH,a
      000586                       1845 00111$:
                           000401  1846 	Siap$Erase_Verify_APROM$118 ==.
                           000401  1847 	Siap$Erase_Verify_APROM$119 ==.
                                   1848 ;	C:/BSP/MG51xC9AE_MG51xB9AE_Series/Library/StdDriver/src/iap.c:199: for(u16Count=0;u16Count<u16IAPDataSize;u16Count++)
      000586 0C               [12] 1849 	inc	r4
      000587 BC 00 C8         [24] 1850 	cjne	r4,#0x00,00110$
      00058A 0D               [12] 1851 	inc	r5
      00058B 80 C5            [24] 1852 	sjmp	00110$
      00058D                       1853 00108$:
                           000408  1854 	Siap$Erase_Verify_APROM$120 ==.
                                   1855 ;	C:/BSP/MG51xC9AE_MG51xB9AE_Series/Library/StdDriver/src/iap.c:209: clr_CHPCON_IAPEN;
                                   1856 ;	assignBit
      00058D A2 AF            [12] 1857 	mov	c,_EA
      00058F 92 00            [24] 1858 	mov	_BIT_TMP,c
                                   1859 ;	assignBit
      000591 C2 AF            [12] 1860 	clr	_EA
      000593 75 C7 AA         [24] 1861 	mov	_TA,#0xaa
      000596 75 C7 55         [24] 1862 	mov	_TA,#0x55
      000599 53 9F FE         [24] 1863 	anl	_CHPCON,#0xfe
                                   1864 ;	assignBit
      00059C A2 00            [12] 1865 	mov	c,_BIT_TMP
      00059E 92 AF            [24] 1866 	mov	_EA,c
                           00041B  1867 	Siap$Erase_Verify_APROM$121 ==.
                                   1868 ;	C:/BSP/MG51xC9AE_MG51xB9AE_Series/Library/StdDriver/src/iap.c:210: }
                           00041B  1869 	Siap$Erase_Verify_APROM$122 ==.
                           00041B  1870 	XG$Erase_Verify_APROM$0$0 ==.
      0005A0 22               [24] 1871 	ret
                           00041C  1872 	Siap$Erase_Verify_APROM$123 ==.
                                   1873 ;------------------------------------------------------------
                                   1874 ;Allocation info for local variables in function 'Program_APROM'
                                   1875 ;------------------------------------------------------------
                                   1876 ;u16IAPDataSize            Allocated with name '_Program_APROM_PARM_2'
                                   1877 ;u16IAPStartAddress        Allocated with name '_Program_APROM_u16IAPStartAddress_65536_179'
                                   1878 ;u16Count                  Allocated with name '_Program_APROM_u16Count_65536_180'
                                   1879 ;------------------------------------------------------------
                           00041C  1880 	Siap$Program_APROM$124 ==.
                                   1881 ;	C:/BSP/MG51xC9AE_MG51xB9AE_Series/Library/StdDriver/src/iap.c:220: void Program_APROM(uint16_t u16IAPStartAddress, uint16_t u16IAPDataSize)
                                   1882 ;	-----------------------------------------
                                   1883 ;	 function Program_APROM
                                   1884 ;	-----------------------------------------
      0005A1                       1885 _Program_APROM:
                           00041C  1886 	Siap$Program_APROM$125 ==.
      0005A1 AF 83            [24] 1887 	mov	r7,dph
      0005A3 E5 82            [12] 1888 	mov	a,dpl
      0005A5 90 00 C2         [24] 1889 	mov	dptr,#_Program_APROM_u16IAPStartAddress_65536_179
      0005A8 F0               [24] 1890 	movx	@dptr,a
      0005A9 EF               [12] 1891 	mov	a,r7
      0005AA A3               [24] 1892 	inc	dptr
      0005AB F0               [24] 1893 	movx	@dptr,a
                           000427  1894 	Siap$Program_APROM$126 ==.
                                   1895 ;	C:/BSP/MG51xC9AE_MG51xB9AE_Series/Library/StdDriver/src/iap.c:224: set_CHPCON_IAPEN;
                                   1896 ;	assignBit
      0005AC A2 AF            [12] 1897 	mov	c,_EA
      0005AE 92 00            [24] 1898 	mov	_BIT_TMP,c
                                   1899 ;	assignBit
      0005B0 C2 AF            [12] 1900 	clr	_EA
      0005B2 75 C7 AA         [24] 1901 	mov	_TA,#0xaa
      0005B5 75 C7 55         [24] 1902 	mov	_TA,#0x55
      0005B8 43 9F 01         [24] 1903 	orl	_CHPCON,#0x01
                                   1904 ;	assignBit
      0005BB A2 00            [12] 1905 	mov	c,_BIT_TMP
      0005BD 92 AF            [24] 1906 	mov	_EA,c
                           00043A  1907 	Siap$Program_APROM$127 ==.
                                   1908 ;	C:/BSP/MG51xC9AE_MG51xB9AE_Series/Library/StdDriver/src/iap.c:225: set_IAPUEN_APUEN;    
                                   1909 ;	assignBit
      0005BF A2 AF            [12] 1910 	mov	c,_EA
      0005C1 92 00            [24] 1911 	mov	_BIT_TMP,c
                                   1912 ;	assignBit
      0005C3 C2 AF            [12] 1913 	clr	_EA
      0005C5 75 C7 AA         [24] 1914 	mov	_TA,#0xaa
      0005C8 75 C7 55         [24] 1915 	mov	_TA,#0x55
      0005CB 43 A5 01         [24] 1916 	orl	_IAPUEN,#0x01
                                   1917 ;	assignBit
      0005CE A2 00            [12] 1918 	mov	c,_BIT_TMP
      0005D0 92 AF            [24] 1919 	mov	_EA,c
                           00044D  1920 	Siap$Program_APROM$128 ==.
                                   1921 ;	C:/BSP/MG51xC9AE_MG51xB9AE_Series/Library/StdDriver/src/iap.c:226: IAPAL = LOBYTE(u16IAPStartAddress);
      0005D2 90 00 C2         [24] 1922 	mov	dptr,#_Program_APROM_u16IAPStartAddress_65536_179
      0005D5 E0               [24] 1923 	movx	a,@dptr
      0005D6 FE               [12] 1924 	mov	r6,a
      0005D7 A3               [24] 1925 	inc	dptr
      0005D8 E0               [24] 1926 	movx	a,@dptr
      0005D9 FF               [12] 1927 	mov	r7,a
      0005DA 8E A6            [24] 1928 	mov	_IAPAL,r6
                           000457  1929 	Siap$Program_APROM$129 ==.
                                   1930 ;	C:/BSP/MG51xC9AE_MG51xB9AE_Series/Library/StdDriver/src/iap.c:227: IAPAH = HIBYTE(u16IAPStartAddress);
      0005DC 8F A7            [24] 1931 	mov	_IAPAH,r7
                           000459  1932 	Siap$Program_APROM$130 ==.
                                   1933 ;	C:/BSP/MG51xC9AE_MG51xB9AE_Series/Library/StdDriver/src/iap.c:228: IAPCN = BYTE_PROGRAM_APROM;
      0005DE 75 AF 21         [24] 1934 	mov	_IAPCN,#0x21
                           00045C  1935 	Siap$Program_APROM$131 ==.
                                   1936 ;	C:/BSP/MG51xC9AE_MG51xB9AE_Series/Library/StdDriver/src/iap.c:229: for(u16Count=0;u16Count<u16IAPDataSize;u16Count++)
      0005E1 90 00 C0         [24] 1937 	mov	dptr,#_Program_APROM_PARM_2
      0005E4 E0               [24] 1938 	movx	a,@dptr
      0005E5 FE               [12] 1939 	mov	r6,a
      0005E6 A3               [24] 1940 	inc	dptr
      0005E7 E0               [24] 1941 	movx	a,@dptr
      0005E8 FF               [12] 1942 	mov	r7,a
      0005E9 7C 00            [12] 1943 	mov	r4,#0x00
      0005EB 7D 00            [12] 1944 	mov	r5,#0x00
      0005ED                       1945 00105$:
      0005ED C3               [12] 1946 	clr	c
      0005EE EC               [12] 1947 	mov	a,r4
      0005EF 9E               [12] 1948 	subb	a,r6
      0005F0 ED               [12] 1949 	mov	a,r5
      0005F1 9F               [12] 1950 	subb	a,r7
      0005F2 50 46            [24] 1951 	jnc	00103$
                           00046F  1952 	Siap$Program_APROM$132 ==.
                           00046F  1953 	Siap$Program_APROM$133 ==.
                                   1954 ;	C:/BSP/MG51xC9AE_MG51xB9AE_Series/Library/StdDriver/src/iap.c:231: IAPFD=IAPDataBuf[u16Count];
      0005F4 EC               [12] 1955 	mov	a,r4
      0005F5 24 23            [12] 1956 	add	a,#_IAPDataBuf
      0005F7 F5 82            [12] 1957 	mov	dpl,a
      0005F9 ED               [12] 1958 	mov	a,r5
      0005FA 34 00            [12] 1959 	addc	a,#(_IAPDataBuf >> 8)
      0005FC F5 83            [12] 1960 	mov	dph,a
      0005FE E0               [24] 1961 	movx	a,@dptr
      0005FF F5 AE            [12] 1962 	mov	_IAPFD,a
                           00047C  1963 	Siap$Program_APROM$134 ==.
                                   1964 ;	C:/BSP/MG51xC9AE_MG51xB9AE_Series/Library/StdDriver/src/iap.c:232: set_IAPTRG_IAPGO_WDCLR;
      000601 A2 AF            [12] 1965 	mov	c,_EA
                                   1966 ;	assignBit
      000603 C2 AF            [12] 1967 	clr	_EA
                                   1968 ;	assignBit
      000605 A2 AF            [12] 1969 	mov	c,_EA
      000607 92 00            [24] 1970 	mov	_BIT_TMP,c
                                   1971 ;	assignBit
      000609 C2 AF            [12] 1972 	clr	_EA
      00060B 75 C7 AA         [24] 1973 	mov	_TA,#0xaa
      00060E 75 C7 55         [24] 1974 	mov	_TA,#0x55
      000611 43 AA 40         [24] 1975 	orl	_WDCON,#0x40
                                   1976 ;	assignBit
      000614 A2 00            [12] 1977 	mov	c,_BIT_TMP
      000616 92 AF            [24] 1978 	mov	_EA,c
      000618 75 C7 AA         [24] 1979 	mov	_TA,#0xaa
      00061B 75 C7 55         [24] 1980 	mov	_TA,#0x55
      00061E 43 A4 01         [24] 1981 	orl	_IAPTRG,#0x01
                                   1982 ;	assignBit
      000621 A2 00            [12] 1983 	mov	c,_BIT_TMP
      000623 92 AF            [24] 1984 	mov	_EA,c
                           0004A0  1985 	Siap$Program_APROM$135 ==.
                                   1986 ;	C:/BSP/MG51xC9AE_MG51xB9AE_Series/Library/StdDriver/src/iap.c:233: IAPAL++;
      000625 E5 A6            [12] 1987 	mov	a,_IAPAL
      000627 04               [12] 1988 	inc	a
      000628 F5 A6            [12] 1989 	mov	_IAPAL,a
                           0004A5  1990 	Siap$Program_APROM$136 ==.
                                   1991 ;	C:/BSP/MG51xC9AE_MG51xB9AE_Series/Library/StdDriver/src/iap.c:234: if(IAPAL == 0)
      00062A E5 A6            [12] 1992 	mov	a,_IAPAL
      00062C 70 05            [24] 1993 	jnz	00106$
                           0004A9  1994 	Siap$Program_APROM$137 ==.
                           0004A9  1995 	Siap$Program_APROM$138 ==.
                                   1996 ;	C:/BSP/MG51xC9AE_MG51xB9AE_Series/Library/StdDriver/src/iap.c:236: IAPAH++;
      00062E E5 A7            [12] 1997 	mov	a,_IAPAH
      000630 04               [12] 1998 	inc	a
      000631 F5 A7            [12] 1999 	mov	_IAPAH,a
                           0004AE  2000 	Siap$Program_APROM$139 ==.
      000633                       2001 00106$:
                           0004AE  2002 	Siap$Program_APROM$140 ==.
                           0004AE  2003 	Siap$Program_APROM$141 ==.
                                   2004 ;	C:/BSP/MG51xC9AE_MG51xB9AE_Series/Library/StdDriver/src/iap.c:229: for(u16Count=0;u16Count<u16IAPDataSize;u16Count++)
      000633 0C               [12] 2005 	inc	r4
      000634 BC 00 B6         [24] 2006 	cjne	r4,#0x00,00105$
      000637 0D               [12] 2007 	inc	r5
      000638 80 B3            [24] 2008 	sjmp	00105$
      00063A                       2009 00103$:
                           0004B5  2010 	Siap$Program_APROM$142 ==.
                                   2011 ;	C:/BSP/MG51xC9AE_MG51xB9AE_Series/Library/StdDriver/src/iap.c:239: clr_IAPUEN_APUEN;
                                   2012 ;	assignBit
      00063A A2 AF            [12] 2013 	mov	c,_EA
      00063C 92 00            [24] 2014 	mov	_BIT_TMP,c
                                   2015 ;	assignBit
      00063E C2 AF            [12] 2016 	clr	_EA
      000640 75 C7 AA         [24] 2017 	mov	_TA,#0xaa
      000643 75 C7 55         [24] 2018 	mov	_TA,#0x55
      000646 53 A5 FE         [24] 2019 	anl	_IAPUEN,#0xfe
                                   2020 ;	assignBit
      000649 A2 00            [12] 2021 	mov	c,_BIT_TMP
      00064B 92 AF            [24] 2022 	mov	_EA,c
                           0004C8  2023 	Siap$Program_APROM$143 ==.
                                   2024 ;	C:/BSP/MG51xC9AE_MG51xB9AE_Series/Library/StdDriver/src/iap.c:240: clr_CHPCON_IAPEN;
                                   2025 ;	assignBit
      00064D A2 AF            [12] 2026 	mov	c,_EA
      00064F 92 00            [24] 2027 	mov	_BIT_TMP,c
                                   2028 ;	assignBit
      000651 C2 AF            [12] 2029 	clr	_EA
      000653 75 C7 AA         [24] 2030 	mov	_TA,#0xaa
      000656 75 C7 55         [24] 2031 	mov	_TA,#0x55
      000659 53 9F FE         [24] 2032 	anl	_CHPCON,#0xfe
                                   2033 ;	assignBit
      00065C A2 00            [12] 2034 	mov	c,_BIT_TMP
      00065E 92 AF            [24] 2035 	mov	_EA,c
                           0004DB  2036 	Siap$Program_APROM$144 ==.
                                   2037 ;	C:/BSP/MG51xC9AE_MG51xB9AE_Series/Library/StdDriver/src/iap.c:241: }
                           0004DB  2038 	Siap$Program_APROM$145 ==.
                           0004DB  2039 	XG$Program_APROM$0$0 ==.
      000660 22               [24] 2040 	ret
                           0004DC  2041 	Siap$Program_APROM$146 ==.
                                   2042 ;------------------------------------------------------------
                                   2043 ;Allocation info for local variables in function 'Program_Verify_APROM'
                                   2044 ;------------------------------------------------------------
                                   2045 ;u16IAPDataSize            Allocated with name '_Program_Verify_APROM_PARM_2'
                                   2046 ;u16IAPStartAddress        Allocated with name '_Program_Verify_APROM_u16IAPStartAddress_65536_184'
                                   2047 ;u16Count                  Allocated with name '_Program_Verify_APROM_u16Count_65536_185'
                                   2048 ;------------------------------------------------------------
                           0004DC  2049 	Siap$Program_Verify_APROM$147 ==.
                                   2050 ;	C:/BSP/MG51xC9AE_MG51xB9AE_Series/Library/StdDriver/src/iap.c:252: void Program_Verify_APROM(uint16_t u16IAPStartAddress, uint16_t u16IAPDataSize)
                                   2051 ;	-----------------------------------------
                                   2052 ;	 function Program_Verify_APROM
                                   2053 ;	-----------------------------------------
      000661                       2054 _Program_Verify_APROM:
                           0004DC  2055 	Siap$Program_Verify_APROM$148 ==.
      000661 AF 83            [24] 2056 	mov	r7,dph
      000663 E5 82            [12] 2057 	mov	a,dpl
      000665 90 00 C6         [24] 2058 	mov	dptr,#_Program_Verify_APROM_u16IAPStartAddress_65536_184
      000668 F0               [24] 2059 	movx	@dptr,a
      000669 EF               [12] 2060 	mov	a,r7
      00066A A3               [24] 2061 	inc	dptr
      00066B F0               [24] 2062 	movx	@dptr,a
                           0004E7  2063 	Siap$Program_Verify_APROM$149 ==.
                                   2064 ;	C:/BSP/MG51xC9AE_MG51xB9AE_Series/Library/StdDriver/src/iap.c:256: set_CHPCON_IAPEN;
                                   2065 ;	assignBit
      00066C A2 AF            [12] 2066 	mov	c,_EA
      00066E 92 00            [24] 2067 	mov	_BIT_TMP,c
                                   2068 ;	assignBit
      000670 C2 AF            [12] 2069 	clr	_EA
      000672 75 C7 AA         [24] 2070 	mov	_TA,#0xaa
      000675 75 C7 55         [24] 2071 	mov	_TA,#0x55
      000678 43 9F 01         [24] 2072 	orl	_CHPCON,#0x01
                                   2073 ;	assignBit
      00067B A2 00            [12] 2074 	mov	c,_BIT_TMP
      00067D 92 AF            [24] 2075 	mov	_EA,c
                           0004FA  2076 	Siap$Program_Verify_APROM$150 ==.
                                   2077 ;	C:/BSP/MG51xC9AE_MG51xB9AE_Series/Library/StdDriver/src/iap.c:257: IAPAL = LOBYTE(u16IAPStartAddress);
      00067F 90 00 C6         [24] 2078 	mov	dptr,#_Program_Verify_APROM_u16IAPStartAddress_65536_184
      000682 E0               [24] 2079 	movx	a,@dptr
      000683 FE               [12] 2080 	mov	r6,a
      000684 A3               [24] 2081 	inc	dptr
      000685 E0               [24] 2082 	movx	a,@dptr
      000686 FF               [12] 2083 	mov	r7,a
      000687 8E A6            [24] 2084 	mov	_IAPAL,r6
                           000504  2085 	Siap$Program_Verify_APROM$151 ==.
                                   2086 ;	C:/BSP/MG51xC9AE_MG51xB9AE_Series/Library/StdDriver/src/iap.c:258: IAPAH = HIBYTE(u16IAPStartAddress);
      000689 8F A7            [24] 2087 	mov	_IAPAH,r7
                           000506  2088 	Siap$Program_Verify_APROM$152 ==.
                                   2089 ;	C:/BSP/MG51xC9AE_MG51xB9AE_Series/Library/StdDriver/src/iap.c:259: IAPCN = BYTE_READ_APROM;
      00068B 75 AF 00         [24] 2090 	mov	_IAPCN,#0x00
                           000509  2091 	Siap$Program_Verify_APROM$153 ==.
                                   2092 ;	C:/BSP/MG51xC9AE_MG51xB9AE_Series/Library/StdDriver/src/iap.c:260: for(u16Count=0;u16Count<u16IAPDataSize;u16Count++)
      00068E 90 00 C4         [24] 2093 	mov	dptr,#_Program_Verify_APROM_PARM_2
      000691 E0               [24] 2094 	movx	a,@dptr
      000692 FE               [12] 2095 	mov	r6,a
      000693 A3               [24] 2096 	inc	dptr
      000694 E0               [24] 2097 	movx	a,@dptr
      000695 FF               [12] 2098 	mov	r7,a
      000696 7C 00            [12] 2099 	mov	r4,#0x00
      000698 7D 00            [12] 2100 	mov	r5,#0x00
      00069A                       2101 00110$:
      00069A C3               [12] 2102 	clr	c
      00069B EC               [12] 2103 	mov	a,r4
      00069C 9E               [12] 2104 	subb	a,r6
      00069D ED               [12] 2105 	mov	a,r5
      00069E 9F               [12] 2106 	subb	a,r7
      00069F 50 3E            [24] 2107 	jnc	00108$
                           00051C  2108 	Siap$Program_Verify_APROM$154 ==.
                           00051C  2109 	Siap$Program_Verify_APROM$155 ==.
                                   2110 ;	C:/BSP/MG51xC9AE_MG51xB9AE_Series/Library/StdDriver/src/iap.c:262: IAPFD = 0x00;
      0006A1 75 AE 00         [24] 2111 	mov	_IAPFD,#0x00
                           00051F  2112 	Siap$Program_Verify_APROM$156 ==.
                                   2113 ;	C:/BSP/MG51xC9AE_MG51xB9AE_Series/Library/StdDriver/src/iap.c:263: set_IAPTRG_IAPGO;
                                   2114 ;	assignBit
      0006A4 A2 AF            [12] 2115 	mov	c,_EA
      0006A6 92 00            [24] 2116 	mov	_BIT_TMP,c
                                   2117 ;	assignBit
      0006A8 C2 AF            [12] 2118 	clr	_EA
      0006AA 75 C7 AA         [24] 2119 	mov	_TA,#0xaa
      0006AD 75 C7 55         [24] 2120 	mov	_TA,#0x55
      0006B0 43 A4 01         [24] 2121 	orl	_IAPTRG,#0x01
                                   2122 ;	assignBit
      0006B3 A2 00            [12] 2123 	mov	c,_BIT_TMP
      0006B5 92 AF            [24] 2124 	mov	_EA,c
                           000532  2125 	Siap$Program_Verify_APROM$157 ==.
                                   2126 ;	C:/BSP/MG51xC9AE_MG51xB9AE_Series/Library/StdDriver/src/iap.c:264: if (IAPFD != IAPDataBuf[u16Count])
      0006B7 EC               [12] 2127 	mov	a,r4
      0006B8 24 23            [12] 2128 	add	a,#_IAPDataBuf
      0006BA F5 82            [12] 2129 	mov	dpl,a
      0006BC ED               [12] 2130 	mov	a,r5
      0006BD 34 00            [12] 2131 	addc	a,#(_IAPDataBuf >> 8)
      0006BF F5 83            [12] 2132 	mov	dph,a
      0006C1 E0               [24] 2133 	movx	a,@dptr
      0006C2 FB               [12] 2134 	mov	r3,a
      0006C3 B5 AE 02         [24] 2135 	cjne	a,_IAPFD,00131$
      0006C6 80 02            [24] 2136 	sjmp	00105$
      0006C8                       2137 00131$:
                           000543  2138 	Siap$Program_Verify_APROM$158 ==.
                                   2139 ;	C:/BSP/MG51xC9AE_MG51xB9AE_Series/Library/StdDriver/src/iap.c:265: while(1);
      0006C8                       2140 00102$:
      0006C8 80 FE            [24] 2141 	sjmp	00102$
      0006CA                       2142 00105$:
                           000545  2143 	Siap$Program_Verify_APROM$159 ==.
                                   2144 ;	C:/BSP/MG51xC9AE_MG51xB9AE_Series/Library/StdDriver/src/iap.c:266: IAPAL++;
      0006CA E5 A6            [12] 2145 	mov	a,_IAPAL
      0006CC 04               [12] 2146 	inc	a
      0006CD F5 A6            [12] 2147 	mov	_IAPAL,a
                           00054A  2148 	Siap$Program_Verify_APROM$160 ==.
                                   2149 ;	C:/BSP/MG51xC9AE_MG51xB9AE_Series/Library/StdDriver/src/iap.c:267: if(IAPAL == 0)
      0006CF E5 A6            [12] 2150 	mov	a,_IAPAL
      0006D1 70 05            [24] 2151 	jnz	00111$
                           00054E  2152 	Siap$Program_Verify_APROM$161 ==.
                           00054E  2153 	Siap$Program_Verify_APROM$162 ==.
                                   2154 ;	C:/BSP/MG51xC9AE_MG51xB9AE_Series/Library/StdDriver/src/iap.c:269: IAPAH++;
      0006D3 E5 A7            [12] 2155 	mov	a,_IAPAH
      0006D5 04               [12] 2156 	inc	a
      0006D6 F5 A7            [12] 2157 	mov	_IAPAH,a
                           000553  2158 	Siap$Program_Verify_APROM$163 ==.
      0006D8                       2159 00111$:
                           000553  2160 	Siap$Program_Verify_APROM$164 ==.
                           000553  2161 	Siap$Program_Verify_APROM$165 ==.
                                   2162 ;	C:/BSP/MG51xC9AE_MG51xB9AE_Series/Library/StdDriver/src/iap.c:260: for(u16Count=0;u16Count<u16IAPDataSize;u16Count++)
      0006D8 0C               [12] 2163 	inc	r4
      0006D9 BC 00 BE         [24] 2164 	cjne	r4,#0x00,00110$
      0006DC 0D               [12] 2165 	inc	r5
      0006DD 80 BB            [24] 2166 	sjmp	00110$
      0006DF                       2167 00108$:
                           00055A  2168 	Siap$Program_Verify_APROM$166 ==.
                                   2169 ;	C:/BSP/MG51xC9AE_MG51xB9AE_Series/Library/StdDriver/src/iap.c:272: clr_CHPCON_IAPEN;
                                   2170 ;	assignBit
      0006DF A2 AF            [12] 2171 	mov	c,_EA
      0006E1 92 00            [24] 2172 	mov	_BIT_TMP,c
                                   2173 ;	assignBit
      0006E3 C2 AF            [12] 2174 	clr	_EA
      0006E5 75 C7 AA         [24] 2175 	mov	_TA,#0xaa
      0006E8 75 C7 55         [24] 2176 	mov	_TA,#0x55
      0006EB 53 9F FE         [24] 2177 	anl	_CHPCON,#0xfe
                                   2178 ;	assignBit
      0006EE A2 00            [12] 2179 	mov	c,_BIT_TMP
      0006F0 92 AF            [24] 2180 	mov	_EA,c
                           00056D  2181 	Siap$Program_Verify_APROM$167 ==.
                                   2182 ;	C:/BSP/MG51xC9AE_MG51xB9AE_Series/Library/StdDriver/src/iap.c:273: }
                           00056D  2183 	Siap$Program_Verify_APROM$168 ==.
                           00056D  2184 	XG$Program_Verify_APROM$0$0 ==.
      0006F2 22               [24] 2185 	ret
                           00056E  2186 	Siap$Program_Verify_APROM$169 ==.
                                   2187 ;------------------------------------------------------------
                                   2188 ;Allocation info for local variables in function 'Modify_CONFIG'
                                   2189 ;------------------------------------------------------------
                                   2190 ;u8CF1                     Allocated with name '_Modify_CONFIG_PARM_2'
                                   2191 ;u8CF2                     Allocated with name '_Modify_CONFIG_PARM_3'
                                   2192 ;u8CF3                     Allocated with name '_Modify_CONFIG_PARM_4'
                                   2193 ;u8CF4                     Allocated with name '_Modify_CONFIG_PARM_5'
                                   2194 ;u8CF0                     Allocated with name '_Modify_CONFIG_u8CF0_65536_189'
                                   2195 ;u8Count                   Allocated with name '_Modify_CONFIG_u8Count_65536_190'
                                   2196 ;------------------------------------------------------------
                           00056E  2197 	Siap$Modify_CONFIG$170 ==.
                                   2198 ;	C:/BSP/MG51xC9AE_MG51xB9AE_Series/Library/StdDriver/src/iap.c:285: void Modify_CONFIG(uint8_t u8CF0,uint8_t u8CF1,uint8_t u8CF2,uint8_t u8CF3,uint8_t u8CF4)
                                   2199 ;	-----------------------------------------
                                   2200 ;	 function Modify_CONFIG
                                   2201 ;	-----------------------------------------
      0006F3                       2202 _Modify_CONFIG:
                           00056E  2203 	Siap$Modify_CONFIG$171 ==.
      0006F3 E5 82            [12] 2204 	mov	a,dpl
      0006F5 90 00 CC         [24] 2205 	mov	dptr,#_Modify_CONFIG_u8CF0_65536_189
      0006F8 F0               [24] 2206 	movx	@dptr,a
                           000574  2207 	Siap$Modify_CONFIG$172 ==.
                                   2208 ;	C:/BSP/MG51xC9AE_MG51xB9AE_Series/Library/StdDriver/src/iap.c:289: if(PCON&SET_BIT4)        /* Check with power on flag. Only the first power on check with CONFIG */
      0006F9 E5 87            [12] 2209 	mov	a,_PCON
      0006FB 20 E4 03         [24] 2210 	jb	acc.4,00184$
      0006FE 02 0A 2D         [24] 2211 	ljmp	00132$
      000701                       2212 00184$:
                           00057C  2213 	Siap$Modify_CONFIG$173 ==.
                           00057C  2214 	Siap$Modify_CONFIG$174 ==.
                                   2215 ;	C:/BSP/MG51xC9AE_MG51xB9AE_Series/Library/StdDriver/src/iap.c:291: BIT_TMP = EA;
      000701 A2 AF            [12] 2216 	mov	c,_EA
                           00057E  2217 	Siap$Modify_CONFIG$175 ==.
                                   2218 ;	C:/BSP/MG51xC9AE_MG51xB9AE_Series/Library/StdDriver/src/iap.c:292: EA = 0;
                                   2219 ;	assignBit
      000703 C2 AF            [12] 2220 	clr	_EA
                           000580  2221 	Siap$Modify_CONFIG$176 ==.
                                   2222 ;	C:/BSP/MG51xC9AE_MG51xB9AE_Series/Library/StdDriver/src/iap.c:294: set_CHPCON_IAPEN;                    // Enable IAP function
                                   2223 ;	assignBit
      000705 A2 AF            [12] 2224 	mov	c,_EA
      000707 92 00            [24] 2225 	mov	_BIT_TMP,c
                                   2226 ;	assignBit
      000709 C2 AF            [12] 2227 	clr	_EA
      00070B 75 C7 AA         [24] 2228 	mov	_TA,#0xaa
      00070E 75 C7 55         [24] 2229 	mov	_TA,#0x55
      000711 43 9F 01         [24] 2230 	orl	_CHPCON,#0x01
                                   2231 ;	assignBit
      000714 A2 00            [12] 2232 	mov	c,_BIT_TMP
      000716 92 AF            [24] 2233 	mov	_EA,c
                           000593  2234 	Siap$Modify_CONFIG$177 ==.
                                   2235 ;	C:/BSP/MG51xC9AE_MG51xB9AE_Series/Library/StdDriver/src/iap.c:295: IAPCN = BYTE_READ_CONFIG;
      000718 75 AF C0         [24] 2236 	mov	_IAPCN,#0xc0
                           000596  2237 	Siap$Modify_CONFIG$178 ==.
                                   2238 ;	C:/BSP/MG51xC9AE_MG51xB9AE_Series/Library/StdDriver/src/iap.c:296: IAPAH = 0x00;
      00071B 75 A7 00         [24] 2239 	mov	_IAPAH,#0x00
                           000599  2240 	Siap$Modify_CONFIG$179 ==.
                                   2241 ;	C:/BSP/MG51xC9AE_MG51xB9AE_Series/Library/StdDriver/src/iap.c:298: IAPAL = 0;
      00071E 75 A6 00         [24] 2242 	mov	_IAPAL,#0x00
                           00059C  2243 	Siap$Modify_CONFIG$180 ==.
                                   2244 ;	C:/BSP/MG51xC9AE_MG51xB9AE_Series/Library/StdDriver/src/iap.c:299: set_IAPTRG_IAPGO;
                                   2245 ;	assignBit
      000721 A2 AF            [12] 2246 	mov	c,_EA
      000723 92 00            [24] 2247 	mov	_BIT_TMP,c
                                   2248 ;	assignBit
      000725 C2 AF            [12] 2249 	clr	_EA
      000727 75 C7 AA         [24] 2250 	mov	_TA,#0xaa
      00072A 75 C7 55         [24] 2251 	mov	_TA,#0x55
      00072D 43 A4 01         [24] 2252 	orl	_IAPTRG,#0x01
                                   2253 ;	assignBit
      000730 A2 00            [12] 2254 	mov	c,_BIT_TMP
      000732 92 AF            [24] 2255 	mov	_EA,c
                           0005AF  2256 	Siap$Modify_CONFIG$181 ==.
                                   2257 ;	C:/BSP/MG51xC9AE_MG51xB9AE_Series/Library/StdDriver/src/iap.c:300: if (IAPFD != u8CF0)
      000734 90 00 CC         [24] 2258 	mov	dptr,#_Modify_CONFIG_u8CF0_65536_189
      000737 E0               [24] 2259 	movx	a,@dptr
      000738 FF               [12] 2260 	mov	r7,a
      000739 B5 AE 02         [24] 2261 	cjne	a,_IAPFD,00185$
      00073C 80 03            [24] 2262 	sjmp	00186$
      00073E                       2263 00185$:
      00073E 02 07 C4         [24] 2264 	ljmp	00111$
      000741                       2265 00186$:
                           0005BC  2266 	Siap$Modify_CONFIG$182 ==.
                                   2267 ;	C:/BSP/MG51xC9AE_MG51xB9AE_Series/Library/StdDriver/src/iap.c:302: IAPAL++;
      000741 E5 A6            [12] 2268 	mov	a,_IAPAL
      000743 04               [12] 2269 	inc	a
      000744 F5 A6            [12] 2270 	mov	_IAPAL,a
                           0005C1  2271 	Siap$Modify_CONFIG$183 ==.
                                   2272 ;	C:/BSP/MG51xC9AE_MG51xB9AE_Series/Library/StdDriver/src/iap.c:303: set_IAPTRG_IAPGO;
                                   2273 ;	assignBit
      000746 A2 AF            [12] 2274 	mov	c,_EA
      000748 92 00            [24] 2275 	mov	_BIT_TMP,c
                                   2276 ;	assignBit
      00074A C2 AF            [12] 2277 	clr	_EA
      00074C 75 C7 AA         [24] 2278 	mov	_TA,#0xaa
      00074F 75 C7 55         [24] 2279 	mov	_TA,#0x55
      000752 43 A4 01         [24] 2280 	orl	_IAPTRG,#0x01
                                   2281 ;	assignBit
      000755 A2 00            [12] 2282 	mov	c,_BIT_TMP
      000757 92 AF            [24] 2283 	mov	_EA,c
                           0005D4  2284 	Siap$Modify_CONFIG$184 ==.
                                   2285 ;	C:/BSP/MG51xC9AE_MG51xB9AE_Series/Library/StdDriver/src/iap.c:304: if (IAPFD != u8CF1)
      000759 90 00 C8         [24] 2286 	mov	dptr,#_Modify_CONFIG_PARM_2
      00075C E0               [24] 2287 	movx	a,@dptr
      00075D FF               [12] 2288 	mov	r7,a
      00075E B5 AE 63         [24] 2289 	cjne	a,_IAPFD,00111$
                           0005DC  2290 	Siap$Modify_CONFIG$185 ==.
                                   2291 ;	C:/BSP/MG51xC9AE_MG51xB9AE_Series/Library/StdDriver/src/iap.c:306: IAPAL++;
      000761 E5 A6            [12] 2292 	mov	a,_IAPAL
      000763 04               [12] 2293 	inc	a
      000764 F5 A6            [12] 2294 	mov	_IAPAL,a
                           0005E1  2295 	Siap$Modify_CONFIG$186 ==.
                                   2296 ;	C:/BSP/MG51xC9AE_MG51xB9AE_Series/Library/StdDriver/src/iap.c:307: set_IAPTRG_IAPGO;
                                   2297 ;	assignBit
      000766 A2 AF            [12] 2298 	mov	c,_EA
      000768 92 00            [24] 2299 	mov	_BIT_TMP,c
                                   2300 ;	assignBit
      00076A C2 AF            [12] 2301 	clr	_EA
      00076C 75 C7 AA         [24] 2302 	mov	_TA,#0xaa
      00076F 75 C7 55         [24] 2303 	mov	_TA,#0x55
      000772 43 A4 01         [24] 2304 	orl	_IAPTRG,#0x01
                                   2305 ;	assignBit
      000775 A2 00            [12] 2306 	mov	c,_BIT_TMP
      000777 92 AF            [24] 2307 	mov	_EA,c
                           0005F4  2308 	Siap$Modify_CONFIG$187 ==.
                                   2309 ;	C:/BSP/MG51xC9AE_MG51xB9AE_Series/Library/StdDriver/src/iap.c:308: if (IAPFD != u8CF2)
      000779 90 00 C9         [24] 2310 	mov	dptr,#_Modify_CONFIG_PARM_3
      00077C E0               [24] 2311 	movx	a,@dptr
      00077D FF               [12] 2312 	mov	r7,a
      00077E B5 AE 43         [24] 2313 	cjne	a,_IAPFD,00111$
                           0005FC  2314 	Siap$Modify_CONFIG$188 ==.
                                   2315 ;	C:/BSP/MG51xC9AE_MG51xB9AE_Series/Library/StdDriver/src/iap.c:310: IAPAL++;
      000781 E5 A6            [12] 2316 	mov	a,_IAPAL
      000783 04               [12] 2317 	inc	a
      000784 F5 A6            [12] 2318 	mov	_IAPAL,a
                           000601  2319 	Siap$Modify_CONFIG$189 ==.
                                   2320 ;	C:/BSP/MG51xC9AE_MG51xB9AE_Series/Library/StdDriver/src/iap.c:311: set_IAPTRG_IAPGO;
                                   2321 ;	assignBit
      000786 A2 AF            [12] 2322 	mov	c,_EA
      000788 92 00            [24] 2323 	mov	_BIT_TMP,c
                                   2324 ;	assignBit
      00078A C2 AF            [12] 2325 	clr	_EA
      00078C 75 C7 AA         [24] 2326 	mov	_TA,#0xaa
      00078F 75 C7 55         [24] 2327 	mov	_TA,#0x55
      000792 43 A4 01         [24] 2328 	orl	_IAPTRG,#0x01
                                   2329 ;	assignBit
      000795 A2 00            [12] 2330 	mov	c,_BIT_TMP
      000797 92 AF            [24] 2331 	mov	_EA,c
                           000614  2332 	Siap$Modify_CONFIG$190 ==.
                                   2333 ;	C:/BSP/MG51xC9AE_MG51xB9AE_Series/Library/StdDriver/src/iap.c:312: if (IAPFD != u8CF3)
      000799 90 00 CA         [24] 2334 	mov	dptr,#_Modify_CONFIG_PARM_4
      00079C E0               [24] 2335 	movx	a,@dptr
      00079D FF               [12] 2336 	mov	r7,a
      00079E B5 AE 23         [24] 2337 	cjne	a,_IAPFD,00111$
                           00061C  2338 	Siap$Modify_CONFIG$191 ==.
                                   2339 ;	C:/BSP/MG51xC9AE_MG51xB9AE_Series/Library/StdDriver/src/iap.c:314: IAPAL++;
      0007A1 E5 A6            [12] 2340 	mov	a,_IAPAL
      0007A3 04               [12] 2341 	inc	a
      0007A4 F5 A6            [12] 2342 	mov	_IAPAL,a
                           000621  2343 	Siap$Modify_CONFIG$192 ==.
                                   2344 ;	C:/BSP/MG51xC9AE_MG51xB9AE_Series/Library/StdDriver/src/iap.c:315: set_IAPTRG_IAPGO;
                                   2345 ;	assignBit
      0007A6 A2 AF            [12] 2346 	mov	c,_EA
      0007A8 92 00            [24] 2347 	mov	_BIT_TMP,c
                                   2348 ;	assignBit
      0007AA C2 AF            [12] 2349 	clr	_EA
      0007AC 75 C7 AA         [24] 2350 	mov	_TA,#0xaa
      0007AF 75 C7 55         [24] 2351 	mov	_TA,#0x55
      0007B2 43 A4 01         [24] 2352 	orl	_IAPTRG,#0x01
                                   2353 ;	assignBit
      0007B5 A2 00            [12] 2354 	mov	c,_BIT_TMP
      0007B7 92 AF            [24] 2355 	mov	_EA,c
                           000634  2356 	Siap$Modify_CONFIG$193 ==.
                                   2357 ;	C:/BSP/MG51xC9AE_MG51xB9AE_Series/Library/StdDriver/src/iap.c:316: if (IAPFD != u8CF4)
      0007B9 90 00 CB         [24] 2358 	mov	dptr,#_Modify_CONFIG_PARM_5
      0007BC E0               [24] 2359 	movx	a,@dptr
      0007BD FF               [12] 2360 	mov	r7,a
      0007BE B5 AE 03         [24] 2361 	cjne	a,_IAPFD,00193$
      0007C1 02 0A 00         [24] 2362 	ljmp	00125$
      0007C4                       2363 00193$:
                           00063F  2364 	Siap$Modify_CONFIG$194 ==.
                                   2365 ;	C:/BSP/MG51xC9AE_MG51xB9AE_Series/Library/StdDriver/src/iap.c:321: COPRST:
      0007C4                       2366 00111$:
                           00063F  2367 	Siap$Modify_CONFIG$195 ==.
                                   2368 ;	C:/BSP/MG51xC9AE_MG51xB9AE_Series/Library/StdDriver/src/iap.c:322: ConfigModifyFlag = 1;                // CONFIG modify flag set.
                                   2369 ;	assignBit
      0007C4 D2 01            [12] 2370 	setb	_ConfigModifyFlag
                           000641  2371 	Siap$Modify_CONFIG$196 ==.
                           000641  2372 	Siap$Modify_CONFIG$197 ==.
                                   2373 ;	C:/BSP/MG51xC9AE_MG51xB9AE_Series/Library/StdDriver/src/iap.c:323: for(u8Count=0;u8Count<5;u8Count++)
      0007C6 7F 00            [12] 2374 	mov	r7,#0x00
      0007C8                       2375 00128$:
                           000643  2376 	Siap$Modify_CONFIG$198 ==.
                           000643  2377 	Siap$Modify_CONFIG$199 ==.
                                   2378 ;	C:/BSP/MG51xC9AE_MG51xB9AE_Series/Library/StdDriver/src/iap.c:325: IAPAL = u8Count;
      0007C8 8F A6            [24] 2379 	mov	_IAPAL,r7
                           000645  2380 	Siap$Modify_CONFIG$200 ==.
                                   2381 ;	C:/BSP/MG51xC9AE_MG51xB9AE_Series/Library/StdDriver/src/iap.c:326: set_IAPTRG_IAPGO;
                                   2382 ;	assignBit
      0007CA A2 AF            [12] 2383 	mov	c,_EA
      0007CC 92 00            [24] 2384 	mov	_BIT_TMP,c
                                   2385 ;	assignBit
      0007CE C2 AF            [12] 2386 	clr	_EA
      0007D0 75 C7 AA         [24] 2387 	mov	_TA,#0xaa
      0007D3 75 C7 55         [24] 2388 	mov	_TA,#0x55
      0007D6 43 A4 01         [24] 2389 	orl	_IAPTRG,#0x01
                                   2390 ;	assignBit
      0007D9 A2 00            [12] 2391 	mov	c,_BIT_TMP
      0007DB 92 AF            [24] 2392 	mov	_EA,c
                           000658  2393 	Siap$Modify_CONFIG$201 ==.
                                   2394 ;	C:/BSP/MG51xC9AE_MG51xB9AE_Series/Library/StdDriver/src/iap.c:327: IAPCFBuf[u8Count] = IAPFD;
      0007DD EF               [12] 2395 	mov	a,r7
      0007DE 24 A3            [12] 2396 	add	a,#_IAPCFBuf
      0007E0 F5 82            [12] 2397 	mov	dpl,a
      0007E2 E4               [12] 2398 	clr	a
      0007E3 34 00            [12] 2399 	addc	a,#(_IAPCFBuf >> 8)
      0007E5 F5 83            [12] 2400 	mov	dph,a
      0007E7 E5 AE            [12] 2401 	mov	a,_IAPFD
      0007E9 F0               [24] 2402 	movx	@dptr,a
                           000665  2403 	Siap$Modify_CONFIG$202 ==.
                           000665  2404 	Siap$Modify_CONFIG$203 ==.
                                   2405 ;	C:/BSP/MG51xC9AE_MG51xB9AE_Series/Library/StdDriver/src/iap.c:323: for(u8Count=0;u8Count<5;u8Count++)
      0007EA 0F               [12] 2406 	inc	r7
      0007EB BF 05 00         [24] 2407 	cjne	r7,#0x05,00194$
      0007EE                       2408 00194$:
      0007EE 40 D8            [24] 2409 	jc	00128$
                           00066B  2410 	Siap$Modify_CONFIG$204 ==.
                                   2411 ;	C:/BSP/MG51xC9AE_MG51xB9AE_Series/Library/StdDriver/src/iap.c:330: set_IAPUEN_CFUEN;                    // CONFIG modify Enable
                                   2412 ;	assignBit
      0007F0 A2 AF            [12] 2413 	mov	c,_EA
      0007F2 92 00            [24] 2414 	mov	_BIT_TMP,c
                                   2415 ;	assignBit
      0007F4 C2 AF            [12] 2416 	clr	_EA
      0007F6 75 C7 AA         [24] 2417 	mov	_TA,#0xaa
      0007F9 75 C7 55         [24] 2418 	mov	_TA,#0x55
      0007FC 43 A5 04         [24] 2419 	orl	_IAPUEN,#0x04
                                   2420 ;	assignBit
      0007FF A2 00            [12] 2421 	mov	c,_BIT_TMP
      000801 92 AF            [24] 2422 	mov	_EA,c
                           00067E  2423 	Siap$Modify_CONFIG$205 ==.
                                   2424 ;	C:/BSP/MG51xC9AE_MG51xB9AE_Series/Library/StdDriver/src/iap.c:331: IAPFD = 0xFF;                        // IMPORTANT !! To erase function must setting IAPFD = 0xFF
      000803 75 AE FF         [24] 2425 	mov	_IAPFD,#0xff
                           000681  2426 	Siap$Modify_CONFIG$206 ==.
                                   2427 ;	C:/BSP/MG51xC9AE_MG51xB9AE_Series/Library/StdDriver/src/iap.c:332: IAPCN = PAGE_ERASE_CONFIG;
      000806 75 AF E2         [24] 2428 	mov	_IAPCN,#0xe2
                           000684  2429 	Siap$Modify_CONFIG$207 ==.
                                   2430 ;	C:/BSP/MG51xC9AE_MG51xB9AE_Series/Library/StdDriver/src/iap.c:333: IAPAL = 0x00;
      000809 75 A6 00         [24] 2431 	mov	_IAPAL,#0x00
                           000687  2432 	Siap$Modify_CONFIG$208 ==.
                                   2433 ;	C:/BSP/MG51xC9AE_MG51xB9AE_Series/Library/StdDriver/src/iap.c:334: set_IAPTRG_IAPGO_WDCLR;
      00080C A2 AF            [12] 2434 	mov	c,_EA
                                   2435 ;	assignBit
      00080E C2 AF            [12] 2436 	clr	_EA
                                   2437 ;	assignBit
      000810 A2 AF            [12] 2438 	mov	c,_EA
      000812 92 00            [24] 2439 	mov	_BIT_TMP,c
                                   2440 ;	assignBit
      000814 C2 AF            [12] 2441 	clr	_EA
      000816 75 C7 AA         [24] 2442 	mov	_TA,#0xaa
      000819 75 C7 55         [24] 2443 	mov	_TA,#0x55
      00081C 43 AA 40         [24] 2444 	orl	_WDCON,#0x40
                                   2445 ;	assignBit
      00081F A2 00            [12] 2446 	mov	c,_BIT_TMP
      000821 92 AF            [24] 2447 	mov	_EA,c
      000823 75 C7 AA         [24] 2448 	mov	_TA,#0xaa
      000826 75 C7 55         [24] 2449 	mov	_TA,#0x55
      000829 43 A4 01         [24] 2450 	orl	_IAPTRG,#0x01
                                   2451 ;	assignBit
      00082C A2 00            [12] 2452 	mov	c,_BIT_TMP
      00082E 92 AF            [24] 2453 	mov	_EA,c
                           0006AB  2454 	Siap$Modify_CONFIG$209 ==.
                                   2455 ;	C:/BSP/MG51xC9AE_MG51xB9AE_Series/Library/StdDriver/src/iap.c:336: IAPCN = BYTE_PROGRAM_CONFIG;
      000830 75 AF E1         [24] 2456 	mov	_IAPCN,#0xe1
                           0006AE  2457 	Siap$Modify_CONFIG$210 ==.
                                   2458 ;	C:/BSP/MG51xC9AE_MG51xB9AE_Series/Library/StdDriver/src/iap.c:337: IAPFD = u8CF0;
      000833 90 00 CC         [24] 2459 	mov	dptr,#_Modify_CONFIG_u8CF0_65536_189
      000836 E0               [24] 2460 	movx	a,@dptr
      000837 FF               [12] 2461 	mov	r7,a
      000838 8F AE            [24] 2462 	mov	_IAPFD,r7
                           0006B5  2463 	Siap$Modify_CONFIG$211 ==.
                                   2464 ;	C:/BSP/MG51xC9AE_MG51xB9AE_Series/Library/StdDriver/src/iap.c:338: set_IAPTRG_IAPGO_WDCLR;
      00083A A2 AF            [12] 2465 	mov	c,_EA
                                   2466 ;	assignBit
      00083C C2 AF            [12] 2467 	clr	_EA
                                   2468 ;	assignBit
      00083E A2 AF            [12] 2469 	mov	c,_EA
      000840 92 00            [24] 2470 	mov	_BIT_TMP,c
                                   2471 ;	assignBit
      000842 C2 AF            [12] 2472 	clr	_EA
      000844 75 C7 AA         [24] 2473 	mov	_TA,#0xaa
      000847 75 C7 55         [24] 2474 	mov	_TA,#0x55
      00084A 43 AA 40         [24] 2475 	orl	_WDCON,#0x40
                                   2476 ;	assignBit
      00084D A2 00            [12] 2477 	mov	c,_BIT_TMP
      00084F 92 AF            [24] 2478 	mov	_EA,c
      000851 75 C7 AA         [24] 2479 	mov	_TA,#0xaa
      000854 75 C7 55         [24] 2480 	mov	_TA,#0x55
      000857 43 A4 01         [24] 2481 	orl	_IAPTRG,#0x01
                                   2482 ;	assignBit
      00085A A2 00            [12] 2483 	mov	c,_BIT_TMP
      00085C 92 AF            [24] 2484 	mov	_EA,c
                           0006D9  2485 	Siap$Modify_CONFIG$212 ==.
                                   2486 ;	C:/BSP/MG51xC9AE_MG51xB9AE_Series/Library/StdDriver/src/iap.c:339: IAPAL++;
      00085E E5 A6            [12] 2487 	mov	a,_IAPAL
      000860 04               [12] 2488 	inc	a
      000861 F5 A6            [12] 2489 	mov	_IAPAL,a
                           0006DE  2490 	Siap$Modify_CONFIG$213 ==.
                                   2491 ;	C:/BSP/MG51xC9AE_MG51xB9AE_Series/Library/StdDriver/src/iap.c:340: IAPFD = u8CF1;
      000863 90 00 C8         [24] 2492 	mov	dptr,#_Modify_CONFIG_PARM_2
      000866 E0               [24] 2493 	movx	a,@dptr
      000867 FE               [12] 2494 	mov	r6,a
      000868 8E AE            [24] 2495 	mov	_IAPFD,r6
                           0006E5  2496 	Siap$Modify_CONFIG$214 ==.
                                   2497 ;	C:/BSP/MG51xC9AE_MG51xB9AE_Series/Library/StdDriver/src/iap.c:341: set_IAPTRG_IAPGO_WDCLR;
      00086A A2 AF            [12] 2498 	mov	c,_EA
                                   2499 ;	assignBit
      00086C C2 AF            [12] 2500 	clr	_EA
                                   2501 ;	assignBit
      00086E A2 AF            [12] 2502 	mov	c,_EA
      000870 92 00            [24] 2503 	mov	_BIT_TMP,c
                                   2504 ;	assignBit
      000872 C2 AF            [12] 2505 	clr	_EA
      000874 75 C7 AA         [24] 2506 	mov	_TA,#0xaa
      000877 75 C7 55         [24] 2507 	mov	_TA,#0x55
      00087A 43 AA 40         [24] 2508 	orl	_WDCON,#0x40
                                   2509 ;	assignBit
      00087D A2 00            [12] 2510 	mov	c,_BIT_TMP
      00087F 92 AF            [24] 2511 	mov	_EA,c
      000881 75 C7 AA         [24] 2512 	mov	_TA,#0xaa
      000884 75 C7 55         [24] 2513 	mov	_TA,#0x55
      000887 43 A4 01         [24] 2514 	orl	_IAPTRG,#0x01
                                   2515 ;	assignBit
      00088A A2 00            [12] 2516 	mov	c,_BIT_TMP
      00088C 92 AF            [24] 2517 	mov	_EA,c
                           000709  2518 	Siap$Modify_CONFIG$215 ==.
                                   2519 ;	C:/BSP/MG51xC9AE_MG51xB9AE_Series/Library/StdDriver/src/iap.c:342: IAPAL++;
      00088E E5 A6            [12] 2520 	mov	a,_IAPAL
      000890 04               [12] 2521 	inc	a
      000891 F5 A6            [12] 2522 	mov	_IAPAL,a
                           00070E  2523 	Siap$Modify_CONFIG$216 ==.
                                   2524 ;	C:/BSP/MG51xC9AE_MG51xB9AE_Series/Library/StdDriver/src/iap.c:343: IAPFD = u8CF2;
      000893 90 00 C9         [24] 2525 	mov	dptr,#_Modify_CONFIG_PARM_3
      000896 E0               [24] 2526 	movx	a,@dptr
      000897 FD               [12] 2527 	mov	r5,a
      000898 8D AE            [24] 2528 	mov	_IAPFD,r5
                           000715  2529 	Siap$Modify_CONFIG$217 ==.
                                   2530 ;	C:/BSP/MG51xC9AE_MG51xB9AE_Series/Library/StdDriver/src/iap.c:344: set_IAPTRG_IAPGO_WDCLR;
      00089A A2 AF            [12] 2531 	mov	c,_EA
                                   2532 ;	assignBit
      00089C C2 AF            [12] 2533 	clr	_EA
                                   2534 ;	assignBit
      00089E A2 AF            [12] 2535 	mov	c,_EA
      0008A0 92 00            [24] 2536 	mov	_BIT_TMP,c
                                   2537 ;	assignBit
      0008A2 C2 AF            [12] 2538 	clr	_EA
      0008A4 75 C7 AA         [24] 2539 	mov	_TA,#0xaa
      0008A7 75 C7 55         [24] 2540 	mov	_TA,#0x55
      0008AA 43 AA 40         [24] 2541 	orl	_WDCON,#0x40
                                   2542 ;	assignBit
      0008AD A2 00            [12] 2543 	mov	c,_BIT_TMP
      0008AF 92 AF            [24] 2544 	mov	_EA,c
      0008B1 75 C7 AA         [24] 2545 	mov	_TA,#0xaa
      0008B4 75 C7 55         [24] 2546 	mov	_TA,#0x55
      0008B7 43 A4 01         [24] 2547 	orl	_IAPTRG,#0x01
                                   2548 ;	assignBit
      0008BA A2 00            [12] 2549 	mov	c,_BIT_TMP
      0008BC 92 AF            [24] 2550 	mov	_EA,c
                           000739  2551 	Siap$Modify_CONFIG$218 ==.
                                   2552 ;	C:/BSP/MG51xC9AE_MG51xB9AE_Series/Library/StdDriver/src/iap.c:345: IAPAL++;
      0008BE E5 A6            [12] 2553 	mov	a,_IAPAL
      0008C0 04               [12] 2554 	inc	a
      0008C1 F5 A6            [12] 2555 	mov	_IAPAL,a
                           00073E  2556 	Siap$Modify_CONFIG$219 ==.
                                   2557 ;	C:/BSP/MG51xC9AE_MG51xB9AE_Series/Library/StdDriver/src/iap.c:346: IAPFD = u8CF3;
      0008C3 90 00 CA         [24] 2558 	mov	dptr,#_Modify_CONFIG_PARM_4
      0008C6 E0               [24] 2559 	movx	a,@dptr
      0008C7 FC               [12] 2560 	mov	r4,a
      0008C8 8C AE            [24] 2561 	mov	_IAPFD,r4
                           000745  2562 	Siap$Modify_CONFIG$220 ==.
                                   2563 ;	C:/BSP/MG51xC9AE_MG51xB9AE_Series/Library/StdDriver/src/iap.c:347: set_IAPTRG_IAPGO_WDCLR;
      0008CA A2 AF            [12] 2564 	mov	c,_EA
                                   2565 ;	assignBit
      0008CC C2 AF            [12] 2566 	clr	_EA
                                   2567 ;	assignBit
      0008CE A2 AF            [12] 2568 	mov	c,_EA
      0008D0 92 00            [24] 2569 	mov	_BIT_TMP,c
                                   2570 ;	assignBit
      0008D2 C2 AF            [12] 2571 	clr	_EA
      0008D4 75 C7 AA         [24] 2572 	mov	_TA,#0xaa
      0008D7 75 C7 55         [24] 2573 	mov	_TA,#0x55
      0008DA 43 AA 40         [24] 2574 	orl	_WDCON,#0x40
                                   2575 ;	assignBit
      0008DD A2 00            [12] 2576 	mov	c,_BIT_TMP
      0008DF 92 AF            [24] 2577 	mov	_EA,c
      0008E1 75 C7 AA         [24] 2578 	mov	_TA,#0xaa
      0008E4 75 C7 55         [24] 2579 	mov	_TA,#0x55
      0008E7 43 A4 01         [24] 2580 	orl	_IAPTRG,#0x01
                                   2581 ;	assignBit
      0008EA A2 00            [12] 2582 	mov	c,_BIT_TMP
      0008EC 92 AF            [24] 2583 	mov	_EA,c
                           000769  2584 	Siap$Modify_CONFIG$221 ==.
                                   2585 ;	C:/BSP/MG51xC9AE_MG51xB9AE_Series/Library/StdDriver/src/iap.c:348: IAPAL++;
      0008EE E5 A6            [12] 2586 	mov	a,_IAPAL
      0008F0 04               [12] 2587 	inc	a
      0008F1 F5 A6            [12] 2588 	mov	_IAPAL,a
                           00076E  2589 	Siap$Modify_CONFIG$222 ==.
                                   2590 ;	C:/BSP/MG51xC9AE_MG51xB9AE_Series/Library/StdDriver/src/iap.c:349: IAPFD = u8CF4;
      0008F3 90 00 CB         [24] 2591 	mov	dptr,#_Modify_CONFIG_PARM_5
      0008F6 E0               [24] 2592 	movx	a,@dptr
      0008F7 FB               [12] 2593 	mov	r3,a
      0008F8 8B AE            [24] 2594 	mov	_IAPFD,r3
                           000775  2595 	Siap$Modify_CONFIG$223 ==.
                                   2596 ;	C:/BSP/MG51xC9AE_MG51xB9AE_Series/Library/StdDriver/src/iap.c:350: set_IAPTRG_IAPGO_WDCLR;
      0008FA A2 AF            [12] 2597 	mov	c,_EA
                                   2598 ;	assignBit
      0008FC C2 AF            [12] 2599 	clr	_EA
                                   2600 ;	assignBit
      0008FE A2 AF            [12] 2601 	mov	c,_EA
      000900 92 00            [24] 2602 	mov	_BIT_TMP,c
                                   2603 ;	assignBit
      000902 C2 AF            [12] 2604 	clr	_EA
      000904 75 C7 AA         [24] 2605 	mov	_TA,#0xaa
      000907 75 C7 55         [24] 2606 	mov	_TA,#0x55
      00090A 43 AA 40         [24] 2607 	orl	_WDCON,#0x40
                                   2608 ;	assignBit
      00090D A2 00            [12] 2609 	mov	c,_BIT_TMP
      00090F 92 AF            [24] 2610 	mov	_EA,c
      000911 75 C7 AA         [24] 2611 	mov	_TA,#0xaa
      000914 75 C7 55         [24] 2612 	mov	_TA,#0x55
      000917 43 A4 01         [24] 2613 	orl	_IAPTRG,#0x01
                                   2614 ;	assignBit
      00091A A2 00            [12] 2615 	mov	c,_BIT_TMP
      00091C 92 AF            [24] 2616 	mov	_EA,c
                           000799  2617 	Siap$Modify_CONFIG$224 ==.
                                   2618 ;	C:/BSP/MG51xC9AE_MG51xB9AE_Series/Library/StdDriver/src/iap.c:351: clr_IAPUEN_CFUEN;
                                   2619 ;	assignBit
      00091E A2 AF            [12] 2620 	mov	c,_EA
      000920 92 00            [24] 2621 	mov	_BIT_TMP,c
                                   2622 ;	assignBit
      000922 C2 AF            [12] 2623 	clr	_EA
      000924 75 C7 AA         [24] 2624 	mov	_TA,#0xaa
      000927 75 C7 55         [24] 2625 	mov	_TA,#0x55
      00092A 53 A5 FB         [24] 2626 	anl	_IAPUEN,#0xfb
                                   2627 ;	assignBit
      00092D A2 00            [12] 2628 	mov	c,_BIT_TMP
      00092F 92 AF            [24] 2629 	mov	_EA,c
                           0007AC  2630 	Siap$Modify_CONFIG$225 ==.
                                   2631 ;	C:/BSP/MG51xC9AE_MG51xB9AE_Series/Library/StdDriver/src/iap.c:353: IAPCN = BYTE_READ_CONFIG;
      000931 75 AF C0         [24] 2632 	mov	_IAPCN,#0xc0
                           0007AF  2633 	Siap$Modify_CONFIG$226 ==.
                                   2634 ;	C:/BSP/MG51xC9AE_MG51xB9AE_Series/Library/StdDriver/src/iap.c:354: IAPAL = 0x00;
      000934 75 A6 00         [24] 2635 	mov	_IAPAL,#0x00
                           0007B2  2636 	Siap$Modify_CONFIG$227 ==.
                                   2637 ;	C:/BSP/MG51xC9AE_MG51xB9AE_Series/Library/StdDriver/src/iap.c:355: set_IAPTRG_IAPGO;
                                   2638 ;	assignBit
      000937 A2 AF            [12] 2639 	mov	c,_EA
      000939 92 00            [24] 2640 	mov	_BIT_TMP,c
                                   2641 ;	assignBit
      00093B C2 AF            [12] 2642 	clr	_EA
      00093D 75 C7 AA         [24] 2643 	mov	_TA,#0xaa
      000940 75 C7 55         [24] 2644 	mov	_TA,#0x55
      000943 43 A4 01         [24] 2645 	orl	_IAPTRG,#0x01
                                   2646 ;	assignBit
      000946 A2 00            [12] 2647 	mov	c,_BIT_TMP
      000948 92 AF            [24] 2648 	mov	_EA,c
                           0007C5  2649 	Siap$Modify_CONFIG$228 ==.
                                   2650 ;	C:/BSP/MG51xC9AE_MG51xB9AE_Series/Library/StdDriver/src/iap.c:356: if (IAPFD != u8CF0)
      00094A EF               [12] 2651 	mov	a,r7
      00094B B5 AE 02         [24] 2652 	cjne	a,_IAPFD,00196$
      00094E 80 03            [24] 2653 	sjmp	00197$
      000950                       2654 00196$:
      000950 02 09 C5         [24] 2655 	ljmp	00145$
      000953                       2656 00197$:
                           0007CE  2657 	Siap$Modify_CONFIG$229 ==.
                                   2658 ;	C:/BSP/MG51xC9AE_MG51xB9AE_Series/Library/StdDriver/src/iap.c:358: IAPAL++;
      000953 E5 A6            [12] 2659 	mov	a,_IAPAL
      000955 04               [12] 2660 	inc	a
      000956 F5 A6            [12] 2661 	mov	_IAPAL,a
                           0007D3  2662 	Siap$Modify_CONFIG$230 ==.
                                   2663 ;	C:/BSP/MG51xC9AE_MG51xB9AE_Series/Library/StdDriver/src/iap.c:359: set_IAPTRG_IAPGO;
                                   2664 ;	assignBit
      000958 A2 AF            [12] 2665 	mov	c,_EA
      00095A 92 00            [24] 2666 	mov	_BIT_TMP,c
                                   2667 ;	assignBit
      00095C C2 AF            [12] 2668 	clr	_EA
      00095E 75 C7 AA         [24] 2669 	mov	_TA,#0xaa
      000961 75 C7 55         [24] 2670 	mov	_TA,#0x55
      000964 43 A4 01         [24] 2671 	orl	_IAPTRG,#0x01
                                   2672 ;	assignBit
      000967 A2 00            [12] 2673 	mov	c,_BIT_TMP
      000969 92 AF            [24] 2674 	mov	_EA,c
                           0007E6  2675 	Siap$Modify_CONFIG$231 ==.
                                   2676 ;	C:/BSP/MG51xC9AE_MG51xB9AE_Series/Library/StdDriver/src/iap.c:360: if (IAPFD != u8CF1)
      00096B EE               [12] 2677 	mov	a,r6
      00096C B5 AE 56         [24] 2678 	cjne	a,_IAPFD,00145$
                           0007EA  2679 	Siap$Modify_CONFIG$232 ==.
                                   2680 ;	C:/BSP/MG51xC9AE_MG51xB9AE_Series/Library/StdDriver/src/iap.c:362: IAPAL++;
      00096F E5 A6            [12] 2681 	mov	a,_IAPAL
      000971 04               [12] 2682 	inc	a
      000972 F5 A6            [12] 2683 	mov	_IAPAL,a
                           0007EF  2684 	Siap$Modify_CONFIG$233 ==.
                                   2685 ;	C:/BSP/MG51xC9AE_MG51xB9AE_Series/Library/StdDriver/src/iap.c:363: set_IAPTRG_IAPGO;
                                   2686 ;	assignBit
      000974 A2 AF            [12] 2687 	mov	c,_EA
      000976 92 00            [24] 2688 	mov	_BIT_TMP,c
                                   2689 ;	assignBit
      000978 C2 AF            [12] 2690 	clr	_EA
      00097A 75 C7 AA         [24] 2691 	mov	_TA,#0xaa
      00097D 75 C7 55         [24] 2692 	mov	_TA,#0x55
      000980 43 A4 01         [24] 2693 	orl	_IAPTRG,#0x01
                                   2694 ;	assignBit
      000983 A2 00            [12] 2695 	mov	c,_BIT_TMP
      000985 92 AF            [24] 2696 	mov	_EA,c
                           000802  2697 	Siap$Modify_CONFIG$234 ==.
                                   2698 ;	C:/BSP/MG51xC9AE_MG51xB9AE_Series/Library/StdDriver/src/iap.c:364: if (IAPFD != u8CF2)
      000987 ED               [12] 2699 	mov	a,r5
      000988 B5 AE 3A         [24] 2700 	cjne	a,_IAPFD,00145$
                           000806  2701 	Siap$Modify_CONFIG$235 ==.
                                   2702 ;	C:/BSP/MG51xC9AE_MG51xB9AE_Series/Library/StdDriver/src/iap.c:366: IAPAL++;
      00098B E5 A6            [12] 2703 	mov	a,_IAPAL
      00098D 04               [12] 2704 	inc	a
      00098E F5 A6            [12] 2705 	mov	_IAPAL,a
                           00080B  2706 	Siap$Modify_CONFIG$236 ==.
                                   2707 ;	C:/BSP/MG51xC9AE_MG51xB9AE_Series/Library/StdDriver/src/iap.c:367: set_IAPTRG_IAPGO;
                                   2708 ;	assignBit
      000990 A2 AF            [12] 2709 	mov	c,_EA
      000992 92 00            [24] 2710 	mov	_BIT_TMP,c
                                   2711 ;	assignBit
      000994 C2 AF            [12] 2712 	clr	_EA
      000996 75 C7 AA         [24] 2713 	mov	_TA,#0xaa
      000999 75 C7 55         [24] 2714 	mov	_TA,#0x55
      00099C 43 A4 01         [24] 2715 	orl	_IAPTRG,#0x01
                                   2716 ;	assignBit
      00099F A2 00            [12] 2717 	mov	c,_BIT_TMP
      0009A1 92 AF            [24] 2718 	mov	_EA,c
                           00081E  2719 	Siap$Modify_CONFIG$237 ==.
                                   2720 ;	C:/BSP/MG51xC9AE_MG51xB9AE_Series/Library/StdDriver/src/iap.c:368: if (IAPFD != u8CF3)
      0009A3 EC               [12] 2721 	mov	a,r4
      0009A4 B5 AE 1E         [24] 2722 	cjne	a,_IAPFD,00145$
                           000822  2723 	Siap$Modify_CONFIG$238 ==.
                                   2724 ;	C:/BSP/MG51xC9AE_MG51xB9AE_Series/Library/StdDriver/src/iap.c:370: IAPAL++;
      0009A7 E5 A6            [12] 2725 	mov	a,_IAPAL
      0009A9 04               [12] 2726 	inc	a
      0009AA F5 A6            [12] 2727 	mov	_IAPAL,a
                           000827  2728 	Siap$Modify_CONFIG$239 ==.
                                   2729 ;	C:/BSP/MG51xC9AE_MG51xB9AE_Series/Library/StdDriver/src/iap.c:371: set_IAPTRG_IAPGO; 
                                   2730 ;	assignBit
      0009AC A2 AF            [12] 2731 	mov	c,_EA
      0009AE 92 00            [24] 2732 	mov	_BIT_TMP,c
                                   2733 ;	assignBit
      0009B0 C2 AF            [12] 2734 	clr	_EA
      0009B2 75 C7 AA         [24] 2735 	mov	_TA,#0xaa
      0009B5 75 C7 55         [24] 2736 	mov	_TA,#0x55
      0009B8 43 A4 01         [24] 2737 	orl	_IAPTRG,#0x01
                                   2738 ;	assignBit
      0009BB A2 00            [12] 2739 	mov	c,_BIT_TMP
      0009BD 92 AF            [24] 2740 	mov	_EA,c
                           00083A  2741 	Siap$Modify_CONFIG$240 ==.
                                   2742 ;	C:/BSP/MG51xC9AE_MG51xB9AE_Series/Library/StdDriver/src/iap.c:372: if (IAPFD != u8CF4)
      0009BF EB               [12] 2743 	mov	a,r3
      0009C0 B5 AE 02         [24] 2744 	cjne	a,_IAPFD,00204$
      0009C3 80 3B            [24] 2745 	sjmp	00125$
      0009C5                       2746 00204$:
                           000840  2747 	Siap$Modify_CONFIG$241 ==.
                                   2748 ;	C:/BSP/MG51xC9AE_MG51xB9AE_Series/Library/StdDriver/src/iap.c:376: for(u8Count=0;u8Count<5;u8Count++)    // Loop save CONFIG data in XRAM
      0009C5                       2749 00145$:
      0009C5 7F 00            [12] 2750 	mov	r7,#0x00
      0009C7                       2751 00130$:
                           000842  2752 	Siap$Modify_CONFIG$242 ==.
                           000842  2753 	Siap$Modify_CONFIG$243 ==.
                                   2754 ;	C:/BSP/MG51xC9AE_MG51xB9AE_Series/Library/StdDriver/src/iap.c:378: IAPAL = u8Count;
                           000842  2755 	Siap$Modify_CONFIG$244 ==.
                                   2756 ;	C:/BSP/MG51xC9AE_MG51xB9AE_Series/Library/StdDriver/src/iap.c:379: IAPFD = IAPCFBuf[u8Count];
      0009C7 EF               [12] 2757 	mov	a,r7
      0009C8 F5 A6            [12] 2758 	mov	_IAPAL,a
      0009CA 24 A3            [12] 2759 	add	a,#_IAPCFBuf
      0009CC F5 82            [12] 2760 	mov	dpl,a
      0009CE E4               [12] 2761 	clr	a
      0009CF 34 00            [12] 2762 	addc	a,#(_IAPCFBuf >> 8)
      0009D1 F5 83            [12] 2763 	mov	dph,a
      0009D3 E0               [24] 2764 	movx	a,@dptr
      0009D4 F5 AE            [12] 2765 	mov	_IAPFD,a
                           000851  2766 	Siap$Modify_CONFIG$245 ==.
                                   2767 ;	C:/BSP/MG51xC9AE_MG51xB9AE_Series/Library/StdDriver/src/iap.c:380: set_IAPTRG_IAPGO_WDCLR;
      0009D6 A2 AF            [12] 2768 	mov	c,_EA
                                   2769 ;	assignBit
      0009D8 C2 AF            [12] 2770 	clr	_EA
                                   2771 ;	assignBit
      0009DA A2 AF            [12] 2772 	mov	c,_EA
      0009DC 92 00            [24] 2773 	mov	_BIT_TMP,c
                                   2774 ;	assignBit
      0009DE C2 AF            [12] 2775 	clr	_EA
      0009E0 75 C7 AA         [24] 2776 	mov	_TA,#0xaa
      0009E3 75 C7 55         [24] 2777 	mov	_TA,#0x55
      0009E6 43 AA 40         [24] 2778 	orl	_WDCON,#0x40
                                   2779 ;	assignBit
      0009E9 A2 00            [12] 2780 	mov	c,_BIT_TMP
      0009EB 92 AF            [24] 2781 	mov	_EA,c
      0009ED 75 C7 AA         [24] 2782 	mov	_TA,#0xaa
      0009F0 75 C7 55         [24] 2783 	mov	_TA,#0x55
      0009F3 43 A4 01         [24] 2784 	orl	_IAPTRG,#0x01
                                   2785 ;	assignBit
      0009F6 A2 00            [12] 2786 	mov	c,_BIT_TMP
      0009F8 92 AF            [24] 2787 	mov	_EA,c
                           000875  2788 	Siap$Modify_CONFIG$246 ==.
                           000875  2789 	Siap$Modify_CONFIG$247 ==.
                                   2790 ;	C:/BSP/MG51xC9AE_MG51xB9AE_Series/Library/StdDriver/src/iap.c:376: for(u8Count=0;u8Count<5;u8Count++)    // Loop save CONFIG data in XRAM
      0009FA 0F               [12] 2791 	inc	r7
      0009FB BF 05 00         [24] 2792 	cjne	r7,#0x05,00205$
      0009FE                       2793 00205$:
      0009FE 40 C7            [24] 2794 	jc	00130$
                           00087B  2795 	Siap$Modify_CONFIG$248 ==.
                                   2796 ;	C:/BSP/MG51xC9AE_MG51xB9AE_Series/Library/StdDriver/src/iap.c:382: CFCLOSE:
      000A00                       2797 00125$:
                           00087B  2798 	Siap$Modify_CONFIG$249 ==.
                                   2799 ;	C:/BSP/MG51xC9AE_MG51xB9AE_Series/Library/StdDriver/src/iap.c:383: clr_IAPUEN_CFUEN;                    // Disable APROM modify
                                   2800 ;	assignBit
      000A00 A2 AF            [12] 2801 	mov	c,_EA
      000A02 92 00            [24] 2802 	mov	_BIT_TMP,c
                                   2803 ;	assignBit
      000A04 C2 AF            [12] 2804 	clr	_EA
      000A06 75 C7 AA         [24] 2805 	mov	_TA,#0xaa
      000A09 75 C7 55         [24] 2806 	mov	_TA,#0x55
      000A0C 53 A5 FB         [24] 2807 	anl	_IAPUEN,#0xfb
                                   2808 ;	assignBit
      000A0F A2 00            [12] 2809 	mov	c,_BIT_TMP
      000A11 92 AF            [24] 2810 	mov	_EA,c
                           00088E  2811 	Siap$Modify_CONFIG$250 ==.
                                   2812 ;	C:/BSP/MG51xC9AE_MG51xB9AE_Series/Library/StdDriver/src/iap.c:384: clr_CHPCON_IAPEN;                    // Disable IAP
                                   2813 ;	assignBit
      000A13 A2 AF            [12] 2814 	mov	c,_EA
      000A15 92 00            [24] 2815 	mov	_BIT_TMP,c
                                   2816 ;	assignBit
      000A17 C2 AF            [12] 2817 	clr	_EA
      000A19 75 C7 AA         [24] 2818 	mov	_TA,#0xaa
      000A1C 75 C7 55         [24] 2819 	mov	_TA,#0x55
      000A1F 53 9F FE         [24] 2820 	anl	_CHPCON,#0xfe
                                   2821 ;	assignBit
      000A22 A2 00            [12] 2822 	mov	c,_BIT_TMP
      000A24 92 AF            [24] 2823 	mov	_EA,c
                           0008A1  2824 	Siap$Modify_CONFIG$251 ==.
                                   2825 ;	C:/BSP/MG51xC9AE_MG51xB9AE_Series/Library/StdDriver/src/iap.c:386: EA = BIT_TMP;
                                   2826 ;	assignBit
      000A26 A2 00            [12] 2827 	mov	c,_BIT_TMP
      000A28 92 AF            [24] 2828 	mov	_EA,c
                           0008A5  2829 	Siap$Modify_CONFIG$252 ==.
                                   2830 ;	C:/BSP/MG51xC9AE_MG51xB9AE_Series/Library/StdDriver/src/iap.c:387: PCON&=CLR_BIT4;                      // Clear power on flag to avoid software reset modify CONFIG again. */
      000A2A 53 87 EF         [24] 2831 	anl	_PCON,#0xef
      000A2D                       2832 00132$:
                           0008A8  2833 	Siap$Modify_CONFIG$253 ==.
                                   2834 ;	C:/BSP/MG51xC9AE_MG51xB9AE_Series/Library/StdDriver/src/iap.c:390: }
                           0008A8  2835 	Siap$Modify_CONFIG$254 ==.
                           0008A8  2836 	XG$Modify_CONFIG$0$0 ==.
      000A2D 22               [24] 2837 	ret
                           0008A9  2838 	Siap$Modify_CONFIG$255 ==.
                                   2839 ;------------------------------------------------------------
                                   2840 ;Allocation info for local variables in function 'Read_CONFIG'
                                   2841 ;------------------------------------------------------------
                                   2842 ;u8Count                   Allocated with name '_Read_CONFIG_u8Count_65536_197'
                                   2843 ;------------------------------------------------------------
                           0008A9  2844 	Siap$Read_CONFIG$256 ==.
                                   2845 ;	C:/BSP/MG51xC9AE_MG51xB9AE_Series/Library/StdDriver/src/iap.c:401: void Read_CONFIG(void)
                                   2846 ;	-----------------------------------------
                                   2847 ;	 function Read_CONFIG
                                   2848 ;	-----------------------------------------
      000A2E                       2849 _Read_CONFIG:
                           0008A9  2850 	Siap$Read_CONFIG$257 ==.
                           0008A9  2851 	Siap$Read_CONFIG$258 ==.
                                   2852 ;	C:/BSP/MG51xC9AE_MG51xB9AE_Series/Library/StdDriver/src/iap.c:405: set_CHPCON_IAPEN;                    // Enable IAP function
                                   2853 ;	assignBit
      000A2E A2 AF            [12] 2854 	mov	c,_EA
      000A30 92 00            [24] 2855 	mov	_BIT_TMP,c
                                   2856 ;	assignBit
      000A32 C2 AF            [12] 2857 	clr	_EA
      000A34 75 C7 AA         [24] 2858 	mov	_TA,#0xaa
      000A37 75 C7 55         [24] 2859 	mov	_TA,#0x55
      000A3A 43 9F 01         [24] 2860 	orl	_CHPCON,#0x01
                                   2861 ;	assignBit
      000A3D A2 00            [12] 2862 	mov	c,_BIT_TMP
      000A3F 92 AF            [24] 2863 	mov	_EA,c
                           0008BC  2864 	Siap$Read_CONFIG$259 ==.
                                   2865 ;	C:/BSP/MG51xC9AE_MG51xB9AE_Series/Library/StdDriver/src/iap.c:406: IAPCN = BYTE_READ_CONFIG;
      000A41 75 AF C0         [24] 2866 	mov	_IAPCN,#0xc0
                           0008BF  2867 	Siap$Read_CONFIG$260 ==.
                                   2868 ;	C:/BSP/MG51xC9AE_MG51xB9AE_Series/Library/StdDriver/src/iap.c:407: IAPAH = 0x00;
      000A44 75 A7 00         [24] 2869 	mov	_IAPAH,#0x00
                           0008C2  2870 	Siap$Read_CONFIG$261 ==.
                                   2871 ;	C:/BSP/MG51xC9AE_MG51xB9AE_Series/Library/StdDriver/src/iap.c:409: for(u8Count=0;u8Count<5;u8Count++)
      000A47 7F 00            [12] 2872 	mov	r7,#0x00
      000A49                       2873 00102$:
                           0008C4  2874 	Siap$Read_CONFIG$262 ==.
                           0008C4  2875 	Siap$Read_CONFIG$263 ==.
                                   2876 ;	C:/BSP/MG51xC9AE_MG51xB9AE_Series/Library/StdDriver/src/iap.c:411: IAPAL = u8Count;
      000A49 8F A6            [24] 2877 	mov	_IAPAL,r7
                           0008C6  2878 	Siap$Read_CONFIG$264 ==.
                                   2879 ;	C:/BSP/MG51xC9AE_MG51xB9AE_Series/Library/StdDriver/src/iap.c:412: set_IAPTRG_IAPGO_WDCLR;
      000A4B A2 AF            [12] 2880 	mov	c,_EA
                                   2881 ;	assignBit
      000A4D C2 AF            [12] 2882 	clr	_EA
                                   2883 ;	assignBit
      000A4F A2 AF            [12] 2884 	mov	c,_EA
      000A51 92 00            [24] 2885 	mov	_BIT_TMP,c
                                   2886 ;	assignBit
      000A53 C2 AF            [12] 2887 	clr	_EA
      000A55 75 C7 AA         [24] 2888 	mov	_TA,#0xaa
      000A58 75 C7 55         [24] 2889 	mov	_TA,#0x55
      000A5B 43 AA 40         [24] 2890 	orl	_WDCON,#0x40
                                   2891 ;	assignBit
      000A5E A2 00            [12] 2892 	mov	c,_BIT_TMP
      000A60 92 AF            [24] 2893 	mov	_EA,c
      000A62 75 C7 AA         [24] 2894 	mov	_TA,#0xaa
      000A65 75 C7 55         [24] 2895 	mov	_TA,#0x55
      000A68 43 A4 01         [24] 2896 	orl	_IAPTRG,#0x01
                                   2897 ;	assignBit
      000A6B A2 00            [12] 2898 	mov	c,_BIT_TMP
      000A6D 92 AF            [24] 2899 	mov	_EA,c
                           0008EA  2900 	Siap$Read_CONFIG$265 ==.
                                   2901 ;	C:/BSP/MG51xC9AE_MG51xB9AE_Series/Library/StdDriver/src/iap.c:413: IAPCFBuf[u8Count] = IAPFD;
      000A6F EF               [12] 2902 	mov	a,r7
      000A70 24 A3            [12] 2903 	add	a,#_IAPCFBuf
      000A72 F5 82            [12] 2904 	mov	dpl,a
      000A74 E4               [12] 2905 	clr	a
      000A75 34 00            [12] 2906 	addc	a,#(_IAPCFBuf >> 8)
      000A77 F5 83            [12] 2907 	mov	dph,a
      000A79 E5 AE            [12] 2908 	mov	a,_IAPFD
      000A7B F0               [24] 2909 	movx	@dptr,a
                           0008F7  2910 	Siap$Read_CONFIG$266 ==.
                           0008F7  2911 	Siap$Read_CONFIG$267 ==.
                                   2912 ;	C:/BSP/MG51xC9AE_MG51xB9AE_Series/Library/StdDriver/src/iap.c:409: for(u8Count=0;u8Count<5;u8Count++)
      000A7C 0F               [12] 2913 	inc	r7
      000A7D BF 05 00         [24] 2914 	cjne	r7,#0x05,00115$
      000A80                       2915 00115$:
      000A80 40 C7            [24] 2916 	jc	00102$
                           0008FD  2917 	Siap$Read_CONFIG$268 ==.
                                   2918 ;	C:/BSP/MG51xC9AE_MG51xB9AE_Series/Library/StdDriver/src/iap.c:415: clr_CHPCON_IAPEN;                    // Disable IAP
                                   2919 ;	assignBit
      000A82 A2 AF            [12] 2920 	mov	c,_EA
      000A84 92 00            [24] 2921 	mov	_BIT_TMP,c
                                   2922 ;	assignBit
      000A86 C2 AF            [12] 2923 	clr	_EA
      000A88 75 C7 AA         [24] 2924 	mov	_TA,#0xaa
      000A8B 75 C7 55         [24] 2925 	mov	_TA,#0x55
      000A8E 53 9F FE         [24] 2926 	anl	_CHPCON,#0xfe
                                   2927 ;	assignBit
      000A91 A2 00            [12] 2928 	mov	c,_BIT_TMP
      000A93 92 AF            [24] 2929 	mov	_EA,c
                           000910  2930 	Siap$Read_CONFIG$269 ==.
                                   2931 ;	C:/BSP/MG51xC9AE_MG51xB9AE_Series/Library/StdDriver/src/iap.c:416: }
                           000910  2932 	Siap$Read_CONFIG$270 ==.
                           000910  2933 	XG$Read_CONFIG$0$0 ==.
      000A95 22               [24] 2934 	ret
                           000911  2935 	Siap$Read_CONFIG$271 ==.
                                   2936 ;------------------------------------------------------------
                                   2937 ;Allocation info for local variables in function 'Read_UID'
                                   2938 ;------------------------------------------------------------
                                   2939 ;u8Count                   Allocated with name '_Read_UID_u8Count_65536_201'
                                   2940 ;------------------------------------------------------------
                           000911  2941 	Siap$Read_UID$272 ==.
                                   2942 ;	C:/BSP/MG51xC9AE_MG51xB9AE_Series/Library/StdDriver/src/iap.c:426: void Read_UID(void)
                                   2943 ;	-----------------------------------------
                                   2944 ;	 function Read_UID
                                   2945 ;	-----------------------------------------
      000A96                       2946 _Read_UID:
                           000911  2947 	Siap$Read_UID$273 ==.
                           000911  2948 	Siap$Read_UID$274 ==.
                                   2949 ;	C:/BSP/MG51xC9AE_MG51xB9AE_Series/Library/StdDriver/src/iap.c:430: set_CHPCON_IAPEN;
                                   2950 ;	assignBit
      000A96 A2 AF            [12] 2951 	mov	c,_EA
      000A98 92 00            [24] 2952 	mov	_BIT_TMP,c
                                   2953 ;	assignBit
      000A9A C2 AF            [12] 2954 	clr	_EA
      000A9C 75 C7 AA         [24] 2955 	mov	_TA,#0xaa
      000A9F 75 C7 55         [24] 2956 	mov	_TA,#0x55
      000AA2 43 9F 01         [24] 2957 	orl	_CHPCON,#0x01
                                   2958 ;	assignBit
      000AA5 A2 00            [12] 2959 	mov	c,_BIT_TMP
      000AA7 92 AF            [24] 2960 	mov	_EA,c
                           000924  2961 	Siap$Read_UID$275 ==.
                                   2962 ;	C:/BSP/MG51xC9AE_MG51xB9AE_Series/Library/StdDriver/src/iap.c:431: IAPAL = 0x00;
      000AA9 75 A6 00         [24] 2963 	mov	_IAPAL,#0x00
                           000927  2964 	Siap$Read_UID$276 ==.
                                   2965 ;	C:/BSP/MG51xC9AE_MG51xB9AE_Series/Library/StdDriver/src/iap.c:432: IAPAH = 0x00;
      000AAC 75 A7 00         [24] 2966 	mov	_IAPAH,#0x00
                           00092A  2967 	Siap$Read_UID$277 ==.
                                   2968 ;	C:/BSP/MG51xC9AE_MG51xB9AE_Series/Library/StdDriver/src/iap.c:433: IAPCN = READ_UID;
      000AAF 75 AF 04         [24] 2969 	mov	_IAPCN,#0x04
                           00092D  2970 	Siap$Read_UID$278 ==.
                                   2971 ;	C:/BSP/MG51xC9AE_MG51xB9AE_Series/Library/StdDriver/src/iap.c:434: for(u8Count=0;u8Count<12;u8Count++)
      000AB2 7F 00            [12] 2972 	mov	r7,#0x00
      000AB4                       2973 00102$:
                           00092F  2974 	Siap$Read_UID$279 ==.
                           00092F  2975 	Siap$Read_UID$280 ==.
                                   2976 ;	C:/BSP/MG51xC9AE_MG51xB9AE_Series/Library/StdDriver/src/iap.c:436: IAPFD = 0x00;
      000AB4 75 AE 00         [24] 2977 	mov	_IAPFD,#0x00
                           000932  2978 	Siap$Read_UID$281 ==.
                                   2979 ;	C:/BSP/MG51xC9AE_MG51xB9AE_Series/Library/StdDriver/src/iap.c:437: set_IAPTRG_IAPGO;
                                   2980 ;	assignBit
      000AB7 A2 AF            [12] 2981 	mov	c,_EA
      000AB9 92 00            [24] 2982 	mov	_BIT_TMP,c
                                   2983 ;	assignBit
      000ABB C2 AF            [12] 2984 	clr	_EA
      000ABD 75 C7 AA         [24] 2985 	mov	_TA,#0xaa
      000AC0 75 C7 55         [24] 2986 	mov	_TA,#0x55
      000AC3 43 A4 01         [24] 2987 	orl	_IAPTRG,#0x01
                                   2988 ;	assignBit
      000AC6 A2 00            [12] 2989 	mov	c,_BIT_TMP
      000AC8 92 AF            [24] 2990 	mov	_EA,c
                           000945  2991 	Siap$Read_UID$282 ==.
                                   2992 ;	C:/BSP/MG51xC9AE_MG51xB9AE_Series/Library/StdDriver/src/iap.c:438: UIDBuffer[u8Count] = IAPFD ;
      000ACA EF               [12] 2993 	mov	a,r7
      000ACB 24 0B            [12] 2994 	add	a,#_UIDBuffer
      000ACD F5 82            [12] 2995 	mov	dpl,a
      000ACF E4               [12] 2996 	clr	a
      000AD0 34 00            [12] 2997 	addc	a,#(_UIDBuffer >> 8)
      000AD2 F5 83            [12] 2998 	mov	dph,a
      000AD4 E5 AE            [12] 2999 	mov	a,_IAPFD
      000AD6 F0               [24] 3000 	movx	@dptr,a
                           000952  3001 	Siap$Read_UID$283 ==.
                                   3002 ;	C:/BSP/MG51xC9AE_MG51xB9AE_Series/Library/StdDriver/src/iap.c:439: IAPAL++;
      000AD7 E5 A6            [12] 3003 	mov	a,_IAPAL
      000AD9 04               [12] 3004 	inc	a
      000ADA F5 A6            [12] 3005 	mov	_IAPAL,a
                           000957  3006 	Siap$Read_UID$284 ==.
                           000957  3007 	Siap$Read_UID$285 ==.
                                   3008 ;	C:/BSP/MG51xC9AE_MG51xB9AE_Series/Library/StdDriver/src/iap.c:434: for(u8Count=0;u8Count<12;u8Count++)
      000ADC 0F               [12] 3009 	inc	r7
      000ADD BF 0C 00         [24] 3010 	cjne	r7,#0x0c,00115$
      000AE0                       3011 00115$:
      000AE0 40 D2            [24] 3012 	jc	00102$
                           00095D  3013 	Siap$Read_UID$286 ==.
                                   3014 ;	C:/BSP/MG51xC9AE_MG51xB9AE_Series/Library/StdDriver/src/iap.c:441: clr_CHPCON_IAPEN;
                                   3015 ;	assignBit
      000AE2 A2 AF            [12] 3016 	mov	c,_EA
      000AE4 92 00            [24] 3017 	mov	_BIT_TMP,c
                                   3018 ;	assignBit
      000AE6 C2 AF            [12] 3019 	clr	_EA
      000AE8 75 C7 AA         [24] 3020 	mov	_TA,#0xaa
      000AEB 75 C7 55         [24] 3021 	mov	_TA,#0x55
      000AEE 53 9F FE         [24] 3022 	anl	_CHPCON,#0xfe
                                   3023 ;	assignBit
      000AF1 A2 00            [12] 3024 	mov	c,_BIT_TMP
      000AF3 92 AF            [24] 3025 	mov	_EA,c
                           000970  3026 	Siap$Read_UID$287 ==.
                                   3027 ;	C:/BSP/MG51xC9AE_MG51xB9AE_Series/Library/StdDriver/src/iap.c:442: }
                           000970  3028 	Siap$Read_UID$288 ==.
                           000970  3029 	XG$Read_UID$0$0 ==.
      000AF5 22               [24] 3030 	ret
                           000971  3031 	Siap$Read_UID$289 ==.
                                   3032 ;------------------------------------------------------------
                                   3033 ;Allocation info for local variables in function 'Read_UCID'
                                   3034 ;------------------------------------------------------------
                                   3035 ;u8Count                   Allocated with name '_Read_UCID_u8Count_65536_205'
                                   3036 ;------------------------------------------------------------
                           000971  3037 	Siap$Read_UCID$290 ==.
                                   3038 ;	C:/BSP/MG51xC9AE_MG51xB9AE_Series/Library/StdDriver/src/iap.c:451: void Read_UCID(void)
                                   3039 ;	-----------------------------------------
                                   3040 ;	 function Read_UCID
                                   3041 ;	-----------------------------------------
      000AF6                       3042 _Read_UCID:
                           000971  3043 	Siap$Read_UCID$291 ==.
                           000971  3044 	Siap$Read_UCID$292 ==.
                                   3045 ;	C:/BSP/MG51xC9AE_MG51xB9AE_Series/Library/StdDriver/src/iap.c:455: set_CHPCON_IAPEN;
                                   3046 ;	assignBit
      000AF6 A2 AF            [12] 3047 	mov	c,_EA
      000AF8 92 00            [24] 3048 	mov	_BIT_TMP,c
                                   3049 ;	assignBit
      000AFA C2 AF            [12] 3050 	clr	_EA
      000AFC 75 C7 AA         [24] 3051 	mov	_TA,#0xaa
      000AFF 75 C7 55         [24] 3052 	mov	_TA,#0x55
      000B02 43 9F 01         [24] 3053 	orl	_CHPCON,#0x01
                                   3054 ;	assignBit
      000B05 A2 00            [12] 3055 	mov	c,_BIT_TMP
      000B07 92 AF            [24] 3056 	mov	_EA,c
                           000984  3057 	Siap$Read_UCID$293 ==.
                                   3058 ;	C:/BSP/MG51xC9AE_MG51xB9AE_Series/Library/StdDriver/src/iap.c:456: IAPAL = 0x20;
      000B09 75 A6 20         [24] 3059 	mov	_IAPAL,#0x20
                           000987  3060 	Siap$Read_UCID$294 ==.
                                   3061 ;	C:/BSP/MG51xC9AE_MG51xB9AE_Series/Library/StdDriver/src/iap.c:457: IAPAH = 0x00;
      000B0C 75 A7 00         [24] 3062 	mov	_IAPAH,#0x00
                           00098A  3063 	Siap$Read_UCID$295 ==.
                                   3064 ;	C:/BSP/MG51xC9AE_MG51xB9AE_Series/Library/StdDriver/src/iap.c:458: IAPCN = READ_UID;
      000B0F 75 AF 04         [24] 3065 	mov	_IAPCN,#0x04
                           00098D  3066 	Siap$Read_UCID$296 ==.
                                   3067 ;	C:/BSP/MG51xC9AE_MG51xB9AE_Series/Library/StdDriver/src/iap.c:459: for(u8Count=0;u8Count<12;u8Count++)
      000B12 7F 00            [12] 3068 	mov	r7,#0x00
      000B14                       3069 00102$:
                           00098F  3070 	Siap$Read_UCID$297 ==.
                           00098F  3071 	Siap$Read_UCID$298 ==.
                                   3072 ;	C:/BSP/MG51xC9AE_MG51xB9AE_Series/Library/StdDriver/src/iap.c:461: IAPFD = 0x00;
      000B14 75 AE 00         [24] 3073 	mov	_IAPFD,#0x00
                           000992  3074 	Siap$Read_UCID$299 ==.
                                   3075 ;	C:/BSP/MG51xC9AE_MG51xB9AE_Series/Library/StdDriver/src/iap.c:462: set_IAPTRG_IAPGO;
                                   3076 ;	assignBit
      000B17 A2 AF            [12] 3077 	mov	c,_EA
      000B19 92 00            [24] 3078 	mov	_BIT_TMP,c
                                   3079 ;	assignBit
      000B1B C2 AF            [12] 3080 	clr	_EA
      000B1D 75 C7 AA         [24] 3081 	mov	_TA,#0xaa
      000B20 75 C7 55         [24] 3082 	mov	_TA,#0x55
      000B23 43 A4 01         [24] 3083 	orl	_IAPTRG,#0x01
                                   3084 ;	assignBit
      000B26 A2 00            [12] 3085 	mov	c,_BIT_TMP
      000B28 92 AF            [24] 3086 	mov	_EA,c
                           0009A5  3087 	Siap$Read_UCID$300 ==.
                                   3088 ;	C:/BSP/MG51xC9AE_MG51xB9AE_Series/Library/StdDriver/src/iap.c:463: UCIDBuffer[u8Count] = IAPFD ;
      000B2A EF               [12] 3089 	mov	a,r7
      000B2B 24 17            [12] 3090 	add	a,#_UCIDBuffer
      000B2D F5 82            [12] 3091 	mov	dpl,a
      000B2F E4               [12] 3092 	clr	a
      000B30 34 00            [12] 3093 	addc	a,#(_UCIDBuffer >> 8)
      000B32 F5 83            [12] 3094 	mov	dph,a
      000B34 E5 AE            [12] 3095 	mov	a,_IAPFD
      000B36 F0               [24] 3096 	movx	@dptr,a
                           0009B2  3097 	Siap$Read_UCID$301 ==.
                                   3098 ;	C:/BSP/MG51xC9AE_MG51xB9AE_Series/Library/StdDriver/src/iap.c:464: IAPAL++;
      000B37 E5 A6            [12] 3099 	mov	a,_IAPAL
      000B39 04               [12] 3100 	inc	a
      000B3A F5 A6            [12] 3101 	mov	_IAPAL,a
                           0009B7  3102 	Siap$Read_UCID$302 ==.
                           0009B7  3103 	Siap$Read_UCID$303 ==.
                                   3104 ;	C:/BSP/MG51xC9AE_MG51xB9AE_Series/Library/StdDriver/src/iap.c:459: for(u8Count=0;u8Count<12;u8Count++)
      000B3C 0F               [12] 3105 	inc	r7
      000B3D BF 0C 00         [24] 3106 	cjne	r7,#0x0c,00115$
      000B40                       3107 00115$:
      000B40 40 D2            [24] 3108 	jc	00102$
                           0009BD  3109 	Siap$Read_UCID$304 ==.
                                   3110 ;	C:/BSP/MG51xC9AE_MG51xB9AE_Series/Library/StdDriver/src/iap.c:466: clr_CHPCON_IAPEN;
                                   3111 ;	assignBit
      000B42 A2 AF            [12] 3112 	mov	c,_EA
      000B44 92 00            [24] 3113 	mov	_BIT_TMP,c
                                   3114 ;	assignBit
      000B46 C2 AF            [12] 3115 	clr	_EA
      000B48 75 C7 AA         [24] 3116 	mov	_TA,#0xaa
      000B4B 75 C7 55         [24] 3117 	mov	_TA,#0x55
      000B4E 53 9F FE         [24] 3118 	anl	_CHPCON,#0xfe
                                   3119 ;	assignBit
      000B51 A2 00            [12] 3120 	mov	c,_BIT_TMP
      000B53 92 AF            [24] 3121 	mov	_EA,c
                           0009D0  3122 	Siap$Read_UCID$305 ==.
                                   3123 ;	C:/BSP/MG51xC9AE_MG51xB9AE_Series/Library/StdDriver/src/iap.c:467: }
                           0009D0  3124 	Siap$Read_UCID$306 ==.
                           0009D0  3125 	XG$Read_UCID$0$0 ==.
      000B55 22               [24] 3126 	ret
                           0009D1  3127 	Siap$Read_UCID$307 ==.
                                   3128 ;------------------------------------------------------------
                                   3129 ;Allocation info for local variables in function 'Read_DID'
                                   3130 ;------------------------------------------------------------
                                   3131 ;u8Count                   Allocated with name '_Read_DID_u8Count_65536_209'
                                   3132 ;------------------------------------------------------------
                           0009D1  3133 	Siap$Read_DID$308 ==.
                                   3134 ;	C:/BSP/MG51xC9AE_MG51xB9AE_Series/Library/StdDriver/src/iap.c:477: void Read_DID(void)
                                   3135 ;	-----------------------------------------
                                   3136 ;	 function Read_DID
                                   3137 ;	-----------------------------------------
      000B56                       3138 _Read_DID:
                           0009D1  3139 	Siap$Read_DID$309 ==.
                           0009D1  3140 	Siap$Read_DID$310 ==.
                                   3141 ;	C:/BSP/MG51xC9AE_MG51xB9AE_Series/Library/StdDriver/src/iap.c:481: set_CHPCON_IAPEN;
                                   3142 ;	assignBit
      000B56 A2 AF            [12] 3143 	mov	c,_EA
      000B58 92 00            [24] 3144 	mov	_BIT_TMP,c
                                   3145 ;	assignBit
      000B5A C2 AF            [12] 3146 	clr	_EA
      000B5C 75 C7 AA         [24] 3147 	mov	_TA,#0xaa
      000B5F 75 C7 55         [24] 3148 	mov	_TA,#0x55
      000B62 43 9F 01         [24] 3149 	orl	_CHPCON,#0x01
                                   3150 ;	assignBit
      000B65 A2 00            [12] 3151 	mov	c,_BIT_TMP
      000B67 92 AF            [24] 3152 	mov	_EA,c
                           0009E4  3153 	Siap$Read_DID$311 ==.
                                   3154 ;	C:/BSP/MG51xC9AE_MG51xB9AE_Series/Library/StdDriver/src/iap.c:482: IAPAL = 0x00;
      000B69 75 A6 00         [24] 3155 	mov	_IAPAL,#0x00
                           0009E7  3156 	Siap$Read_DID$312 ==.
                                   3157 ;	C:/BSP/MG51xC9AE_MG51xB9AE_Series/Library/StdDriver/src/iap.c:483: IAPAH = 0x00;
      000B6C 75 A7 00         [24] 3158 	mov	_IAPAH,#0x00
                           0009EA  3159 	Siap$Read_DID$313 ==.
                                   3160 ;	C:/BSP/MG51xC9AE_MG51xB9AE_Series/Library/StdDriver/src/iap.c:484: IAPCN = READ_DID;
      000B6F 75 AF 0C         [24] 3161 	mov	_IAPCN,#0x0c
                           0009ED  3162 	Siap$Read_DID$314 ==.
                                   3163 ;	C:/BSP/MG51xC9AE_MG51xB9AE_Series/Library/StdDriver/src/iap.c:485: for(u8Count=0;u8Count<2;u8Count++)
      000B72 7F 00            [12] 3164 	mov	r7,#0x00
      000B74                       3165 00102$:
                           0009EF  3166 	Siap$Read_DID$315 ==.
                           0009EF  3167 	Siap$Read_DID$316 ==.
                                   3168 ;	C:/BSP/MG51xC9AE_MG51xB9AE_Series/Library/StdDriver/src/iap.c:487: IAPFD = 0x00;
      000B74 75 AE 00         [24] 3169 	mov	_IAPFD,#0x00
                           0009F2  3170 	Siap$Read_DID$317 ==.
                                   3171 ;	C:/BSP/MG51xC9AE_MG51xB9AE_Series/Library/StdDriver/src/iap.c:488: set_IAPTRG_IAPGO;
                                   3172 ;	assignBit
      000B77 A2 AF            [12] 3173 	mov	c,_EA
      000B79 92 00            [24] 3174 	mov	_BIT_TMP,c
                                   3175 ;	assignBit
      000B7B C2 AF            [12] 3176 	clr	_EA
      000B7D 75 C7 AA         [24] 3177 	mov	_TA,#0xaa
      000B80 75 C7 55         [24] 3178 	mov	_TA,#0x55
      000B83 43 A4 01         [24] 3179 	orl	_IAPTRG,#0x01
                                   3180 ;	assignBit
      000B86 A2 00            [12] 3181 	mov	c,_BIT_TMP
      000B88 92 AF            [24] 3182 	mov	_EA,c
                           000A05  3183 	Siap$Read_DID$318 ==.
                                   3184 ;	C:/BSP/MG51xC9AE_MG51xB9AE_Series/Library/StdDriver/src/iap.c:489: DIDBuffer[u8Count] = IAPFD ;
      000B8A EF               [12] 3185 	mov	a,r7
      000B8B 24 07            [12] 3186 	add	a,#_DIDBuffer
      000B8D F5 82            [12] 3187 	mov	dpl,a
      000B8F E4               [12] 3188 	clr	a
      000B90 34 00            [12] 3189 	addc	a,#(_DIDBuffer >> 8)
      000B92 F5 83            [12] 3190 	mov	dph,a
      000B94 E5 AE            [12] 3191 	mov	a,_IAPFD
      000B96 F0               [24] 3192 	movx	@dptr,a
                           000A12  3193 	Siap$Read_DID$319 ==.
                                   3194 ;	C:/BSP/MG51xC9AE_MG51xB9AE_Series/Library/StdDriver/src/iap.c:490: IAPAL++;
      000B97 E5 A6            [12] 3195 	mov	a,_IAPAL
      000B99 04               [12] 3196 	inc	a
      000B9A F5 A6            [12] 3197 	mov	_IAPAL,a
                           000A17  3198 	Siap$Read_DID$320 ==.
                           000A17  3199 	Siap$Read_DID$321 ==.
                                   3200 ;	C:/BSP/MG51xC9AE_MG51xB9AE_Series/Library/StdDriver/src/iap.c:485: for(u8Count=0;u8Count<2;u8Count++)
      000B9C 0F               [12] 3201 	inc	r7
      000B9D BF 02 00         [24] 3202 	cjne	r7,#0x02,00115$
      000BA0                       3203 00115$:
      000BA0 40 D2            [24] 3204 	jc	00102$
                           000A1D  3205 	Siap$Read_DID$322 ==.
                                   3206 ;	C:/BSP/MG51xC9AE_MG51xB9AE_Series/Library/StdDriver/src/iap.c:492: clr_CHPCON_IAPEN;
                                   3207 ;	assignBit
      000BA2 A2 AF            [12] 3208 	mov	c,_EA
      000BA4 92 00            [24] 3209 	mov	_BIT_TMP,c
                                   3210 ;	assignBit
      000BA6 C2 AF            [12] 3211 	clr	_EA
      000BA8 75 C7 AA         [24] 3212 	mov	_TA,#0xaa
      000BAB 75 C7 55         [24] 3213 	mov	_TA,#0x55
      000BAE 53 9F FE         [24] 3214 	anl	_CHPCON,#0xfe
                                   3215 ;	assignBit
      000BB1 A2 00            [12] 3216 	mov	c,_BIT_TMP
      000BB3 92 AF            [24] 3217 	mov	_EA,c
                           000A30  3218 	Siap$Read_DID$323 ==.
                                   3219 ;	C:/BSP/MG51xC9AE_MG51xB9AE_Series/Library/StdDriver/src/iap.c:493: }
                           000A30  3220 	Siap$Read_DID$324 ==.
                           000A30  3221 	XG$Read_DID$0$0 ==.
      000BB5 22               [24] 3222 	ret
                           000A31  3223 	Siap$Read_DID$325 ==.
                                   3224 ;------------------------------------------------------------
                                   3225 ;Allocation info for local variables in function 'Read_PID'
                                   3226 ;------------------------------------------------------------
                                   3227 ;u8Count                   Allocated with name '_Read_PID_u8Count_65536_213'
                                   3228 ;------------------------------------------------------------
                           000A31  3229 	Siap$Read_PID$326 ==.
                                   3230 ;	C:/BSP/MG51xC9AE_MG51xB9AE_Series/Library/StdDriver/src/iap.c:502: void Read_PID(void)
                                   3231 ;	-----------------------------------------
                                   3232 ;	 function Read_PID
                                   3233 ;	-----------------------------------------
      000BB6                       3234 _Read_PID:
                           000A31  3235 	Siap$Read_PID$327 ==.
                           000A31  3236 	Siap$Read_PID$328 ==.
                                   3237 ;	C:/BSP/MG51xC9AE_MG51xB9AE_Series/Library/StdDriver/src/iap.c:506: set_CHPCON_IAPEN;
                                   3238 ;	assignBit
      000BB6 A2 AF            [12] 3239 	mov	c,_EA
      000BB8 92 00            [24] 3240 	mov	_BIT_TMP,c
                                   3241 ;	assignBit
      000BBA C2 AF            [12] 3242 	clr	_EA
      000BBC 75 C7 AA         [24] 3243 	mov	_TA,#0xaa
      000BBF 75 C7 55         [24] 3244 	mov	_TA,#0x55
      000BC2 43 9F 01         [24] 3245 	orl	_CHPCON,#0x01
                                   3246 ;	assignBit
      000BC5 A2 00            [12] 3247 	mov	c,_BIT_TMP
      000BC7 92 AF            [24] 3248 	mov	_EA,c
                           000A44  3249 	Siap$Read_PID$329 ==.
                                   3250 ;	C:/BSP/MG51xC9AE_MG51xB9AE_Series/Library/StdDriver/src/iap.c:507: IAPAL = 0x02;
      000BC9 75 A6 02         [24] 3251 	mov	_IAPAL,#0x02
                           000A47  3252 	Siap$Read_PID$330 ==.
                                   3253 ;	C:/BSP/MG51xC9AE_MG51xB9AE_Series/Library/StdDriver/src/iap.c:508: IAPAH = 0x00;
      000BCC 75 A7 00         [24] 3254 	mov	_IAPAH,#0x00
                           000A4A  3255 	Siap$Read_PID$331 ==.
                                   3256 ;	C:/BSP/MG51xC9AE_MG51xB9AE_Series/Library/StdDriver/src/iap.c:509: IAPCN = READ_DID;
      000BCF 75 AF 0C         [24] 3257 	mov	_IAPCN,#0x0c
                           000A4D  3258 	Siap$Read_PID$332 ==.
                                   3259 ;	C:/BSP/MG51xC9AE_MG51xB9AE_Series/Library/StdDriver/src/iap.c:510: for(u8Count=0;u8Count<2;u8Count++)
      000BD2 7F 00            [12] 3260 	mov	r7,#0x00
      000BD4                       3261 00102$:
                           000A4F  3262 	Siap$Read_PID$333 ==.
                           000A4F  3263 	Siap$Read_PID$334 ==.
                                   3264 ;	C:/BSP/MG51xC9AE_MG51xB9AE_Series/Library/StdDriver/src/iap.c:512: IAPFD = 0x00;
      000BD4 75 AE 00         [24] 3265 	mov	_IAPFD,#0x00
                           000A52  3266 	Siap$Read_PID$335 ==.
                                   3267 ;	C:/BSP/MG51xC9AE_MG51xB9AE_Series/Library/StdDriver/src/iap.c:513: set_IAPTRG_IAPGO;
                                   3268 ;	assignBit
      000BD7 A2 AF            [12] 3269 	mov	c,_EA
      000BD9 92 00            [24] 3270 	mov	_BIT_TMP,c
                                   3271 ;	assignBit
      000BDB C2 AF            [12] 3272 	clr	_EA
      000BDD 75 C7 AA         [24] 3273 	mov	_TA,#0xaa
      000BE0 75 C7 55         [24] 3274 	mov	_TA,#0x55
      000BE3 43 A4 01         [24] 3275 	orl	_IAPTRG,#0x01
                                   3276 ;	assignBit
      000BE6 A2 00            [12] 3277 	mov	c,_BIT_TMP
      000BE8 92 AF            [24] 3278 	mov	_EA,c
                           000A65  3279 	Siap$Read_PID$336 ==.
                                   3280 ;	C:/BSP/MG51xC9AE_MG51xB9AE_Series/Library/StdDriver/src/iap.c:514: PIDBuffer[u8Count] = IAPFD ;
      000BEA EF               [12] 3281 	mov	a,r7
      000BEB 24 09            [12] 3282 	add	a,#_PIDBuffer
      000BED F5 82            [12] 3283 	mov	dpl,a
      000BEF E4               [12] 3284 	clr	a
      000BF0 34 00            [12] 3285 	addc	a,#(_PIDBuffer >> 8)
      000BF2 F5 83            [12] 3286 	mov	dph,a
      000BF4 E5 AE            [12] 3287 	mov	a,_IAPFD
      000BF6 F0               [24] 3288 	movx	@dptr,a
                           000A72  3289 	Siap$Read_PID$337 ==.
                                   3290 ;	C:/BSP/MG51xC9AE_MG51xB9AE_Series/Library/StdDriver/src/iap.c:515: IAPAL++;
      000BF7 E5 A6            [12] 3291 	mov	a,_IAPAL
      000BF9 04               [12] 3292 	inc	a
      000BFA F5 A6            [12] 3293 	mov	_IAPAL,a
                           000A77  3294 	Siap$Read_PID$338 ==.
                           000A77  3295 	Siap$Read_PID$339 ==.
                                   3296 ;	C:/BSP/MG51xC9AE_MG51xB9AE_Series/Library/StdDriver/src/iap.c:510: for(u8Count=0;u8Count<2;u8Count++)
      000BFC 0F               [12] 3297 	inc	r7
      000BFD BF 02 00         [24] 3298 	cjne	r7,#0x02,00115$
      000C00                       3299 00115$:
      000C00 40 D2            [24] 3300 	jc	00102$
                           000A7D  3301 	Siap$Read_PID$340 ==.
                                   3302 ;	C:/BSP/MG51xC9AE_MG51xB9AE_Series/Library/StdDriver/src/iap.c:517: clr_CHPCON_IAPEN;
                                   3303 ;	assignBit
      000C02 A2 AF            [12] 3304 	mov	c,_EA
      000C04 92 00            [24] 3305 	mov	_BIT_TMP,c
                                   3306 ;	assignBit
      000C06 C2 AF            [12] 3307 	clr	_EA
      000C08 75 C7 AA         [24] 3308 	mov	_TA,#0xaa
      000C0B 75 C7 55         [24] 3309 	mov	_TA,#0x55
      000C0E 53 9F FE         [24] 3310 	anl	_CHPCON,#0xfe
                                   3311 ;	assignBit
      000C11 A2 00            [12] 3312 	mov	c,_BIT_TMP
      000C13 92 AF            [24] 3313 	mov	_EA,c
                           000A90  3314 	Siap$Read_PID$341 ==.
                                   3315 ;	C:/BSP/MG51xC9AE_MG51xB9AE_Series/Library/StdDriver/src/iap.c:518: }
                           000A90  3316 	Siap$Read_PID$342 ==.
                           000A90  3317 	XG$Read_PID$0$0 ==.
      000C15 22               [24] 3318 	ret
                           000A91  3319 	Siap$Read_PID$343 ==.
                                   3320 	.area CSEG    (CODE)
                                   3321 	.area CONST   (CODE)
                                   3322 	.area XINIT   (CODE)
                                   3323 	.area INITIALIZER
                                   3324 	.area CABS    (ABS,CODE)
                                   3325 
                                   3326 	.area .debug_line (NOLOAD)
      00027C 00 00 07 32           3327 	.dw	0,Ldebug_line_end-Ldebug_line_start
      000280                       3328 Ldebug_line_start:
      000280 00 02                 3329 	.dw	2
      000282 00 00 00 6F           3330 	.dw	0,Ldebug_line_stmt-6-Ldebug_line_start
      000286 01                    3331 	.db	1
      000287 01                    3332 	.db	1
      000288 FB                    3333 	.db	-5
      000289 0F                    3334 	.db	15
      00028A 0A                    3335 	.db	10
      00028B 00                    3336 	.db	0
      00028C 01                    3337 	.db	1
      00028D 01                    3338 	.db	1
      00028E 01                    3339 	.db	1
      00028F 01                    3340 	.db	1
      000290 00                    3341 	.db	0
      000291 00                    3342 	.db	0
      000292 00                    3343 	.db	0
      000293 01                    3344 	.db	1
      000294 2F 2E 2E 2F 69 6E 63  3345 	.ascii "/../include/mcs51"
             6C 75 64 65 2F 6D 63
             73 35 31
      0002A5 00                    3346 	.db	0
      0002A6 2F 2E 2E 2F 69 6E 63  3347 	.ascii "/../include"
             6C 75 64 65
      0002B1 00                    3348 	.db	0
      0002B2 00                    3349 	.db	0
      0002B3 43 3A 2F 42 53 50 2F  3350 	.ascii "C:/BSP/MG51xC9AE_MG51xB9AE_Series/Library/StdDriver/src/iap.c"
             4D 47 35 31 78 43 39
             41 45 5F 4D 47 35 31
             78 42 39 41 45 5F 53
             65 72 69 65 73 2F 4C
             69 62 72 61 72 79 2F
             53 74 64 44 72 69 76
             65 72 2F 73 72 63 2F
             69 61 70 2E 63
      0002F0 00                    3351 	.db	0
      0002F1 00                    3352 	.uleb128	0
      0002F2 00                    3353 	.uleb128	0
      0002F3 00                    3354 	.uleb128	0
      0002F4 00                    3355 	.db	0
      0002F5                       3356 Ldebug_line_stmt:
      0002F5 00                    3357 	.db	0
      0002F6 05                    3358 	.uleb128	5
      0002F7 02                    3359 	.db	2
      0002F8 00 00 01 85           3360 	.dw	0,(Siap$Erase_LDROM$0)
      0002FC 03                    3361 	.db	3
      0002FD 2D                    3362 	.sleb128	45
      0002FE 01                    3363 	.db	1
      0002FF 09                    3364 	.db	9
      000300 00 0B                 3365 	.dw	Siap$Erase_LDROM$2-Siap$Erase_LDROM$0
      000302 03                    3366 	.db	3
      000303 04                    3367 	.sleb128	4
      000304 01                    3368 	.db	1
      000305 09                    3369 	.db	9
      000306 00 13                 3370 	.dw	Siap$Erase_LDROM$3-Siap$Erase_LDROM$2
      000308 03                    3371 	.db	3
      000309 01                    3372 	.sleb128	1
      00030A 01                    3373 	.db	1
      00030B 09                    3374 	.db	9
      00030C 00 13                 3375 	.dw	Siap$Erase_LDROM$4-Siap$Erase_LDROM$3
      00030E 03                    3376 	.db	3
      00030F 01                    3377 	.sleb128	1
      000310 01                    3378 	.db	1
      000311 09                    3379 	.db	9
      000312 00 03                 3380 	.dw	Siap$Erase_LDROM$5-Siap$Erase_LDROM$4
      000314 03                    3381 	.db	3
      000315 01                    3382 	.sleb128	1
      000316 01                    3383 	.db	1
      000317 09                    3384 	.db	9
      000318 00 03                 3385 	.dw	Siap$Erase_LDROM$7-Siap$Erase_LDROM$5
      00031A 03                    3386 	.db	3
      00031B 01                    3387 	.sleb128	1
      00031C 01                    3388 	.db	1
      00031D 09                    3389 	.db	9
      00031E 00 30                 3390 	.dw	Siap$Erase_LDROM$9-Siap$Erase_LDROM$7
      000320 03                    3391 	.db	3
      000321 02                    3392 	.sleb128	2
      000322 01                    3393 	.db	1
      000323 09                    3394 	.db	9
      000324 00 0F                 3395 	.dw	Siap$Erase_LDROM$10-Siap$Erase_LDROM$9
      000326 03                    3396 	.db	3
      000327 01                    3397 	.sleb128	1
      000328 01                    3398 	.db	1
      000329 09                    3399 	.db	9
      00032A 00 15                 3400 	.dw	Siap$Erase_LDROM$11-Siap$Erase_LDROM$10
      00032C 03                    3401 	.db	3
      00032D 01                    3402 	.sleb128	1
      00032E 01                    3403 	.db	1
      00032F 09                    3404 	.db	9
      000330 00 24                 3405 	.dw	Siap$Erase_LDROM$12-Siap$Erase_LDROM$11
      000332 03                    3406 	.db	3
      000333 7C                    3407 	.sleb128	-4
      000334 01                    3408 	.db	1
      000335 09                    3409 	.db	9
      000336 00 07                 3410 	.dw	Siap$Erase_LDROM$13-Siap$Erase_LDROM$12
      000338 03                    3411 	.db	3
      000339 06                    3412 	.sleb128	6
      00033A 01                    3413 	.db	1
      00033B 09                    3414 	.db	9
      00033C 00 13                 3415 	.dw	Siap$Erase_LDROM$14-Siap$Erase_LDROM$13
      00033E 03                    3416 	.db	3
      00033F 01                    3417 	.sleb128	1
      000340 01                    3418 	.db	1
      000341 09                    3419 	.db	9
      000342 00 13                 3420 	.dw	Siap$Erase_LDROM$15-Siap$Erase_LDROM$14
      000344 03                    3421 	.db	3
      000345 01                    3422 	.sleb128	1
      000346 01                    3423 	.db	1
      000347 09                    3424 	.db	9
      000348 00 01                 3425 	.dw	1+Siap$Erase_LDROM$16-Siap$Erase_LDROM$15
      00034A 00                    3426 	.db	0
      00034B 01                    3427 	.uleb128	1
      00034C 01                    3428 	.db	1
      00034D 00                    3429 	.db	0
      00034E 05                    3430 	.uleb128	5
      00034F 02                    3431 	.db	2
      000350 00 00 02 62           3432 	.dw	0,(Siap$Erase_Verify_LDROM$18)
      000354 03                    3433 	.db	3
      000355 C7 00                 3434 	.sleb128	71
      000357 01                    3435 	.db	1
      000358 09                    3436 	.db	9
      000359 00 0B                 3437 	.dw	Siap$Erase_Verify_LDROM$20-Siap$Erase_Verify_LDROM$18
      00035B 03                    3438 	.db	3
      00035C 03                    3439 	.sleb128	3
      00035D 01                    3440 	.db	1
      00035E 09                    3441 	.db	9
      00035F 00 13                 3442 	.dw	Siap$Erase_Verify_LDROM$21-Siap$Erase_Verify_LDROM$20
      000361 03                    3443 	.db	3
      000362 01                    3444 	.sleb128	1
      000363 01                    3445 	.db	1
      000364 09                    3446 	.db	9
      000365 00 0A                 3447 	.dw	Siap$Erase_Verify_LDROM$22-Siap$Erase_Verify_LDROM$21
      000367 03                    3448 	.db	3
      000368 01                    3449 	.sleb128	1
      000369 01                    3450 	.db	1
      00036A 09                    3451 	.db	9
      00036B 00 02                 3452 	.dw	Siap$Erase_Verify_LDROM$23-Siap$Erase_Verify_LDROM$22
      00036D 03                    3453 	.db	3
      00036E 01                    3454 	.sleb128	1
      00036F 01                    3455 	.db	1
      000370 09                    3456 	.db	9
      000371 00 03                 3457 	.dw	Siap$Erase_Verify_LDROM$24-Siap$Erase_Verify_LDROM$23
      000373 03                    3458 	.db	3
      000374 02                    3459 	.sleb128	2
      000375 01                    3460 	.db	1
      000376 09                    3461 	.db	9
      000377 00 13                 3462 	.dw	Siap$Erase_Verify_LDROM$26-Siap$Erase_Verify_LDROM$24
      000379 03                    3463 	.db	3
      00037A 02                    3464 	.sleb128	2
      00037B 01                    3465 	.db	1
      00037C 09                    3466 	.db	9
      00037D 00 03                 3467 	.dw	Siap$Erase_Verify_LDROM$27-Siap$Erase_Verify_LDROM$26
      00037F 03                    3468 	.db	3
      000380 01                    3469 	.sleb128	1
      000381 01                    3470 	.db	1
      000382 09                    3471 	.db	9
      000383 00 13                 3472 	.dw	Siap$Erase_Verify_LDROM$28-Siap$Erase_Verify_LDROM$27
      000385 03                    3473 	.db	3
      000386 01                    3474 	.sleb128	1
      000387 01                    3475 	.db	1
      000388 09                    3476 	.db	9
      000389 00 07                 3477 	.dw	Siap$Erase_Verify_LDROM$29-Siap$Erase_Verify_LDROM$28
      00038B 03                    3478 	.db	3
      00038C 01                    3479 	.sleb128	1
      00038D 01                    3480 	.db	1
      00038E 09                    3481 	.db	9
      00038F 00 02                 3482 	.dw	Siap$Erase_Verify_LDROM$30-Siap$Erase_Verify_LDROM$29
      000391 03                    3483 	.db	3
      000392 01                    3484 	.sleb128	1
      000393 01                    3485 	.db	1
      000394 09                    3486 	.db	9
      000395 00 05                 3487 	.dw	Siap$Erase_Verify_LDROM$31-Siap$Erase_Verify_LDROM$30
      000397 03                    3488 	.db	3
      000398 01                    3489 	.sleb128	1
      000399 01                    3490 	.db	1
      00039A 09                    3491 	.db	9
      00039B 00 04                 3492 	.dw	Siap$Erase_Verify_LDROM$32-Siap$Erase_Verify_LDROM$31
      00039D 03                    3493 	.db	3
      00039E 01                    3494 	.sleb128	1
      00039F 01                    3495 	.db	1
      0003A0 09                    3496 	.db	9
      0003A1 00 05                 3497 	.dw	Siap$Erase_Verify_LDROM$34-Siap$Erase_Verify_LDROM$32
      0003A3 03                    3498 	.db	3
      0003A4 78                    3499 	.sleb128	-8
      0003A5 01                    3500 	.db	1
      0003A6 09                    3501 	.db	9
      0003A7 00 07                 3502 	.dw	Siap$Erase_Verify_LDROM$35-Siap$Erase_Verify_LDROM$34
      0003A9 03                    3503 	.db	3
      0003AA 0A                    3504 	.sleb128	10
      0003AB 01                    3505 	.db	1
      0003AC 09                    3506 	.db	9
      0003AD 00 13                 3507 	.dw	Siap$Erase_Verify_LDROM$36-Siap$Erase_Verify_LDROM$35
      0003AF 03                    3508 	.db	3
      0003B0 01                    3509 	.sleb128	1
      0003B1 01                    3510 	.db	1
      0003B2 09                    3511 	.db	9
      0003B3 00 01                 3512 	.dw	1+Siap$Erase_Verify_LDROM$37-Siap$Erase_Verify_LDROM$36
      0003B5 00                    3513 	.db	0
      0003B6 01                    3514 	.uleb128	1
      0003B7 01                    3515 	.db	1
      0003B8 00                    3516 	.db	0
      0003B9 05                    3517 	.uleb128	5
      0003BA 02                    3518 	.db	2
      0003BB 00 00 02 EA           3519 	.dw	0,(Siap$Program_LDROM$39)
      0003BF 03                    3520 	.db	3
      0003C0 E4 00                 3521 	.sleb128	100
      0003C2 01                    3522 	.db	1
      0003C3 09                    3523 	.db	9
      0003C4 00 0B                 3524 	.dw	Siap$Program_LDROM$41-Siap$Program_LDROM$39
      0003C6 03                    3525 	.db	3
      0003C7 04                    3526 	.sleb128	4
      0003C8 01                    3527 	.db	1
      0003C9 09                    3528 	.db	9
      0003CA 00 13                 3529 	.dw	Siap$Program_LDROM$42-Siap$Program_LDROM$41
      0003CC 03                    3530 	.db	3
      0003CD 01                    3531 	.sleb128	1
      0003CE 01                    3532 	.db	1
      0003CF 09                    3533 	.db	9
      0003D0 00 13                 3534 	.dw	Siap$Program_LDROM$43-Siap$Program_LDROM$42
      0003D2 03                    3535 	.db	3
      0003D3 01                    3536 	.sleb128	1
      0003D4 01                    3537 	.db	1
      0003D5 09                    3538 	.db	9
      0003D6 00 0A                 3539 	.dw	Siap$Program_LDROM$44-Siap$Program_LDROM$43
      0003D8 03                    3540 	.db	3
      0003D9 01                    3541 	.sleb128	1
      0003DA 01                    3542 	.db	1
      0003DB 09                    3543 	.db	9
      0003DC 00 02                 3544 	.dw	Siap$Program_LDROM$45-Siap$Program_LDROM$44
      0003DE 03                    3545 	.db	3
      0003DF 01                    3546 	.sleb128	1
      0003E0 01                    3547 	.db	1
      0003E1 09                    3548 	.db	9
      0003E2 00 03                 3549 	.dw	Siap$Program_LDROM$46-Siap$Program_LDROM$45
      0003E4 03                    3550 	.db	3
      0003E5 02                    3551 	.sleb128	2
      0003E6 01                    3552 	.db	1
      0003E7 09                    3553 	.db	9
      0003E8 00 13                 3554 	.dw	Siap$Program_LDROM$48-Siap$Program_LDROM$46
      0003EA 03                    3555 	.db	3
      0003EB 02                    3556 	.sleb128	2
      0003EC 01                    3557 	.db	1
      0003ED 09                    3558 	.db	9
      0003EE 00 0D                 3559 	.dw	Siap$Program_LDROM$49-Siap$Program_LDROM$48
      0003F0 03                    3560 	.db	3
      0003F1 01                    3561 	.sleb128	1
      0003F2 01                    3562 	.db	1
      0003F3 09                    3563 	.db	9
      0003F4 00 24                 3564 	.dw	Siap$Program_LDROM$50-Siap$Program_LDROM$49
      0003F6 03                    3565 	.db	3
      0003F7 01                    3566 	.sleb128	1
      0003F8 01                    3567 	.db	1
      0003F9 09                    3568 	.db	9
      0003FA 00 05                 3569 	.dw	Siap$Program_LDROM$51-Siap$Program_LDROM$50
      0003FC 03                    3570 	.db	3
      0003FD 01                    3571 	.sleb128	1
      0003FE 01                    3572 	.db	1
      0003FF 09                    3573 	.db	9
      000400 00 04                 3574 	.dw	Siap$Program_LDROM$53-Siap$Program_LDROM$51
      000402 03                    3575 	.db	3
      000403 02                    3576 	.sleb128	2
      000404 01                    3577 	.db	1
      000405 09                    3578 	.db	9
      000406 00 05                 3579 	.dw	Siap$Program_LDROM$56-Siap$Program_LDROM$53
      000408 03                    3580 	.db	3
      000409 79                    3581 	.sleb128	-7
      00040A 01                    3582 	.db	1
      00040B 09                    3583 	.db	9
      00040C 00 07                 3584 	.dw	Siap$Program_LDROM$57-Siap$Program_LDROM$56
      00040E 03                    3585 	.db	3
      00040F 0A                    3586 	.sleb128	10
      000410 01                    3587 	.db	1
      000411 09                    3588 	.db	9
      000412 00 13                 3589 	.dw	Siap$Program_LDROM$58-Siap$Program_LDROM$57
      000414 03                    3590 	.db	3
      000415 01                    3591 	.sleb128	1
      000416 01                    3592 	.db	1
      000417 09                    3593 	.db	9
      000418 00 13                 3594 	.dw	Siap$Program_LDROM$59-Siap$Program_LDROM$58
      00041A 03                    3595 	.db	3
      00041B 01                    3596 	.sleb128	1
      00041C 01                    3597 	.db	1
      00041D 09                    3598 	.db	9
      00041E 00 01                 3599 	.dw	1+Siap$Program_LDROM$60-Siap$Program_LDROM$59
      000420 00                    3600 	.db	0
      000421 01                    3601 	.uleb128	1
      000422 01                    3602 	.db	1
      000423 00                    3603 	.db	0
      000424 05                    3604 	.uleb128	5
      000425 02                    3605 	.db	2
      000426 00 00 03 AA           3606 	.dw	0,(Siap$Program_Verify_LDROM$62)
      00042A 03                    3607 	.db	3
      00042B 85 01                 3608 	.sleb128	133
      00042D 01                    3609 	.db	1
      00042E 09                    3610 	.db	9
      00042F 00 0B                 3611 	.dw	Siap$Program_Verify_LDROM$64-Siap$Program_Verify_LDROM$62
      000431 03                    3612 	.db	3
      000432 04                    3613 	.sleb128	4
      000433 01                    3614 	.db	1
      000434 09                    3615 	.db	9
      000435 00 13                 3616 	.dw	Siap$Program_Verify_LDROM$65-Siap$Program_Verify_LDROM$64
      000437 03                    3617 	.db	3
      000438 01                    3618 	.sleb128	1
      000439 01                    3619 	.db	1
      00043A 09                    3620 	.db	9
      00043B 00 0A                 3621 	.dw	Siap$Program_Verify_LDROM$66-Siap$Program_Verify_LDROM$65
      00043D 03                    3622 	.db	3
      00043E 01                    3623 	.sleb128	1
      00043F 01                    3624 	.db	1
      000440 09                    3625 	.db	9
      000441 00 02                 3626 	.dw	Siap$Program_Verify_LDROM$67-Siap$Program_Verify_LDROM$66
      000443 03                    3627 	.db	3
      000444 01                    3628 	.sleb128	1
      000445 01                    3629 	.db	1
      000446 09                    3630 	.db	9
      000447 00 03                 3631 	.dw	Siap$Program_Verify_LDROM$68-Siap$Program_Verify_LDROM$67
      000449 03                    3632 	.db	3
      00044A 01                    3633 	.sleb128	1
      00044B 01                    3634 	.db	1
      00044C 09                    3635 	.db	9
      00044D 00 13                 3636 	.dw	Siap$Program_Verify_LDROM$70-Siap$Program_Verify_LDROM$68
      00044F 03                    3637 	.db	3
      000450 02                    3638 	.sleb128	2
      000451 01                    3639 	.db	1
      000452 09                    3640 	.db	9
      000453 00 03                 3641 	.dw	Siap$Program_Verify_LDROM$71-Siap$Program_Verify_LDROM$70
      000455 03                    3642 	.db	3
      000456 01                    3643 	.sleb128	1
      000457 01                    3644 	.db	1
      000458 09                    3645 	.db	9
      000459 00 13                 3646 	.dw	Siap$Program_Verify_LDROM$72-Siap$Program_Verify_LDROM$71
      00045B 03                    3647 	.db	3
      00045C 01                    3648 	.sleb128	1
      00045D 01                    3649 	.db	1
      00045E 09                    3650 	.db	9
      00045F 00 11                 3651 	.dw	Siap$Program_Verify_LDROM$73-Siap$Program_Verify_LDROM$72
      000461 03                    3652 	.db	3
      000462 01                    3653 	.sleb128	1
      000463 01                    3654 	.db	1
      000464 09                    3655 	.db	9
      000465 00 02                 3656 	.dw	Siap$Program_Verify_LDROM$74-Siap$Program_Verify_LDROM$73
      000467 03                    3657 	.db	3
      000468 01                    3658 	.sleb128	1
      000469 01                    3659 	.db	1
      00046A 09                    3660 	.db	9
      00046B 00 05                 3661 	.dw	Siap$Program_Verify_LDROM$75-Siap$Program_Verify_LDROM$74
      00046D 03                    3662 	.db	3
      00046E 01                    3663 	.sleb128	1
      00046F 01                    3664 	.db	1
      000470 09                    3665 	.db	9
      000471 00 04                 3666 	.dw	Siap$Program_Verify_LDROM$77-Siap$Program_Verify_LDROM$75
      000473 03                    3667 	.db	3
      000474 02                    3668 	.sleb128	2
      000475 01                    3669 	.db	1
      000476 09                    3670 	.db	9
      000477 00 05                 3671 	.dw	Siap$Program_Verify_LDROM$80-Siap$Program_Verify_LDROM$77
      000479 03                    3672 	.db	3
      00047A 77                    3673 	.sleb128	-9
      00047B 01                    3674 	.db	1
      00047C 09                    3675 	.db	9
      00047D 00 07                 3676 	.dw	Siap$Program_Verify_LDROM$81-Siap$Program_Verify_LDROM$80
      00047F 03                    3677 	.db	3
      000480 0C                    3678 	.sleb128	12
      000481 01                    3679 	.db	1
      000482 09                    3680 	.db	9
      000483 00 13                 3681 	.dw	Siap$Program_Verify_LDROM$82-Siap$Program_Verify_LDROM$81
      000485 03                    3682 	.db	3
      000486 01                    3683 	.sleb128	1
      000487 01                    3684 	.db	1
      000488 09                    3685 	.db	9
      000489 00 01                 3686 	.dw	1+Siap$Program_Verify_LDROM$83-Siap$Program_Verify_LDROM$82
      00048B 00                    3687 	.db	0
      00048C 01                    3688 	.uleb128	1
      00048D 01                    3689 	.db	1
      00048E 00                    3690 	.db	0
      00048F 05                    3691 	.uleb128	5
      000490 02                    3692 	.db	2
      000491 00 00 04 3C           3693 	.dw	0,(Siap$Erase_APROM$85)
      000495 03                    3694 	.db	3
      000496 A4 01                 3695 	.sleb128	164
      000498 01                    3696 	.db	1
      000499 09                    3697 	.db	9
      00049A 00 0B                 3698 	.dw	Siap$Erase_APROM$87-Siap$Erase_APROM$85
      00049C 03                    3699 	.db	3
      00049D 04                    3700 	.sleb128	4
      00049E 01                    3701 	.db	1
      00049F 09                    3702 	.db	9
      0004A0 00 13                 3703 	.dw	Siap$Erase_APROM$88-Siap$Erase_APROM$87
      0004A2 03                    3704 	.db	3
      0004A3 01                    3705 	.sleb128	1
      0004A4 01                    3706 	.db	1
      0004A5 09                    3707 	.db	9
      0004A6 00 13                 3708 	.dw	Siap$Erase_APROM$89-Siap$Erase_APROM$88
      0004A8 03                    3709 	.db	3
      0004A9 01                    3710 	.sleb128	1
      0004AA 01                    3711 	.db	1
      0004AB 09                    3712 	.db	9
      0004AC 00 03                 3713 	.dw	Siap$Erase_APROM$90-Siap$Erase_APROM$89
      0004AE 03                    3714 	.db	3
      0004AF 01                    3715 	.sleb128	1
      0004B0 01                    3716 	.db	1
      0004B1 09                    3717 	.db	9
      0004B2 00 03                 3718 	.dw	Siap$Erase_APROM$92-Siap$Erase_APROM$90
      0004B4 03                    3719 	.db	3
      0004B5 01                    3720 	.sleb128	1
      0004B6 01                    3721 	.db	1
      0004B7 09                    3722 	.db	9
      0004B8 00 30                 3723 	.dw	Siap$Erase_APROM$94-Siap$Erase_APROM$92
      0004BA 03                    3724 	.db	3
      0004BB 02                    3725 	.sleb128	2
      0004BC 01                    3726 	.db	1
      0004BD 09                    3727 	.db	9
      0004BE 00 0F                 3728 	.dw	Siap$Erase_APROM$95-Siap$Erase_APROM$94
      0004C0 03                    3729 	.db	3
      0004C1 01                    3730 	.sleb128	1
      0004C2 01                    3731 	.db	1
      0004C3 09                    3732 	.db	9
      0004C4 00 15                 3733 	.dw	Siap$Erase_APROM$96-Siap$Erase_APROM$95
      0004C6 03                    3734 	.db	3
      0004C7 01                    3735 	.sleb128	1
      0004C8 01                    3736 	.db	1
      0004C9 09                    3737 	.db	9
      0004CA 00 24                 3738 	.dw	Siap$Erase_APROM$97-Siap$Erase_APROM$96
      0004CC 03                    3739 	.db	3
      0004CD 7C                    3740 	.sleb128	-4
      0004CE 01                    3741 	.db	1
      0004CF 09                    3742 	.db	9
      0004D0 00 07                 3743 	.dw	Siap$Erase_APROM$98-Siap$Erase_APROM$97
      0004D2 03                    3744 	.db	3
      0004D3 06                    3745 	.sleb128	6
      0004D4 01                    3746 	.db	1
      0004D5 09                    3747 	.db	9
      0004D6 00 13                 3748 	.dw	Siap$Erase_APROM$99-Siap$Erase_APROM$98
      0004D8 03                    3749 	.db	3
      0004D9 01                    3750 	.sleb128	1
      0004DA 01                    3751 	.db	1
      0004DB 09                    3752 	.db	9
      0004DC 00 13                 3753 	.dw	Siap$Erase_APROM$100-Siap$Erase_APROM$99
      0004DE 03                    3754 	.db	3
      0004DF 01                    3755 	.sleb128	1
      0004E0 01                    3756 	.db	1
      0004E1 09                    3757 	.db	9
      0004E2 00 01                 3758 	.dw	1+Siap$Erase_APROM$101-Siap$Erase_APROM$100
      0004E4 00                    3759 	.db	0
      0004E5 01                    3760 	.uleb128	1
      0004E6 01                    3761 	.db	1
      0004E7 00                    3762 	.db	0
      0004E8 05                    3763 	.uleb128	5
      0004E9 02                    3764 	.db	2
      0004EA 00 00 05 19           3765 	.dw	0,(Siap$Erase_Verify_APROM$103)
      0004EE 03                    3766 	.db	3
      0004EF BE 01                 3767 	.sleb128	190
      0004F1 01                    3768 	.db	1
      0004F2 09                    3769 	.db	9
      0004F3 00 0B                 3770 	.dw	Siap$Erase_Verify_APROM$105-Siap$Erase_Verify_APROM$103
      0004F5 03                    3771 	.db	3
      0004F6 04                    3772 	.sleb128	4
      0004F7 01                    3773 	.db	1
      0004F8 09                    3774 	.db	9
      0004F9 00 13                 3775 	.dw	Siap$Erase_Verify_APROM$106-Siap$Erase_Verify_APROM$105
      0004FB 03                    3776 	.db	3
      0004FC 01                    3777 	.sleb128	1
      0004FD 01                    3778 	.db	1
      0004FE 09                    3779 	.db	9
      0004FF 00 0A                 3780 	.dw	Siap$Erase_Verify_APROM$107-Siap$Erase_Verify_APROM$106
      000501 03                    3781 	.db	3
      000502 01                    3782 	.sleb128	1
      000503 01                    3783 	.db	1
      000504 09                    3784 	.db	9
      000505 00 02                 3785 	.dw	Siap$Erase_Verify_APROM$108-Siap$Erase_Verify_APROM$107
      000507 03                    3786 	.db	3
      000508 01                    3787 	.sleb128	1
      000509 01                    3788 	.db	1
      00050A 09                    3789 	.db	9
      00050B 00 03                 3790 	.dw	Siap$Erase_Verify_APROM$109-Siap$Erase_Verify_APROM$108
      00050D 03                    3791 	.db	3
      00050E 01                    3792 	.sleb128	1
      00050F 01                    3793 	.db	1
      000510 09                    3794 	.db	9
      000511 00 13                 3795 	.dw	Siap$Erase_Verify_APROM$111-Siap$Erase_Verify_APROM$109
      000513 03                    3796 	.db	3
      000514 02                    3797 	.sleb128	2
      000515 01                    3798 	.db	1
      000516 09                    3799 	.db	9
      000517 00 03                 3800 	.dw	Siap$Erase_Verify_APROM$112-Siap$Erase_Verify_APROM$111
      000519 03                    3801 	.db	3
      00051A 01                    3802 	.sleb128	1
      00051B 01                    3803 	.db	1
      00051C 09                    3804 	.db	9
      00051D 00 13                 3805 	.dw	Siap$Erase_Verify_APROM$113-Siap$Erase_Verify_APROM$112
      00051F 03                    3806 	.db	3
      000520 01                    3807 	.sleb128	1
      000521 01                    3808 	.db	1
      000522 09                    3809 	.db	9
      000523 00 07                 3810 	.dw	Siap$Erase_Verify_APROM$114-Siap$Erase_Verify_APROM$113
      000525 03                    3811 	.db	3
      000526 01                    3812 	.sleb128	1
      000527 01                    3813 	.db	1
      000528 09                    3814 	.db	9
      000529 00 02                 3815 	.dw	Siap$Erase_Verify_APROM$115-Siap$Erase_Verify_APROM$114
      00052B 03                    3816 	.db	3
      00052C 01                    3817 	.sleb128	1
      00052D 01                    3818 	.db	1
      00052E 09                    3819 	.db	9
      00052F 00 05                 3820 	.dw	Siap$Erase_Verify_APROM$116-Siap$Erase_Verify_APROM$115
      000531 03                    3821 	.db	3
      000532 01                    3822 	.sleb128	1
      000533 01                    3823 	.db	1
      000534 09                    3824 	.db	9
      000535 00 04                 3825 	.dw	Siap$Erase_Verify_APROM$117-Siap$Erase_Verify_APROM$116
      000537 03                    3826 	.db	3
      000538 01                    3827 	.sleb128	1
      000539 01                    3828 	.db	1
      00053A 09                    3829 	.db	9
      00053B 00 05                 3830 	.dw	Siap$Erase_Verify_APROM$119-Siap$Erase_Verify_APROM$117
      00053D 03                    3831 	.db	3
      00053E 78                    3832 	.sleb128	-8
      00053F 01                    3833 	.db	1
      000540 09                    3834 	.db	9
      000541 00 07                 3835 	.dw	Siap$Erase_Verify_APROM$120-Siap$Erase_Verify_APROM$119
      000543 03                    3836 	.db	3
      000544 0A                    3837 	.sleb128	10
      000545 01                    3838 	.db	1
      000546 09                    3839 	.db	9
      000547 00 13                 3840 	.dw	Siap$Erase_Verify_APROM$121-Siap$Erase_Verify_APROM$120
      000549 03                    3841 	.db	3
      00054A 01                    3842 	.sleb128	1
      00054B 01                    3843 	.db	1
      00054C 09                    3844 	.db	9
      00054D 00 01                 3845 	.dw	1+Siap$Erase_Verify_APROM$122-Siap$Erase_Verify_APROM$121
      00054F 00                    3846 	.db	0
      000550 01                    3847 	.uleb128	1
      000551 01                    3848 	.db	1
      000552 00                    3849 	.db	0
      000553 05                    3850 	.uleb128	5
      000554 02                    3851 	.db	2
      000555 00 00 05 A1           3852 	.dw	0,(Siap$Program_APROM$124)
      000559 03                    3853 	.db	3
      00055A DB 01                 3854 	.sleb128	219
      00055C 01                    3855 	.db	1
      00055D 09                    3856 	.db	9
      00055E 00 0B                 3857 	.dw	Siap$Program_APROM$126-Siap$Program_APROM$124
      000560 03                    3858 	.db	3
      000561 04                    3859 	.sleb128	4
      000562 01                    3860 	.db	1
      000563 09                    3861 	.db	9
      000564 00 13                 3862 	.dw	Siap$Program_APROM$127-Siap$Program_APROM$126
      000566 03                    3863 	.db	3
      000567 01                    3864 	.sleb128	1
      000568 01                    3865 	.db	1
      000569 09                    3866 	.db	9
      00056A 00 13                 3867 	.dw	Siap$Program_APROM$128-Siap$Program_APROM$127
      00056C 03                    3868 	.db	3
      00056D 01                    3869 	.sleb128	1
      00056E 01                    3870 	.db	1
      00056F 09                    3871 	.db	9
      000570 00 0A                 3872 	.dw	Siap$Program_APROM$129-Siap$Program_APROM$128
      000572 03                    3873 	.db	3
      000573 01                    3874 	.sleb128	1
      000574 01                    3875 	.db	1
      000575 09                    3876 	.db	9
      000576 00 02                 3877 	.dw	Siap$Program_APROM$130-Siap$Program_APROM$129
      000578 03                    3878 	.db	3
      000579 01                    3879 	.sleb128	1
      00057A 01                    3880 	.db	1
      00057B 09                    3881 	.db	9
      00057C 00 03                 3882 	.dw	Siap$Program_APROM$131-Siap$Program_APROM$130
      00057E 03                    3883 	.db	3
      00057F 01                    3884 	.sleb128	1
      000580 01                    3885 	.db	1
      000581 09                    3886 	.db	9
      000582 00 13                 3887 	.dw	Siap$Program_APROM$133-Siap$Program_APROM$131
      000584 03                    3888 	.db	3
      000585 02                    3889 	.sleb128	2
      000586 01                    3890 	.db	1
      000587 09                    3891 	.db	9
      000588 00 0D                 3892 	.dw	Siap$Program_APROM$134-Siap$Program_APROM$133
      00058A 03                    3893 	.db	3
      00058B 01                    3894 	.sleb128	1
      00058C 01                    3895 	.db	1
      00058D 09                    3896 	.db	9
      00058E 00 24                 3897 	.dw	Siap$Program_APROM$135-Siap$Program_APROM$134
      000590 03                    3898 	.db	3
      000591 01                    3899 	.sleb128	1
      000592 01                    3900 	.db	1
      000593 09                    3901 	.db	9
      000594 00 05                 3902 	.dw	Siap$Program_APROM$136-Siap$Program_APROM$135
      000596 03                    3903 	.db	3
      000597 01                    3904 	.sleb128	1
      000598 01                    3905 	.db	1
      000599 09                    3906 	.db	9
      00059A 00 04                 3907 	.dw	Siap$Program_APROM$138-Siap$Program_APROM$136
      00059C 03                    3908 	.db	3
      00059D 02                    3909 	.sleb128	2
      00059E 01                    3910 	.db	1
      00059F 09                    3911 	.db	9
      0005A0 00 05                 3912 	.dw	Siap$Program_APROM$141-Siap$Program_APROM$138
      0005A2 03                    3913 	.db	3
      0005A3 79                    3914 	.sleb128	-7
      0005A4 01                    3915 	.db	1
      0005A5 09                    3916 	.db	9
      0005A6 00 07                 3917 	.dw	Siap$Program_APROM$142-Siap$Program_APROM$141
      0005A8 03                    3918 	.db	3
      0005A9 0A                    3919 	.sleb128	10
      0005AA 01                    3920 	.db	1
      0005AB 09                    3921 	.db	9
      0005AC 00 13                 3922 	.dw	Siap$Program_APROM$143-Siap$Program_APROM$142
      0005AE 03                    3923 	.db	3
      0005AF 01                    3924 	.sleb128	1
      0005B0 01                    3925 	.db	1
      0005B1 09                    3926 	.db	9
      0005B2 00 13                 3927 	.dw	Siap$Program_APROM$144-Siap$Program_APROM$143
      0005B4 03                    3928 	.db	3
      0005B5 01                    3929 	.sleb128	1
      0005B6 01                    3930 	.db	1
      0005B7 09                    3931 	.db	9
      0005B8 00 01                 3932 	.dw	1+Siap$Program_APROM$145-Siap$Program_APROM$144
      0005BA 00                    3933 	.db	0
      0005BB 01                    3934 	.uleb128	1
      0005BC 01                    3935 	.db	1
      0005BD 00                    3936 	.db	0
      0005BE 05                    3937 	.uleb128	5
      0005BF 02                    3938 	.db	2
      0005C0 00 00 06 61           3939 	.dw	0,(Siap$Program_Verify_APROM$147)
      0005C4 03                    3940 	.db	3
      0005C5 FB 01                 3941 	.sleb128	251
      0005C7 01                    3942 	.db	1
      0005C8 09                    3943 	.db	9
      0005C9 00 0B                 3944 	.dw	Siap$Program_Verify_APROM$149-Siap$Program_Verify_APROM$147
      0005CB 03                    3945 	.db	3
      0005CC 04                    3946 	.sleb128	4
      0005CD 01                    3947 	.db	1
      0005CE 09                    3948 	.db	9
      0005CF 00 13                 3949 	.dw	Siap$Program_Verify_APROM$150-Siap$Program_Verify_APROM$149
      0005D1 03                    3950 	.db	3
      0005D2 01                    3951 	.sleb128	1
      0005D3 01                    3952 	.db	1
      0005D4 09                    3953 	.db	9
      0005D5 00 0A                 3954 	.dw	Siap$Program_Verify_APROM$151-Siap$Program_Verify_APROM$150
      0005D7 03                    3955 	.db	3
      0005D8 01                    3956 	.sleb128	1
      0005D9 01                    3957 	.db	1
      0005DA 09                    3958 	.db	9
      0005DB 00 02                 3959 	.dw	Siap$Program_Verify_APROM$152-Siap$Program_Verify_APROM$151
      0005DD 03                    3960 	.db	3
      0005DE 01                    3961 	.sleb128	1
      0005DF 01                    3962 	.db	1
      0005E0 09                    3963 	.db	9
      0005E1 00 03                 3964 	.dw	Siap$Program_Verify_APROM$153-Siap$Program_Verify_APROM$152
      0005E3 03                    3965 	.db	3
      0005E4 01                    3966 	.sleb128	1
      0005E5 01                    3967 	.db	1
      0005E6 09                    3968 	.db	9
      0005E7 00 13                 3969 	.dw	Siap$Program_Verify_APROM$155-Siap$Program_Verify_APROM$153
      0005E9 03                    3970 	.db	3
      0005EA 02                    3971 	.sleb128	2
      0005EB 01                    3972 	.db	1
      0005EC 09                    3973 	.db	9
      0005ED 00 03                 3974 	.dw	Siap$Program_Verify_APROM$156-Siap$Program_Verify_APROM$155
      0005EF 03                    3975 	.db	3
      0005F0 01                    3976 	.sleb128	1
      0005F1 01                    3977 	.db	1
      0005F2 09                    3978 	.db	9
      0005F3 00 13                 3979 	.dw	Siap$Program_Verify_APROM$157-Siap$Program_Verify_APROM$156
      0005F5 03                    3980 	.db	3
      0005F6 01                    3981 	.sleb128	1
      0005F7 01                    3982 	.db	1
      0005F8 09                    3983 	.db	9
      0005F9 00 11                 3984 	.dw	Siap$Program_Verify_APROM$158-Siap$Program_Verify_APROM$157
      0005FB 03                    3985 	.db	3
      0005FC 01                    3986 	.sleb128	1
      0005FD 01                    3987 	.db	1
      0005FE 09                    3988 	.db	9
      0005FF 00 02                 3989 	.dw	Siap$Program_Verify_APROM$159-Siap$Program_Verify_APROM$158
      000601 03                    3990 	.db	3
      000602 01                    3991 	.sleb128	1
      000603 01                    3992 	.db	1
      000604 09                    3993 	.db	9
      000605 00 05                 3994 	.dw	Siap$Program_Verify_APROM$160-Siap$Program_Verify_APROM$159
      000607 03                    3995 	.db	3
      000608 01                    3996 	.sleb128	1
      000609 01                    3997 	.db	1
      00060A 09                    3998 	.db	9
      00060B 00 04                 3999 	.dw	Siap$Program_Verify_APROM$162-Siap$Program_Verify_APROM$160
      00060D 03                    4000 	.db	3
      00060E 02                    4001 	.sleb128	2
      00060F 01                    4002 	.db	1
      000610 09                    4003 	.db	9
      000611 00 05                 4004 	.dw	Siap$Program_Verify_APROM$165-Siap$Program_Verify_APROM$162
      000613 03                    4005 	.db	3
      000614 77                    4006 	.sleb128	-9
      000615 01                    4007 	.db	1
      000616 09                    4008 	.db	9
      000617 00 07                 4009 	.dw	Siap$Program_Verify_APROM$166-Siap$Program_Verify_APROM$165
      000619 03                    4010 	.db	3
      00061A 0C                    4011 	.sleb128	12
      00061B 01                    4012 	.db	1
      00061C 09                    4013 	.db	9
      00061D 00 13                 4014 	.dw	Siap$Program_Verify_APROM$167-Siap$Program_Verify_APROM$166
      00061F 03                    4015 	.db	3
      000620 01                    4016 	.sleb128	1
      000621 01                    4017 	.db	1
      000622 09                    4018 	.db	9
      000623 00 01                 4019 	.dw	1+Siap$Program_Verify_APROM$168-Siap$Program_Verify_APROM$167
      000625 00                    4020 	.db	0
      000626 01                    4021 	.uleb128	1
      000627 01                    4022 	.db	1
      000628 00                    4023 	.db	0
      000629 05                    4024 	.uleb128	5
      00062A 02                    4025 	.db	2
      00062B 00 00 06 F3           4026 	.dw	0,(Siap$Modify_CONFIG$170)
      00062F 03                    4027 	.db	3
      000630 9C 02                 4028 	.sleb128	284
      000632 01                    4029 	.db	1
      000633 09                    4030 	.db	9
      000634 00 06                 4031 	.dw	Siap$Modify_CONFIG$172-Siap$Modify_CONFIG$170
      000636 03                    4032 	.db	3
      000637 04                    4033 	.sleb128	4
      000638 01                    4034 	.db	1
      000639 09                    4035 	.db	9
      00063A 00 08                 4036 	.dw	Siap$Modify_CONFIG$174-Siap$Modify_CONFIG$172
      00063C 03                    4037 	.db	3
      00063D 02                    4038 	.sleb128	2
      00063E 01                    4039 	.db	1
      00063F 09                    4040 	.db	9
      000640 00 02                 4041 	.dw	Siap$Modify_CONFIG$175-Siap$Modify_CONFIG$174
      000642 03                    4042 	.db	3
      000643 01                    4043 	.sleb128	1
      000644 01                    4044 	.db	1
      000645 09                    4045 	.db	9
      000646 00 02                 4046 	.dw	Siap$Modify_CONFIG$176-Siap$Modify_CONFIG$175
      000648 03                    4047 	.db	3
      000649 02                    4048 	.sleb128	2
      00064A 01                    4049 	.db	1
      00064B 09                    4050 	.db	9
      00064C 00 13                 4051 	.dw	Siap$Modify_CONFIG$177-Siap$Modify_CONFIG$176
      00064E 03                    4052 	.db	3
      00064F 01                    4053 	.sleb128	1
      000650 01                    4054 	.db	1
      000651 09                    4055 	.db	9
      000652 00 03                 4056 	.dw	Siap$Modify_CONFIG$178-Siap$Modify_CONFIG$177
      000654 03                    4057 	.db	3
      000655 01                    4058 	.sleb128	1
      000656 01                    4059 	.db	1
      000657 09                    4060 	.db	9
      000658 00 03                 4061 	.dw	Siap$Modify_CONFIG$179-Siap$Modify_CONFIG$178
      00065A 03                    4062 	.db	3
      00065B 02                    4063 	.sleb128	2
      00065C 01                    4064 	.db	1
      00065D 09                    4065 	.db	9
      00065E 00 03                 4066 	.dw	Siap$Modify_CONFIG$180-Siap$Modify_CONFIG$179
      000660 03                    4067 	.db	3
      000661 01                    4068 	.sleb128	1
      000662 01                    4069 	.db	1
      000663 09                    4070 	.db	9
      000664 00 13                 4071 	.dw	Siap$Modify_CONFIG$181-Siap$Modify_CONFIG$180
      000666 03                    4072 	.db	3
      000667 01                    4073 	.sleb128	1
      000668 01                    4074 	.db	1
      000669 09                    4075 	.db	9
      00066A 00 0D                 4076 	.dw	Siap$Modify_CONFIG$182-Siap$Modify_CONFIG$181
      00066C 03                    4077 	.db	3
      00066D 02                    4078 	.sleb128	2
      00066E 01                    4079 	.db	1
      00066F 09                    4080 	.db	9
      000670 00 05                 4081 	.dw	Siap$Modify_CONFIG$183-Siap$Modify_CONFIG$182
      000672 03                    4082 	.db	3
      000673 01                    4083 	.sleb128	1
      000674 01                    4084 	.db	1
      000675 09                    4085 	.db	9
      000676 00 13                 4086 	.dw	Siap$Modify_CONFIG$184-Siap$Modify_CONFIG$183
      000678 03                    4087 	.db	3
      000679 01                    4088 	.sleb128	1
      00067A 01                    4089 	.db	1
      00067B 09                    4090 	.db	9
      00067C 00 08                 4091 	.dw	Siap$Modify_CONFIG$185-Siap$Modify_CONFIG$184
      00067E 03                    4092 	.db	3
      00067F 02                    4093 	.sleb128	2
      000680 01                    4094 	.db	1
      000681 09                    4095 	.db	9
      000682 00 05                 4096 	.dw	Siap$Modify_CONFIG$186-Siap$Modify_CONFIG$185
      000684 03                    4097 	.db	3
      000685 01                    4098 	.sleb128	1
      000686 01                    4099 	.db	1
      000687 09                    4100 	.db	9
      000688 00 13                 4101 	.dw	Siap$Modify_CONFIG$187-Siap$Modify_CONFIG$186
      00068A 03                    4102 	.db	3
      00068B 01                    4103 	.sleb128	1
      00068C 01                    4104 	.db	1
      00068D 09                    4105 	.db	9
      00068E 00 08                 4106 	.dw	Siap$Modify_CONFIG$188-Siap$Modify_CONFIG$187
      000690 03                    4107 	.db	3
      000691 02                    4108 	.sleb128	2
      000692 01                    4109 	.db	1
      000693 09                    4110 	.db	9
      000694 00 05                 4111 	.dw	Siap$Modify_CONFIG$189-Siap$Modify_CONFIG$188
      000696 03                    4112 	.db	3
      000697 01                    4113 	.sleb128	1
      000698 01                    4114 	.db	1
      000699 09                    4115 	.db	9
      00069A 00 13                 4116 	.dw	Siap$Modify_CONFIG$190-Siap$Modify_CONFIG$189
      00069C 03                    4117 	.db	3
      00069D 01                    4118 	.sleb128	1
      00069E 01                    4119 	.db	1
      00069F 09                    4120 	.db	9
      0006A0 00 08                 4121 	.dw	Siap$Modify_CONFIG$191-Siap$Modify_CONFIG$190
      0006A2 03                    4122 	.db	3
      0006A3 02                    4123 	.sleb128	2
      0006A4 01                    4124 	.db	1
      0006A5 09                    4125 	.db	9
      0006A6 00 05                 4126 	.dw	Siap$Modify_CONFIG$192-Siap$Modify_CONFIG$191
      0006A8 03                    4127 	.db	3
      0006A9 01                    4128 	.sleb128	1
      0006AA 01                    4129 	.db	1
      0006AB 09                    4130 	.db	9
      0006AC 00 13                 4131 	.dw	Siap$Modify_CONFIG$193-Siap$Modify_CONFIG$192
      0006AE 03                    4132 	.db	3
      0006AF 01                    4133 	.sleb128	1
      0006B0 01                    4134 	.db	1
      0006B1 09                    4135 	.db	9
      0006B2 00 0B                 4136 	.dw	Siap$Modify_CONFIG$194-Siap$Modify_CONFIG$193
      0006B4 03                    4137 	.db	3
      0006B5 05                    4138 	.sleb128	5
      0006B6 01                    4139 	.db	1
      0006B7 09                    4140 	.db	9
      0006B8 00 00                 4141 	.dw	Siap$Modify_CONFIG$195-Siap$Modify_CONFIG$194
      0006BA 03                    4142 	.db	3
      0006BB 01                    4143 	.sleb128	1
      0006BC 01                    4144 	.db	1
      0006BD 09                    4145 	.db	9
      0006BE 00 02                 4146 	.dw	Siap$Modify_CONFIG$197-Siap$Modify_CONFIG$195
      0006C0 03                    4147 	.db	3
      0006C1 01                    4148 	.sleb128	1
      0006C2 01                    4149 	.db	1
      0006C3 09                    4150 	.db	9
      0006C4 00 02                 4151 	.dw	Siap$Modify_CONFIG$199-Siap$Modify_CONFIG$197
      0006C6 03                    4152 	.db	3
      0006C7 02                    4153 	.sleb128	2
      0006C8 01                    4154 	.db	1
      0006C9 09                    4155 	.db	9
      0006CA 00 02                 4156 	.dw	Siap$Modify_CONFIG$200-Siap$Modify_CONFIG$199
      0006CC 03                    4157 	.db	3
      0006CD 01                    4158 	.sleb128	1
      0006CE 01                    4159 	.db	1
      0006CF 09                    4160 	.db	9
      0006D0 00 13                 4161 	.dw	Siap$Modify_CONFIG$201-Siap$Modify_CONFIG$200
      0006D2 03                    4162 	.db	3
      0006D3 01                    4163 	.sleb128	1
      0006D4 01                    4164 	.db	1
      0006D5 09                    4165 	.db	9
      0006D6 00 0D                 4166 	.dw	Siap$Modify_CONFIG$203-Siap$Modify_CONFIG$201
      0006D8 03                    4167 	.db	3
      0006D9 7C                    4168 	.sleb128	-4
      0006DA 01                    4169 	.db	1
      0006DB 09                    4170 	.db	9
      0006DC 00 06                 4171 	.dw	Siap$Modify_CONFIG$204-Siap$Modify_CONFIG$203
      0006DE 03                    4172 	.db	3
      0006DF 07                    4173 	.sleb128	7
      0006E0 01                    4174 	.db	1
      0006E1 09                    4175 	.db	9
      0006E2 00 13                 4176 	.dw	Siap$Modify_CONFIG$205-Siap$Modify_CONFIG$204
      0006E4 03                    4177 	.db	3
      0006E5 01                    4178 	.sleb128	1
      0006E6 01                    4179 	.db	1
      0006E7 09                    4180 	.db	9
      0006E8 00 03                 4181 	.dw	Siap$Modify_CONFIG$206-Siap$Modify_CONFIG$205
      0006EA 03                    4182 	.db	3
      0006EB 01                    4183 	.sleb128	1
      0006EC 01                    4184 	.db	1
      0006ED 09                    4185 	.db	9
      0006EE 00 03                 4186 	.dw	Siap$Modify_CONFIG$207-Siap$Modify_CONFIG$206
      0006F0 03                    4187 	.db	3
      0006F1 01                    4188 	.sleb128	1
      0006F2 01                    4189 	.db	1
      0006F3 09                    4190 	.db	9
      0006F4 00 03                 4191 	.dw	Siap$Modify_CONFIG$208-Siap$Modify_CONFIG$207
      0006F6 03                    4192 	.db	3
      0006F7 01                    4193 	.sleb128	1
      0006F8 01                    4194 	.db	1
      0006F9 09                    4195 	.db	9
      0006FA 00 24                 4196 	.dw	Siap$Modify_CONFIG$209-Siap$Modify_CONFIG$208
      0006FC 03                    4197 	.db	3
      0006FD 02                    4198 	.sleb128	2
      0006FE 01                    4199 	.db	1
      0006FF 09                    4200 	.db	9
      000700 00 03                 4201 	.dw	Siap$Modify_CONFIG$210-Siap$Modify_CONFIG$209
      000702 03                    4202 	.db	3
      000703 01                    4203 	.sleb128	1
      000704 01                    4204 	.db	1
      000705 09                    4205 	.db	9
      000706 00 07                 4206 	.dw	Siap$Modify_CONFIG$211-Siap$Modify_CONFIG$210
      000708 03                    4207 	.db	3
      000709 01                    4208 	.sleb128	1
      00070A 01                    4209 	.db	1
      00070B 09                    4210 	.db	9
      00070C 00 24                 4211 	.dw	Siap$Modify_CONFIG$212-Siap$Modify_CONFIG$211
      00070E 03                    4212 	.db	3
      00070F 01                    4213 	.sleb128	1
      000710 01                    4214 	.db	1
      000711 09                    4215 	.db	9
      000712 00 05                 4216 	.dw	Siap$Modify_CONFIG$213-Siap$Modify_CONFIG$212
      000714 03                    4217 	.db	3
      000715 01                    4218 	.sleb128	1
      000716 01                    4219 	.db	1
      000717 09                    4220 	.db	9
      000718 00 07                 4221 	.dw	Siap$Modify_CONFIG$214-Siap$Modify_CONFIG$213
      00071A 03                    4222 	.db	3
      00071B 01                    4223 	.sleb128	1
      00071C 01                    4224 	.db	1
      00071D 09                    4225 	.db	9
      00071E 00 24                 4226 	.dw	Siap$Modify_CONFIG$215-Siap$Modify_CONFIG$214
      000720 03                    4227 	.db	3
      000721 01                    4228 	.sleb128	1
      000722 01                    4229 	.db	1
      000723 09                    4230 	.db	9
      000724 00 05                 4231 	.dw	Siap$Modify_CONFIG$216-Siap$Modify_CONFIG$215
      000726 03                    4232 	.db	3
      000727 01                    4233 	.sleb128	1
      000728 01                    4234 	.db	1
      000729 09                    4235 	.db	9
      00072A 00 07                 4236 	.dw	Siap$Modify_CONFIG$217-Siap$Modify_CONFIG$216
      00072C 03                    4237 	.db	3
      00072D 01                    4238 	.sleb128	1
      00072E 01                    4239 	.db	1
      00072F 09                    4240 	.db	9
      000730 00 24                 4241 	.dw	Siap$Modify_CONFIG$218-Siap$Modify_CONFIG$217
      000732 03                    4242 	.db	3
      000733 01                    4243 	.sleb128	1
      000734 01                    4244 	.db	1
      000735 09                    4245 	.db	9
      000736 00 05                 4246 	.dw	Siap$Modify_CONFIG$219-Siap$Modify_CONFIG$218
      000738 03                    4247 	.db	3
      000739 01                    4248 	.sleb128	1
      00073A 01                    4249 	.db	1
      00073B 09                    4250 	.db	9
      00073C 00 07                 4251 	.dw	Siap$Modify_CONFIG$220-Siap$Modify_CONFIG$219
      00073E 03                    4252 	.db	3
      00073F 01                    4253 	.sleb128	1
      000740 01                    4254 	.db	1
      000741 09                    4255 	.db	9
      000742 00 24                 4256 	.dw	Siap$Modify_CONFIG$221-Siap$Modify_CONFIG$220
      000744 03                    4257 	.db	3
      000745 01                    4258 	.sleb128	1
      000746 01                    4259 	.db	1
      000747 09                    4260 	.db	9
      000748 00 05                 4261 	.dw	Siap$Modify_CONFIG$222-Siap$Modify_CONFIG$221
      00074A 03                    4262 	.db	3
      00074B 01                    4263 	.sleb128	1
      00074C 01                    4264 	.db	1
      00074D 09                    4265 	.db	9
      00074E 00 07                 4266 	.dw	Siap$Modify_CONFIG$223-Siap$Modify_CONFIG$222
      000750 03                    4267 	.db	3
      000751 01                    4268 	.sleb128	1
      000752 01                    4269 	.db	1
      000753 09                    4270 	.db	9
      000754 00 24                 4271 	.dw	Siap$Modify_CONFIG$224-Siap$Modify_CONFIG$223
      000756 03                    4272 	.db	3
      000757 01                    4273 	.sleb128	1
      000758 01                    4274 	.db	1
      000759 09                    4275 	.db	9
      00075A 00 13                 4276 	.dw	Siap$Modify_CONFIG$225-Siap$Modify_CONFIG$224
      00075C 03                    4277 	.db	3
      00075D 02                    4278 	.sleb128	2
      00075E 01                    4279 	.db	1
      00075F 09                    4280 	.db	9
      000760 00 03                 4281 	.dw	Siap$Modify_CONFIG$226-Siap$Modify_CONFIG$225
      000762 03                    4282 	.db	3
      000763 01                    4283 	.sleb128	1
      000764 01                    4284 	.db	1
      000765 09                    4285 	.db	9
      000766 00 03                 4286 	.dw	Siap$Modify_CONFIG$227-Siap$Modify_CONFIG$226
      000768 03                    4287 	.db	3
      000769 01                    4288 	.sleb128	1
      00076A 01                    4289 	.db	1
      00076B 09                    4290 	.db	9
      00076C 00 13                 4291 	.dw	Siap$Modify_CONFIG$228-Siap$Modify_CONFIG$227
      00076E 03                    4292 	.db	3
      00076F 01                    4293 	.sleb128	1
      000770 01                    4294 	.db	1
      000771 09                    4295 	.db	9
      000772 00 09                 4296 	.dw	Siap$Modify_CONFIG$229-Siap$Modify_CONFIG$228
      000774 03                    4297 	.db	3
      000775 02                    4298 	.sleb128	2
      000776 01                    4299 	.db	1
      000777 09                    4300 	.db	9
      000778 00 05                 4301 	.dw	Siap$Modify_CONFIG$230-Siap$Modify_CONFIG$229
      00077A 03                    4302 	.db	3
      00077B 01                    4303 	.sleb128	1
      00077C 01                    4304 	.db	1
      00077D 09                    4305 	.db	9
      00077E 00 13                 4306 	.dw	Siap$Modify_CONFIG$231-Siap$Modify_CONFIG$230
      000780 03                    4307 	.db	3
      000781 01                    4308 	.sleb128	1
      000782 01                    4309 	.db	1
      000783 09                    4310 	.db	9
      000784 00 04                 4311 	.dw	Siap$Modify_CONFIG$232-Siap$Modify_CONFIG$231
      000786 03                    4312 	.db	3
      000787 02                    4313 	.sleb128	2
      000788 01                    4314 	.db	1
      000789 09                    4315 	.db	9
      00078A 00 05                 4316 	.dw	Siap$Modify_CONFIG$233-Siap$Modify_CONFIG$232
      00078C 03                    4317 	.db	3
      00078D 01                    4318 	.sleb128	1
      00078E 01                    4319 	.db	1
      00078F 09                    4320 	.db	9
      000790 00 13                 4321 	.dw	Siap$Modify_CONFIG$234-Siap$Modify_CONFIG$233
      000792 03                    4322 	.db	3
      000793 01                    4323 	.sleb128	1
      000794 01                    4324 	.db	1
      000795 09                    4325 	.db	9
      000796 00 04                 4326 	.dw	Siap$Modify_CONFIG$235-Siap$Modify_CONFIG$234
      000798 03                    4327 	.db	3
      000799 02                    4328 	.sleb128	2
      00079A 01                    4329 	.db	1
      00079B 09                    4330 	.db	9
      00079C 00 05                 4331 	.dw	Siap$Modify_CONFIG$236-Siap$Modify_CONFIG$235
      00079E 03                    4332 	.db	3
      00079F 01                    4333 	.sleb128	1
      0007A0 01                    4334 	.db	1
      0007A1 09                    4335 	.db	9
      0007A2 00 13                 4336 	.dw	Siap$Modify_CONFIG$237-Siap$Modify_CONFIG$236
      0007A4 03                    4337 	.db	3
      0007A5 01                    4338 	.sleb128	1
      0007A6 01                    4339 	.db	1
      0007A7 09                    4340 	.db	9
      0007A8 00 04                 4341 	.dw	Siap$Modify_CONFIG$238-Siap$Modify_CONFIG$237
      0007AA 03                    4342 	.db	3
      0007AB 02                    4343 	.sleb128	2
      0007AC 01                    4344 	.db	1
      0007AD 09                    4345 	.db	9
      0007AE 00 05                 4346 	.dw	Siap$Modify_CONFIG$239-Siap$Modify_CONFIG$238
      0007B0 03                    4347 	.db	3
      0007B1 01                    4348 	.sleb128	1
      0007B2 01                    4349 	.db	1
      0007B3 09                    4350 	.db	9
      0007B4 00 13                 4351 	.dw	Siap$Modify_CONFIG$240-Siap$Modify_CONFIG$239
      0007B6 03                    4352 	.db	3
      0007B7 01                    4353 	.sleb128	1
      0007B8 01                    4354 	.db	1
      0007B9 09                    4355 	.db	9
      0007BA 00 06                 4356 	.dw	Siap$Modify_CONFIG$241-Siap$Modify_CONFIG$240
      0007BC 03                    4357 	.db	3
      0007BD 04                    4358 	.sleb128	4
      0007BE 01                    4359 	.db	1
      0007BF 09                    4360 	.db	9
      0007C0 00 02                 4361 	.dw	Siap$Modify_CONFIG$243-Siap$Modify_CONFIG$241
      0007C2 03                    4362 	.db	3
      0007C3 02                    4363 	.sleb128	2
      0007C4 01                    4364 	.db	1
      0007C5 09                    4365 	.db	9
      0007C6 00 00                 4366 	.dw	Siap$Modify_CONFIG$244-Siap$Modify_CONFIG$243
      0007C8 03                    4367 	.db	3
      0007C9 01                    4368 	.sleb128	1
      0007CA 01                    4369 	.db	1
      0007CB 09                    4370 	.db	9
      0007CC 00 0F                 4371 	.dw	Siap$Modify_CONFIG$245-Siap$Modify_CONFIG$244
      0007CE 03                    4372 	.db	3
      0007CF 01                    4373 	.sleb128	1
      0007D0 01                    4374 	.db	1
      0007D1 09                    4375 	.db	9
      0007D2 00 24                 4376 	.dw	Siap$Modify_CONFIG$247-Siap$Modify_CONFIG$245
      0007D4 03                    4377 	.db	3
      0007D5 7C                    4378 	.sleb128	-4
      0007D6 01                    4379 	.db	1
      0007D7 09                    4380 	.db	9
      0007D8 00 06                 4381 	.dw	Siap$Modify_CONFIG$248-Siap$Modify_CONFIG$247
      0007DA 03                    4382 	.db	3
      0007DB 06                    4383 	.sleb128	6
      0007DC 01                    4384 	.db	1
      0007DD 09                    4385 	.db	9
      0007DE 00 00                 4386 	.dw	Siap$Modify_CONFIG$249-Siap$Modify_CONFIG$248
      0007E0 03                    4387 	.db	3
      0007E1 01                    4388 	.sleb128	1
      0007E2 01                    4389 	.db	1
      0007E3 09                    4390 	.db	9
      0007E4 00 13                 4391 	.dw	Siap$Modify_CONFIG$250-Siap$Modify_CONFIG$249
      0007E6 03                    4392 	.db	3
      0007E7 01                    4393 	.sleb128	1
      0007E8 01                    4394 	.db	1
      0007E9 09                    4395 	.db	9
      0007EA 00 13                 4396 	.dw	Siap$Modify_CONFIG$251-Siap$Modify_CONFIG$250
      0007EC 03                    4397 	.db	3
      0007ED 02                    4398 	.sleb128	2
      0007EE 01                    4399 	.db	1
      0007EF 09                    4400 	.db	9
      0007F0 00 04                 4401 	.dw	Siap$Modify_CONFIG$252-Siap$Modify_CONFIG$251
      0007F2 03                    4402 	.db	3
      0007F3 01                    4403 	.sleb128	1
      0007F4 01                    4404 	.db	1
      0007F5 09                    4405 	.db	9
      0007F6 00 03                 4406 	.dw	Siap$Modify_CONFIG$253-Siap$Modify_CONFIG$252
      0007F8 03                    4407 	.db	3
      0007F9 03                    4408 	.sleb128	3
      0007FA 01                    4409 	.db	1
      0007FB 09                    4410 	.db	9
      0007FC 00 01                 4411 	.dw	1+Siap$Modify_CONFIG$254-Siap$Modify_CONFIG$253
      0007FE 00                    4412 	.db	0
      0007FF 01                    4413 	.uleb128	1
      000800 01                    4414 	.db	1
      000801 00                    4415 	.db	0
      000802 05                    4416 	.uleb128	5
      000803 02                    4417 	.db	2
      000804 00 00 0A 2E           4418 	.dw	0,(Siap$Read_CONFIG$256)
      000808 03                    4419 	.db	3
      000809 90 03                 4420 	.sleb128	400
      00080B 01                    4421 	.db	1
      00080C 09                    4422 	.db	9
      00080D 00 00                 4423 	.dw	Siap$Read_CONFIG$258-Siap$Read_CONFIG$256
      00080F 03                    4424 	.db	3
      000810 04                    4425 	.sleb128	4
      000811 01                    4426 	.db	1
      000812 09                    4427 	.db	9
      000813 00 13                 4428 	.dw	Siap$Read_CONFIG$259-Siap$Read_CONFIG$258
      000815 03                    4429 	.db	3
      000816 01                    4430 	.sleb128	1
      000817 01                    4431 	.db	1
      000818 09                    4432 	.db	9
      000819 00 03                 4433 	.dw	Siap$Read_CONFIG$260-Siap$Read_CONFIG$259
      00081B 03                    4434 	.db	3
      00081C 01                    4435 	.sleb128	1
      00081D 01                    4436 	.db	1
      00081E 09                    4437 	.db	9
      00081F 00 03                 4438 	.dw	Siap$Read_CONFIG$261-Siap$Read_CONFIG$260
      000821 03                    4439 	.db	3
      000822 02                    4440 	.sleb128	2
      000823 01                    4441 	.db	1
      000824 09                    4442 	.db	9
      000825 00 02                 4443 	.dw	Siap$Read_CONFIG$263-Siap$Read_CONFIG$261
      000827 03                    4444 	.db	3
      000828 02                    4445 	.sleb128	2
      000829 01                    4446 	.db	1
      00082A 09                    4447 	.db	9
      00082B 00 02                 4448 	.dw	Siap$Read_CONFIG$264-Siap$Read_CONFIG$263
      00082D 03                    4449 	.db	3
      00082E 01                    4450 	.sleb128	1
      00082F 01                    4451 	.db	1
      000830 09                    4452 	.db	9
      000831 00 24                 4453 	.dw	Siap$Read_CONFIG$265-Siap$Read_CONFIG$264
      000833 03                    4454 	.db	3
      000834 01                    4455 	.sleb128	1
      000835 01                    4456 	.db	1
      000836 09                    4457 	.db	9
      000837 00 0D                 4458 	.dw	Siap$Read_CONFIG$267-Siap$Read_CONFIG$265
      000839 03                    4459 	.db	3
      00083A 7C                    4460 	.sleb128	-4
      00083B 01                    4461 	.db	1
      00083C 09                    4462 	.db	9
      00083D 00 06                 4463 	.dw	Siap$Read_CONFIG$268-Siap$Read_CONFIG$267
      00083F 03                    4464 	.db	3
      000840 06                    4465 	.sleb128	6
      000841 01                    4466 	.db	1
      000842 09                    4467 	.db	9
      000843 00 13                 4468 	.dw	Siap$Read_CONFIG$269-Siap$Read_CONFIG$268
      000845 03                    4469 	.db	3
      000846 01                    4470 	.sleb128	1
      000847 01                    4471 	.db	1
      000848 09                    4472 	.db	9
      000849 00 01                 4473 	.dw	1+Siap$Read_CONFIG$270-Siap$Read_CONFIG$269
      00084B 00                    4474 	.db	0
      00084C 01                    4475 	.uleb128	1
      00084D 01                    4476 	.db	1
      00084E 00                    4477 	.db	0
      00084F 05                    4478 	.uleb128	5
      000850 02                    4479 	.db	2
      000851 00 00 0A 96           4480 	.dw	0,(Siap$Read_UID$272)
      000855 03                    4481 	.db	3
      000856 A9 03                 4482 	.sleb128	425
      000858 01                    4483 	.db	1
      000859 09                    4484 	.db	9
      00085A 00 00                 4485 	.dw	Siap$Read_UID$274-Siap$Read_UID$272
      00085C 03                    4486 	.db	3
      00085D 04                    4487 	.sleb128	4
      00085E 01                    4488 	.db	1
      00085F 09                    4489 	.db	9
      000860 00 13                 4490 	.dw	Siap$Read_UID$275-Siap$Read_UID$274
      000862 03                    4491 	.db	3
      000863 01                    4492 	.sleb128	1
      000864 01                    4493 	.db	1
      000865 09                    4494 	.db	9
      000866 00 03                 4495 	.dw	Siap$Read_UID$276-Siap$Read_UID$275
      000868 03                    4496 	.db	3
      000869 01                    4497 	.sleb128	1
      00086A 01                    4498 	.db	1
      00086B 09                    4499 	.db	9
      00086C 00 03                 4500 	.dw	Siap$Read_UID$277-Siap$Read_UID$276
      00086E 03                    4501 	.db	3
      00086F 01                    4502 	.sleb128	1
      000870 01                    4503 	.db	1
      000871 09                    4504 	.db	9
      000872 00 03                 4505 	.dw	Siap$Read_UID$278-Siap$Read_UID$277
      000874 03                    4506 	.db	3
      000875 01                    4507 	.sleb128	1
      000876 01                    4508 	.db	1
      000877 09                    4509 	.db	9
      000878 00 02                 4510 	.dw	Siap$Read_UID$280-Siap$Read_UID$278
      00087A 03                    4511 	.db	3
      00087B 02                    4512 	.sleb128	2
      00087C 01                    4513 	.db	1
      00087D 09                    4514 	.db	9
      00087E 00 03                 4515 	.dw	Siap$Read_UID$281-Siap$Read_UID$280
      000880 03                    4516 	.db	3
      000881 01                    4517 	.sleb128	1
      000882 01                    4518 	.db	1
      000883 09                    4519 	.db	9
      000884 00 13                 4520 	.dw	Siap$Read_UID$282-Siap$Read_UID$281
      000886 03                    4521 	.db	3
      000887 01                    4522 	.sleb128	1
      000888 01                    4523 	.db	1
      000889 09                    4524 	.db	9
      00088A 00 0D                 4525 	.dw	Siap$Read_UID$283-Siap$Read_UID$282
      00088C 03                    4526 	.db	3
      00088D 01                    4527 	.sleb128	1
      00088E 01                    4528 	.db	1
      00088F 09                    4529 	.db	9
      000890 00 05                 4530 	.dw	Siap$Read_UID$285-Siap$Read_UID$283
      000892 03                    4531 	.db	3
      000893 7B                    4532 	.sleb128	-5
      000894 01                    4533 	.db	1
      000895 09                    4534 	.db	9
      000896 00 06                 4535 	.dw	Siap$Read_UID$286-Siap$Read_UID$285
      000898 03                    4536 	.db	3
      000899 07                    4537 	.sleb128	7
      00089A 01                    4538 	.db	1
      00089B 09                    4539 	.db	9
      00089C 00 13                 4540 	.dw	Siap$Read_UID$287-Siap$Read_UID$286
      00089E 03                    4541 	.db	3
      00089F 01                    4542 	.sleb128	1
      0008A0 01                    4543 	.db	1
      0008A1 09                    4544 	.db	9
      0008A2 00 01                 4545 	.dw	1+Siap$Read_UID$288-Siap$Read_UID$287
      0008A4 00                    4546 	.db	0
      0008A5 01                    4547 	.uleb128	1
      0008A6 01                    4548 	.db	1
      0008A7 00                    4549 	.db	0
      0008A8 05                    4550 	.uleb128	5
      0008A9 02                    4551 	.db	2
      0008AA 00 00 0A F6           4552 	.dw	0,(Siap$Read_UCID$290)
      0008AE 03                    4553 	.db	3
      0008AF C2 03                 4554 	.sleb128	450
      0008B1 01                    4555 	.db	1
      0008B2 09                    4556 	.db	9
      0008B3 00 00                 4557 	.dw	Siap$Read_UCID$292-Siap$Read_UCID$290
      0008B5 03                    4558 	.db	3
      0008B6 04                    4559 	.sleb128	4
      0008B7 01                    4560 	.db	1
      0008B8 09                    4561 	.db	9
      0008B9 00 13                 4562 	.dw	Siap$Read_UCID$293-Siap$Read_UCID$292
      0008BB 03                    4563 	.db	3
      0008BC 01                    4564 	.sleb128	1
      0008BD 01                    4565 	.db	1
      0008BE 09                    4566 	.db	9
      0008BF 00 03                 4567 	.dw	Siap$Read_UCID$294-Siap$Read_UCID$293
      0008C1 03                    4568 	.db	3
      0008C2 01                    4569 	.sleb128	1
      0008C3 01                    4570 	.db	1
      0008C4 09                    4571 	.db	9
      0008C5 00 03                 4572 	.dw	Siap$Read_UCID$295-Siap$Read_UCID$294
      0008C7 03                    4573 	.db	3
      0008C8 01                    4574 	.sleb128	1
      0008C9 01                    4575 	.db	1
      0008CA 09                    4576 	.db	9
      0008CB 00 03                 4577 	.dw	Siap$Read_UCID$296-Siap$Read_UCID$295
      0008CD 03                    4578 	.db	3
      0008CE 01                    4579 	.sleb128	1
      0008CF 01                    4580 	.db	1
      0008D0 09                    4581 	.db	9
      0008D1 00 02                 4582 	.dw	Siap$Read_UCID$298-Siap$Read_UCID$296
      0008D3 03                    4583 	.db	3
      0008D4 02                    4584 	.sleb128	2
      0008D5 01                    4585 	.db	1
      0008D6 09                    4586 	.db	9
      0008D7 00 03                 4587 	.dw	Siap$Read_UCID$299-Siap$Read_UCID$298
      0008D9 03                    4588 	.db	3
      0008DA 01                    4589 	.sleb128	1
      0008DB 01                    4590 	.db	1
      0008DC 09                    4591 	.db	9
      0008DD 00 13                 4592 	.dw	Siap$Read_UCID$300-Siap$Read_UCID$299
      0008DF 03                    4593 	.db	3
      0008E0 01                    4594 	.sleb128	1
      0008E1 01                    4595 	.db	1
      0008E2 09                    4596 	.db	9
      0008E3 00 0D                 4597 	.dw	Siap$Read_UCID$301-Siap$Read_UCID$300
      0008E5 03                    4598 	.db	3
      0008E6 01                    4599 	.sleb128	1
      0008E7 01                    4600 	.db	1
      0008E8 09                    4601 	.db	9
      0008E9 00 05                 4602 	.dw	Siap$Read_UCID$303-Siap$Read_UCID$301
      0008EB 03                    4603 	.db	3
      0008EC 7B                    4604 	.sleb128	-5
      0008ED 01                    4605 	.db	1
      0008EE 09                    4606 	.db	9
      0008EF 00 06                 4607 	.dw	Siap$Read_UCID$304-Siap$Read_UCID$303
      0008F1 03                    4608 	.db	3
      0008F2 07                    4609 	.sleb128	7
      0008F3 01                    4610 	.db	1
      0008F4 09                    4611 	.db	9
      0008F5 00 13                 4612 	.dw	Siap$Read_UCID$305-Siap$Read_UCID$304
      0008F7 03                    4613 	.db	3
      0008F8 01                    4614 	.sleb128	1
      0008F9 01                    4615 	.db	1
      0008FA 09                    4616 	.db	9
      0008FB 00 01                 4617 	.dw	1+Siap$Read_UCID$306-Siap$Read_UCID$305
      0008FD 00                    4618 	.db	0
      0008FE 01                    4619 	.uleb128	1
      0008FF 01                    4620 	.db	1
      000900 00                    4621 	.db	0
      000901 05                    4622 	.uleb128	5
      000902 02                    4623 	.db	2
      000903 00 00 0B 56           4624 	.dw	0,(Siap$Read_DID$308)
      000907 03                    4625 	.db	3
      000908 DC 03                 4626 	.sleb128	476
      00090A 01                    4627 	.db	1
      00090B 09                    4628 	.db	9
      00090C 00 00                 4629 	.dw	Siap$Read_DID$310-Siap$Read_DID$308
      00090E 03                    4630 	.db	3
      00090F 04                    4631 	.sleb128	4
      000910 01                    4632 	.db	1
      000911 09                    4633 	.db	9
      000912 00 13                 4634 	.dw	Siap$Read_DID$311-Siap$Read_DID$310
      000914 03                    4635 	.db	3
      000915 01                    4636 	.sleb128	1
      000916 01                    4637 	.db	1
      000917 09                    4638 	.db	9
      000918 00 03                 4639 	.dw	Siap$Read_DID$312-Siap$Read_DID$311
      00091A 03                    4640 	.db	3
      00091B 01                    4641 	.sleb128	1
      00091C 01                    4642 	.db	1
      00091D 09                    4643 	.db	9
      00091E 00 03                 4644 	.dw	Siap$Read_DID$313-Siap$Read_DID$312
      000920 03                    4645 	.db	3
      000921 01                    4646 	.sleb128	1
      000922 01                    4647 	.db	1
      000923 09                    4648 	.db	9
      000924 00 03                 4649 	.dw	Siap$Read_DID$314-Siap$Read_DID$313
      000926 03                    4650 	.db	3
      000927 01                    4651 	.sleb128	1
      000928 01                    4652 	.db	1
      000929 09                    4653 	.db	9
      00092A 00 02                 4654 	.dw	Siap$Read_DID$316-Siap$Read_DID$314
      00092C 03                    4655 	.db	3
      00092D 02                    4656 	.sleb128	2
      00092E 01                    4657 	.db	1
      00092F 09                    4658 	.db	9
      000930 00 03                 4659 	.dw	Siap$Read_DID$317-Siap$Read_DID$316
      000932 03                    4660 	.db	3
      000933 01                    4661 	.sleb128	1
      000934 01                    4662 	.db	1
      000935 09                    4663 	.db	9
      000936 00 13                 4664 	.dw	Siap$Read_DID$318-Siap$Read_DID$317
      000938 03                    4665 	.db	3
      000939 01                    4666 	.sleb128	1
      00093A 01                    4667 	.db	1
      00093B 09                    4668 	.db	9
      00093C 00 0D                 4669 	.dw	Siap$Read_DID$319-Siap$Read_DID$318
      00093E 03                    4670 	.db	3
      00093F 01                    4671 	.sleb128	1
      000940 01                    4672 	.db	1
      000941 09                    4673 	.db	9
      000942 00 05                 4674 	.dw	Siap$Read_DID$321-Siap$Read_DID$319
      000944 03                    4675 	.db	3
      000945 7B                    4676 	.sleb128	-5
      000946 01                    4677 	.db	1
      000947 09                    4678 	.db	9
      000948 00 06                 4679 	.dw	Siap$Read_DID$322-Siap$Read_DID$321
      00094A 03                    4680 	.db	3
      00094B 07                    4681 	.sleb128	7
      00094C 01                    4682 	.db	1
      00094D 09                    4683 	.db	9
      00094E 00 13                 4684 	.dw	Siap$Read_DID$323-Siap$Read_DID$322
      000950 03                    4685 	.db	3
      000951 01                    4686 	.sleb128	1
      000952 01                    4687 	.db	1
      000953 09                    4688 	.db	9
      000954 00 01                 4689 	.dw	1+Siap$Read_DID$324-Siap$Read_DID$323
      000956 00                    4690 	.db	0
      000957 01                    4691 	.uleb128	1
      000958 01                    4692 	.db	1
      000959 00                    4693 	.db	0
      00095A 05                    4694 	.uleb128	5
      00095B 02                    4695 	.db	2
      00095C 00 00 0B B6           4696 	.dw	0,(Siap$Read_PID$326)
      000960 03                    4697 	.db	3
      000961 F5 03                 4698 	.sleb128	501
      000963 01                    4699 	.db	1
      000964 09                    4700 	.db	9
      000965 00 00                 4701 	.dw	Siap$Read_PID$328-Siap$Read_PID$326
      000967 03                    4702 	.db	3
      000968 04                    4703 	.sleb128	4
      000969 01                    4704 	.db	1
      00096A 09                    4705 	.db	9
      00096B 00 13                 4706 	.dw	Siap$Read_PID$329-Siap$Read_PID$328
      00096D 03                    4707 	.db	3
      00096E 01                    4708 	.sleb128	1
      00096F 01                    4709 	.db	1
      000970 09                    4710 	.db	9
      000971 00 03                 4711 	.dw	Siap$Read_PID$330-Siap$Read_PID$329
      000973 03                    4712 	.db	3
      000974 01                    4713 	.sleb128	1
      000975 01                    4714 	.db	1
      000976 09                    4715 	.db	9
      000977 00 03                 4716 	.dw	Siap$Read_PID$331-Siap$Read_PID$330
      000979 03                    4717 	.db	3
      00097A 01                    4718 	.sleb128	1
      00097B 01                    4719 	.db	1
      00097C 09                    4720 	.db	9
      00097D 00 03                 4721 	.dw	Siap$Read_PID$332-Siap$Read_PID$331
      00097F 03                    4722 	.db	3
      000980 01                    4723 	.sleb128	1
      000981 01                    4724 	.db	1
      000982 09                    4725 	.db	9
      000983 00 02                 4726 	.dw	Siap$Read_PID$334-Siap$Read_PID$332
      000985 03                    4727 	.db	3
      000986 02                    4728 	.sleb128	2
      000987 01                    4729 	.db	1
      000988 09                    4730 	.db	9
      000989 00 03                 4731 	.dw	Siap$Read_PID$335-Siap$Read_PID$334
      00098B 03                    4732 	.db	3
      00098C 01                    4733 	.sleb128	1
      00098D 01                    4734 	.db	1
      00098E 09                    4735 	.db	9
      00098F 00 13                 4736 	.dw	Siap$Read_PID$336-Siap$Read_PID$335
      000991 03                    4737 	.db	3
      000992 01                    4738 	.sleb128	1
      000993 01                    4739 	.db	1
      000994 09                    4740 	.db	9
      000995 00 0D                 4741 	.dw	Siap$Read_PID$337-Siap$Read_PID$336
      000997 03                    4742 	.db	3
      000998 01                    4743 	.sleb128	1
      000999 01                    4744 	.db	1
      00099A 09                    4745 	.db	9
      00099B 00 05                 4746 	.dw	Siap$Read_PID$339-Siap$Read_PID$337
      00099D 03                    4747 	.db	3
      00099E 7B                    4748 	.sleb128	-5
      00099F 01                    4749 	.db	1
      0009A0 09                    4750 	.db	9
      0009A1 00 06                 4751 	.dw	Siap$Read_PID$340-Siap$Read_PID$339
      0009A3 03                    4752 	.db	3
      0009A4 07                    4753 	.sleb128	7
      0009A5 01                    4754 	.db	1
      0009A6 09                    4755 	.db	9
      0009A7 00 13                 4756 	.dw	Siap$Read_PID$341-Siap$Read_PID$340
      0009A9 03                    4757 	.db	3
      0009AA 01                    4758 	.sleb128	1
      0009AB 01                    4759 	.db	1
      0009AC 09                    4760 	.db	9
      0009AD 00 01                 4761 	.dw	1+Siap$Read_PID$342-Siap$Read_PID$341
      0009AF 00                    4762 	.db	0
      0009B0 01                    4763 	.uleb128	1
      0009B1 01                    4764 	.db	1
      0009B2                       4765 Ldebug_line_end:
                                   4766 
                                   4767 	.area .debug_loc (NOLOAD)
      00008C                       4768 Ldebug_loc_start:
      00008C 00 00 0B B6           4769 	.dw	0,(Siap$Read_PID$327)
      000090 00 00 0C 16           4770 	.dw	0,(Siap$Read_PID$343)
      000094 00 02                 4771 	.dw	2
      000096 86                    4772 	.db	134
      000097 01                    4773 	.sleb128	1
      000098 00 00 00 00           4774 	.dw	0,0
      00009C 00 00 00 00           4775 	.dw	0,0
      0000A0 00 00 0B 56           4776 	.dw	0,(Siap$Read_DID$309)
      0000A4 00 00 0B B6           4777 	.dw	0,(Siap$Read_DID$325)
      0000A8 00 02                 4778 	.dw	2
      0000AA 86                    4779 	.db	134
      0000AB 01                    4780 	.sleb128	1
      0000AC 00 00 00 00           4781 	.dw	0,0
      0000B0 00 00 00 00           4782 	.dw	0,0
      0000B4 00 00 0A F6           4783 	.dw	0,(Siap$Read_UCID$291)
      0000B8 00 00 0B 56           4784 	.dw	0,(Siap$Read_UCID$307)
      0000BC 00 02                 4785 	.dw	2
      0000BE 86                    4786 	.db	134
      0000BF 01                    4787 	.sleb128	1
      0000C0 00 00 00 00           4788 	.dw	0,0
      0000C4 00 00 00 00           4789 	.dw	0,0
      0000C8 00 00 0A 96           4790 	.dw	0,(Siap$Read_UID$273)
      0000CC 00 00 0A F6           4791 	.dw	0,(Siap$Read_UID$289)
      0000D0 00 02                 4792 	.dw	2
      0000D2 86                    4793 	.db	134
      0000D3 01                    4794 	.sleb128	1
      0000D4 00 00 00 00           4795 	.dw	0,0
      0000D8 00 00 00 00           4796 	.dw	0,0
      0000DC 00 00 0A 2E           4797 	.dw	0,(Siap$Read_CONFIG$257)
      0000E0 00 00 0A 96           4798 	.dw	0,(Siap$Read_CONFIG$271)
      0000E4 00 02                 4799 	.dw	2
      0000E6 86                    4800 	.db	134
      0000E7 01                    4801 	.sleb128	1
      0000E8 00 00 00 00           4802 	.dw	0,0
      0000EC 00 00 00 00           4803 	.dw	0,0
      0000F0 00 00 06 F3           4804 	.dw	0,(Siap$Modify_CONFIG$171)
      0000F4 00 00 0A 2E           4805 	.dw	0,(Siap$Modify_CONFIG$255)
      0000F8 00 02                 4806 	.dw	2
      0000FA 86                    4807 	.db	134
      0000FB 01                    4808 	.sleb128	1
      0000FC 00 00 00 00           4809 	.dw	0,0
      000100 00 00 00 00           4810 	.dw	0,0
      000104 00 00 06 61           4811 	.dw	0,(Siap$Program_Verify_APROM$148)
      000108 00 00 06 F3           4812 	.dw	0,(Siap$Program_Verify_APROM$169)
      00010C 00 02                 4813 	.dw	2
      00010E 86                    4814 	.db	134
      00010F 01                    4815 	.sleb128	1
      000110 00 00 00 00           4816 	.dw	0,0
      000114 00 00 00 00           4817 	.dw	0,0
      000118 00 00 05 A1           4818 	.dw	0,(Siap$Program_APROM$125)
      00011C 00 00 06 61           4819 	.dw	0,(Siap$Program_APROM$146)
      000120 00 02                 4820 	.dw	2
      000122 86                    4821 	.db	134
      000123 01                    4822 	.sleb128	1
      000124 00 00 00 00           4823 	.dw	0,0
      000128 00 00 00 00           4824 	.dw	0,0
      00012C 00 00 05 19           4825 	.dw	0,(Siap$Erase_Verify_APROM$104)
      000130 00 00 05 A1           4826 	.dw	0,(Siap$Erase_Verify_APROM$123)
      000134 00 02                 4827 	.dw	2
      000136 86                    4828 	.db	134
      000137 01                    4829 	.sleb128	1
      000138 00 00 00 00           4830 	.dw	0,0
      00013C 00 00 00 00           4831 	.dw	0,0
      000140 00 00 04 3C           4832 	.dw	0,(Siap$Erase_APROM$86)
      000144 00 00 05 19           4833 	.dw	0,(Siap$Erase_APROM$102)
      000148 00 02                 4834 	.dw	2
      00014A 86                    4835 	.db	134
      00014B 01                    4836 	.sleb128	1
      00014C 00 00 00 00           4837 	.dw	0,0
      000150 00 00 00 00           4838 	.dw	0,0
      000154 00 00 03 AA           4839 	.dw	0,(Siap$Program_Verify_LDROM$63)
      000158 00 00 04 3C           4840 	.dw	0,(Siap$Program_Verify_LDROM$84)
      00015C 00 02                 4841 	.dw	2
      00015E 86                    4842 	.db	134
      00015F 01                    4843 	.sleb128	1
      000160 00 00 00 00           4844 	.dw	0,0
      000164 00 00 00 00           4845 	.dw	0,0
      000168 00 00 02 EA           4846 	.dw	0,(Siap$Program_LDROM$40)
      00016C 00 00 03 AA           4847 	.dw	0,(Siap$Program_LDROM$61)
      000170 00 02                 4848 	.dw	2
      000172 86                    4849 	.db	134
      000173 01                    4850 	.sleb128	1
      000174 00 00 00 00           4851 	.dw	0,0
      000178 00 00 00 00           4852 	.dw	0,0
      00017C 00 00 02 62           4853 	.dw	0,(Siap$Erase_Verify_LDROM$19)
      000180 00 00 02 EA           4854 	.dw	0,(Siap$Erase_Verify_LDROM$38)
      000184 00 02                 4855 	.dw	2
      000186 86                    4856 	.db	134
      000187 01                    4857 	.sleb128	1
      000188 00 00 00 00           4858 	.dw	0,0
      00018C 00 00 00 00           4859 	.dw	0,0
      000190 00 00 01 85           4860 	.dw	0,(Siap$Erase_LDROM$1)
      000194 00 00 02 62           4861 	.dw	0,(Siap$Erase_LDROM$17)
      000198 00 02                 4862 	.dw	2
      00019A 86                    4863 	.db	134
      00019B 01                    4864 	.sleb128	1
      00019C 00 00 00 00           4865 	.dw	0,0
      0001A0 00 00 00 00           4866 	.dw	0,0
                                   4867 
                                   4868 	.area .debug_abbrev (NOLOAD)
      000101                       4869 Ldebug_abbrev:
      000101 01                    4870 	.uleb128	1
      000102 11                    4871 	.uleb128	17
      000103 01                    4872 	.db	1
      000104 03                    4873 	.uleb128	3
      000105 08                    4874 	.uleb128	8
      000106 10                    4875 	.uleb128	16
      000107 06                    4876 	.uleb128	6
      000108 13                    4877 	.uleb128	19
      000109 0B                    4878 	.uleb128	11
      00010A 25                    4879 	.uleb128	37
      00010B 08                    4880 	.uleb128	8
      00010C 00                    4881 	.uleb128	0
      00010D 00                    4882 	.uleb128	0
      00010E 02                    4883 	.uleb128	2
      00010F 2E                    4884 	.uleb128	46
      000110 01                    4885 	.db	1
      000111 01                    4886 	.uleb128	1
      000112 13                    4887 	.uleb128	19
      000113 03                    4888 	.uleb128	3
      000114 08                    4889 	.uleb128	8
      000115 11                    4890 	.uleb128	17
      000116 01                    4891 	.uleb128	1
      000117 12                    4892 	.uleb128	18
      000118 01                    4893 	.uleb128	1
      000119 3F                    4894 	.uleb128	63
      00011A 0C                    4895 	.uleb128	12
      00011B 40                    4896 	.uleb128	64
      00011C 06                    4897 	.uleb128	6
      00011D 00                    4898 	.uleb128	0
      00011E 00                    4899 	.uleb128	0
      00011F 03                    4900 	.uleb128	3
      000120 05                    4901 	.uleb128	5
      000121 00                    4902 	.db	0
      000122 02                    4903 	.uleb128	2
      000123 0A                    4904 	.uleb128	10
      000124 03                    4905 	.uleb128	3
      000125 08                    4906 	.uleb128	8
      000126 49                    4907 	.uleb128	73
      000127 13                    4908 	.uleb128	19
      000128 00                    4909 	.uleb128	0
      000129 00                    4910 	.uleb128	0
      00012A 04                    4911 	.uleb128	4
      00012B 05                    4912 	.uleb128	5
      00012C 00                    4913 	.db	0
      00012D 03                    4914 	.uleb128	3
      00012E 08                    4915 	.uleb128	8
      00012F 49                    4916 	.uleb128	73
      000130 13                    4917 	.uleb128	19
      000131 00                    4918 	.uleb128	0
      000132 00                    4919 	.uleb128	0
      000133 05                    4920 	.uleb128	5
      000134 0B                    4921 	.uleb128	11
      000135 00                    4922 	.db	0
      000136 11                    4923 	.uleb128	17
      000137 01                    4924 	.uleb128	1
      000138 12                    4925 	.uleb128	18
      000139 01                    4926 	.uleb128	1
      00013A 00                    4927 	.uleb128	0
      00013B 00                    4928 	.uleb128	0
      00013C 06                    4929 	.uleb128	6
      00013D 34                    4930 	.uleb128	52
      00013E 00                    4931 	.db	0
      00013F 03                    4932 	.uleb128	3
      000140 08                    4933 	.uleb128	8
      000141 49                    4934 	.uleb128	73
      000142 13                    4935 	.uleb128	19
      000143 00                    4936 	.uleb128	0
      000144 00                    4937 	.uleb128	0
      000145 07                    4938 	.uleb128	7
      000146 24                    4939 	.uleb128	36
      000147 00                    4940 	.db	0
      000148 03                    4941 	.uleb128	3
      000149 08                    4942 	.uleb128	8
      00014A 0B                    4943 	.uleb128	11
      00014B 0B                    4944 	.uleb128	11
      00014C 3E                    4945 	.uleb128	62
      00014D 0B                    4946 	.uleb128	11
      00014E 00                    4947 	.uleb128	0
      00014F 00                    4948 	.uleb128	0
      000150 08                    4949 	.uleb128	8
      000151 0B                    4950 	.uleb128	11
      000152 01                    4951 	.db	1
      000153 01                    4952 	.uleb128	1
      000154 13                    4953 	.uleb128	19
      000155 11                    4954 	.uleb128	17
      000156 01                    4955 	.uleb128	1
      000157 12                    4956 	.uleb128	18
      000158 01                    4957 	.uleb128	1
      000159 00                    4958 	.uleb128	0
      00015A 00                    4959 	.uleb128	0
      00015B 09                    4960 	.uleb128	9
      00015C 34                    4961 	.uleb128	52
      00015D 00                    4962 	.db	0
      00015E 02                    4963 	.uleb128	2
      00015F 0A                    4964 	.uleb128	10
      000160 03                    4965 	.uleb128	3
      000161 08                    4966 	.uleb128	8
      000162 3C                    4967 	.uleb128	60
      000163 0C                    4968 	.uleb128	12
      000164 3F                    4969 	.uleb128	63
      000165 0C                    4970 	.uleb128	12
      000166 49                    4971 	.uleb128	73
      000167 13                    4972 	.uleb128	19
      000168 00                    4973 	.uleb128	0
      000169 00                    4974 	.uleb128	0
      00016A 0A                    4975 	.uleb128	10
      00016B 34                    4976 	.uleb128	52
      00016C 00                    4977 	.db	0
      00016D 02                    4978 	.uleb128	2
      00016E 0A                    4979 	.uleb128	10
      00016F 03                    4980 	.uleb128	3
      000170 08                    4981 	.uleb128	8
      000171 3F                    4982 	.uleb128	63
      000172 0C                    4983 	.uleb128	12
      000173 49                    4984 	.uleb128	73
      000174 13                    4985 	.uleb128	19
      000175 00                    4986 	.uleb128	0
      000176 00                    4987 	.uleb128	0
      000177 0B                    4988 	.uleb128	11
      000178 35                    4989 	.uleb128	53
      000179 00                    4990 	.db	0
      00017A 49                    4991 	.uleb128	73
      00017B 13                    4992 	.uleb128	19
      00017C 00                    4993 	.uleb128	0
      00017D 00                    4994 	.uleb128	0
      00017E 0C                    4995 	.uleb128	12
      00017F 01                    4996 	.uleb128	1
      000180 01                    4997 	.db	1
      000181 01                    4998 	.uleb128	1
      000182 13                    4999 	.uleb128	19
      000183 0B                    5000 	.uleb128	11
      000184 0B                    5001 	.uleb128	11
      000185 49                    5002 	.uleb128	73
      000186 13                    5003 	.uleb128	19
      000187 00                    5004 	.uleb128	0
      000188 00                    5005 	.uleb128	0
      000189 0D                    5006 	.uleb128	13
      00018A 21                    5007 	.uleb128	33
      00018B 00                    5008 	.db	0
      00018C 2F                    5009 	.uleb128	47
      00018D 0B                    5010 	.uleb128	11
      00018E 00                    5011 	.uleb128	0
      00018F 00                    5012 	.uleb128	0
      000190 00                    5013 	.uleb128	0
                                   5014 
                                   5015 	.area .debug_info (NOLOAD)
      002312 00 00 16 3A           5016 	.dw	0,Ldebug_info_end-Ldebug_info_start
      002316                       5017 Ldebug_info_start:
      002316 00 02                 5018 	.dw	2
      002318 00 00 01 01           5019 	.dw	0,(Ldebug_abbrev)
      00231C 04                    5020 	.db	4
      00231D 01                    5021 	.uleb128	1
      00231E 43 3A 2F 42 53 50 2F  5022 	.ascii "C:/BSP/MG51xC9AE_MG51xB9AE_Series/Library/StdDriver/src/iap.c"
             4D 47 35 31 78 43 39
             41 45 5F 4D 47 35 31
             78 42 39 41 45 5F 53
             65 72 69 65 73 2F 4C
             69 62 72 61 72 79 2F
             53 74 64 44 72 69 76
             65 72 2F 73 72 63 2F
             69 61 70 2E 63
      00235B 00                    5023 	.db	0
      00235C 00 00 02 7C           5024 	.dw	0,(Ldebug_line_start+-4)
      002360 01                    5025 	.db	1
      002361 53 44 43 43 20 76 65  5026 	.ascii "SDCC version 4.2.6 #13647"
             72 73 69 6F 6E 20 34
             2E 32 2E 36 20 23 31
             33 36 34 37
      00237A 00                    5027 	.db	0
      00237B 02                    5028 	.uleb128	2
      00237C 00 00 00 D1           5029 	.dw	0,209
      002380 45 72 61 73 65 5F 4C  5030 	.ascii "Erase_LDROM"
             44 52 4F 4D
      00238B 00                    5031 	.db	0
      00238C 00 00 01 85           5032 	.dw	0,(_Erase_LDROM)
      002390 00 00 02 62           5033 	.dw	0,(XG$Erase_LDROM$0$0+1)
      002394 01                    5034 	.db	1
      002395 00 00 01 90           5035 	.dw	0,(Ldebug_loc_start+260)
      002399 03                    5036 	.uleb128	3
      00239A 05                    5037 	.db	5
      00239B 03                    5038 	.db	3
      00239C 00 00 00 AA           5039 	.dw	0,(_Erase_LDROM_u16IAPStartAddress_65536_153)
      0023A0 75 31 36 49 41 50 53  5040 	.ascii "u16IAPStartAddress"
             74 61 72 74 41 64 64
             72 65 73 73
      0023B2 00                    5041 	.db	0
      0023B3 00 00 00 D1           5042 	.dw	0,209
      0023B7 04                    5043 	.uleb128	4
      0023B8 75 31 36 49 41 50 44  5044 	.ascii "u16IAPDataSize"
             61 74 61 53 69 7A 65
      0023C6 00                    5045 	.db	0
      0023C7 00 00 00 D1           5046 	.dw	0,209
      0023CB 05                    5047 	.uleb128	5
      0023CC 00 00 01 BC           5048 	.dw	0,(Siap$Erase_LDROM$6)
      0023D0 00 00 01 C4           5049 	.dw	0,(Siap$Erase_LDROM$8)
      0023D4 06                    5050 	.uleb128	6
      0023D5 75 31 36 43 6F 75 6E  5051 	.ascii "u16Count"
             74
      0023DD 00                    5052 	.db	0
      0023DE 00 00 00 D1           5053 	.dw	0,209
      0023E2 00                    5054 	.uleb128	0
      0023E3 07                    5055 	.uleb128	7
      0023E4 75 6E 73 69 67 6E 65  5056 	.ascii "unsigned int"
             64 20 69 6E 74
      0023F0 00                    5057 	.db	0
      0023F1 02                    5058 	.db	2
      0023F2 07                    5059 	.db	7
      0023F3 02                    5060 	.uleb128	2
      0023F4 00 00 01 50           5061 	.dw	0,336
      0023F8 45 72 61 73 65 5F 56  5062 	.ascii "Erase_Verify_LDROM"
             65 72 69 66 79 5F 4C
             44 52 4F 4D
      00240A 00                    5063 	.db	0
      00240B 00 00 02 62           5064 	.dw	0,(_Erase_Verify_LDROM)
      00240F 00 00 02 EA           5065 	.dw	0,(XG$Erase_Verify_LDROM$0$0+1)
      002413 01                    5066 	.db	1
      002414 00 00 01 7C           5067 	.dw	0,(Ldebug_loc_start+240)
      002418 03                    5068 	.uleb128	3
      002419 05                    5069 	.db	5
      00241A 03                    5070 	.db	3
      00241B 00 00 00 AE           5071 	.dw	0,(_Erase_Verify_LDROM_u16IAPStartAddress_65536_157)
      00241F 75 31 36 49 41 50 53  5072 	.ascii "u16IAPStartAddress"
             74 61 72 74 41 64 64
             72 65 73 73
      002431 00                    5073 	.db	0
      002432 00 00 00 D1           5074 	.dw	0,209
      002436 04                    5075 	.uleb128	4
      002437 75 31 36 49 41 50 44  5076 	.ascii "u16IAPDataSize"
             61 74 61 53 69 7A 65
      002445 00                    5077 	.db	0
      002446 00 00 00 D1           5078 	.dw	0,209
      00244A 05                    5079 	.uleb128	5
      00244B 00 00 02 A2           5080 	.dw	0,(Siap$Erase_Verify_LDROM$25)
      00244F 00 00 02 CF           5081 	.dw	0,(Siap$Erase_Verify_LDROM$33)
      002453 06                    5082 	.uleb128	6
      002454 75 31 36 43 6F 75 6E  5083 	.ascii "u16Count"
             74
      00245C 00                    5084 	.db	0
      00245D 00 00 00 D1           5085 	.dw	0,209
      002461 00                    5086 	.uleb128	0
      002462 02                    5087 	.uleb128	2
      002463 00 00 01 C8           5088 	.dw	0,456
      002467 50 72 6F 67 72 61 6D  5089 	.ascii "Program_LDROM"
             5F 4C 44 52 4F 4D
      002474 00                    5090 	.db	0
      002475 00 00 02 EA           5091 	.dw	0,(_Program_LDROM)
      002479 00 00 03 AA           5092 	.dw	0,(XG$Program_LDROM$0$0+1)
      00247D 01                    5093 	.db	1
      00247E 00 00 01 68           5094 	.dw	0,(Ldebug_loc_start+220)
      002482 03                    5095 	.uleb128	3
      002483 05                    5096 	.db	5
      002484 03                    5097 	.db	3
      002485 00 00 00 B2           5098 	.dw	0,(_Program_LDROM_u16IAPStartAddress_65536_161)
      002489 75 31 36 49 41 50 53  5099 	.ascii "u16IAPStartAddress"
             74 61 72 74 41 64 64
             72 65 73 73
      00249B 00                    5100 	.db	0
      00249C 00 00 00 D1           5101 	.dw	0,209
      0024A0 04                    5102 	.uleb128	4
      0024A1 75 31 36 49 41 50 44  5103 	.ascii "u16IAPDataSize"
             61 74 61 53 69 7A 65
      0024AF 00                    5104 	.db	0
      0024B0 00 00 00 D1           5105 	.dw	0,209
      0024B4 08                    5106 	.uleb128	8
      0024B5 00 00 01 B9           5107 	.dw	0,441
      0024B9 00 00 03 3D           5108 	.dw	0,(Siap$Program_LDROM$47)
      0024BD 00 00 03 7C           5109 	.dw	0,(Siap$Program_LDROM$55)
      0024C1 05                    5110 	.uleb128	5
      0024C2 00 00 03 77           5111 	.dw	0,(Siap$Program_LDROM$52)
      0024C6 00 00 03 7C           5112 	.dw	0,(Siap$Program_LDROM$54)
      0024CA 00                    5113 	.uleb128	0
      0024CB 06                    5114 	.uleb128	6
      0024CC 75 31 36 43 6F 75 6E  5115 	.ascii "u16Count"
             74
      0024D4 00                    5116 	.db	0
      0024D5 00 00 00 D1           5117 	.dw	0,209
      0024D9 00                    5118 	.uleb128	0
      0024DA 02                    5119 	.uleb128	2
      0024DB 00 00 02 47           5120 	.dw	0,583
      0024DF 50 72 6F 67 72 61 6D  5121 	.ascii "Program_Verify_LDROM"
             5F 56 65 72 69 66 79
             5F 4C 44 52 4F 4D
      0024F3 00                    5122 	.db	0
      0024F4 00 00 03 AA           5123 	.dw	0,(_Program_Verify_LDROM)
      0024F8 00 00 04 3C           5124 	.dw	0,(XG$Program_Verify_LDROM$0$0+1)
      0024FC 01                    5125 	.db	1
      0024FD 00 00 01 54           5126 	.dw	0,(Ldebug_loc_start+200)
      002501 03                    5127 	.uleb128	3
      002502 05                    5128 	.db	5
      002503 03                    5129 	.db	3
      002504 00 00 00 B6           5130 	.dw	0,(_Program_Verify_LDROM_u16IAPStartAddress_65536_166)
      002508 75 31 36 49 41 50 53  5131 	.ascii "u16IAPStartAddress"
             74 61 72 74 41 64 64
             72 65 73 73
      00251A 00                    5132 	.db	0
      00251B 00 00 00 D1           5133 	.dw	0,209
      00251F 04                    5134 	.uleb128	4
      002520 75 31 36 49 41 50 44  5135 	.ascii "u16IAPDataSize"
             61 74 61 53 69 7A 65
      00252E 00                    5136 	.db	0
      00252F 00 00 00 D1           5137 	.dw	0,209
      002533 08                    5138 	.uleb128	8
      002534 00 00 02 38           5139 	.dw	0,568
      002538 00 00 03 EA           5140 	.dw	0,(Siap$Program_Verify_LDROM$69)
      00253C 00 00 04 21           5141 	.dw	0,(Siap$Program_Verify_LDROM$79)
      002540 05                    5142 	.uleb128	5
      002541 00 00 04 1C           5143 	.dw	0,(Siap$Program_Verify_LDROM$76)
      002545 00 00 04 21           5144 	.dw	0,(Siap$Program_Verify_LDROM$78)
      002549 00                    5145 	.uleb128	0
      00254A 06                    5146 	.uleb128	6
      00254B 75 31 36 43 6F 75 6E  5147 	.ascii "u16Count"
             74
      002553 00                    5148 	.db	0
      002554 00 00 00 D1           5149 	.dw	0,209
      002558 00                    5150 	.uleb128	0
      002559 02                    5151 	.uleb128	2
      00255A 00 00 02 AF           5152 	.dw	0,687
      00255E 45 72 61 73 65 5F 41  5153 	.ascii "Erase_APROM"
             50 52 4F 4D
      002569 00                    5154 	.db	0
      00256A 00 00 04 3C           5155 	.dw	0,(_Erase_APROM)
      00256E 00 00 05 19           5156 	.dw	0,(XG$Erase_APROM$0$0+1)
      002572 01                    5157 	.db	1
      002573 00 00 01 40           5158 	.dw	0,(Ldebug_loc_start+180)
      002577 03                    5159 	.uleb128	3
      002578 05                    5160 	.db	5
      002579 03                    5161 	.db	3
      00257A 00 00 00 BA           5162 	.dw	0,(_Erase_APROM_u16IAPStartAddress_65536_171)
      00257E 75 31 36 49 41 50 53  5163 	.ascii "u16IAPStartAddress"
             74 61 72 74 41 64 64
             72 65 73 73
      002590 00                    5164 	.db	0
      002591 00 00 00 D1           5165 	.dw	0,209
      002595 04                    5166 	.uleb128	4
      002596 75 31 36 49 41 50 44  5167 	.ascii "u16IAPDataSize"
             61 74 61 53 69 7A 65
      0025A4 00                    5168 	.db	0
      0025A5 00 00 00 D1           5169 	.dw	0,209
      0025A9 05                    5170 	.uleb128	5
      0025AA 00 00 04 73           5171 	.dw	0,(Siap$Erase_APROM$91)
      0025AE 00 00 04 7B           5172 	.dw	0,(Siap$Erase_APROM$93)
      0025B2 06                    5173 	.uleb128	6
      0025B3 75 31 36 43 6F 75 6E  5174 	.ascii "u16Count"
             74
      0025BB 00                    5175 	.db	0
      0025BC 00 00 00 D1           5176 	.dw	0,209
      0025C0 00                    5177 	.uleb128	0
      0025C1 02                    5178 	.uleb128	2
      0025C2 00 00 03 1E           5179 	.dw	0,798
      0025C6 45 72 61 73 65 5F 56  5180 	.ascii "Erase_Verify_APROM"
             65 72 69 66 79 5F 41
             50 52 4F 4D
      0025D8 00                    5181 	.db	0
      0025D9 00 00 05 19           5182 	.dw	0,(_Erase_Verify_APROM)
      0025DD 00 00 05 A1           5183 	.dw	0,(XG$Erase_Verify_APROM$0$0+1)
      0025E1 01                    5184 	.db	1
      0025E2 00 00 01 2C           5185 	.dw	0,(Ldebug_loc_start+160)
      0025E6 03                    5186 	.uleb128	3
      0025E7 05                    5187 	.db	5
      0025E8 03                    5188 	.db	3
      0025E9 00 00 00 BE           5189 	.dw	0,(_Erase_Verify_APROM_u16IAPStartAddress_65536_175)
      0025ED 75 31 36 49 41 50 53  5190 	.ascii "u16IAPStartAddress"
             74 61 72 74 41 64 64
             72 65 73 73
      0025FF 00                    5191 	.db	0
      002600 00 00 00 D1           5192 	.dw	0,209
      002604 04                    5193 	.uleb128	4
      002605 75 31 36 49 41 50 44  5194 	.ascii "u16IAPDataSize"
             61 74 61 53 69 7A 65
      002613 00                    5195 	.db	0
      002614 00 00 00 D1           5196 	.dw	0,209
      002618 05                    5197 	.uleb128	5
      002619 00 00 05 59           5198 	.dw	0,(Siap$Erase_Verify_APROM$110)
      00261D 00 00 05 86           5199 	.dw	0,(Siap$Erase_Verify_APROM$118)
      002621 06                    5200 	.uleb128	6
      002622 75 31 36 43 6F 75 6E  5201 	.ascii "u16Count"
             74
      00262A 00                    5202 	.db	0
      00262B 00 00 00 D1           5203 	.dw	0,209
      00262F 00                    5204 	.uleb128	0
      002630 02                    5205 	.uleb128	2
      002631 00 00 03 96           5206 	.dw	0,918
      002635 50 72 6F 67 72 61 6D  5207 	.ascii "Program_APROM"
             5F 41 50 52 4F 4D
      002642 00                    5208 	.db	0
      002643 00 00 05 A1           5209 	.dw	0,(_Program_APROM)
      002647 00 00 06 61           5210 	.dw	0,(XG$Program_APROM$0$0+1)
      00264B 01                    5211 	.db	1
      00264C 00 00 01 18           5212 	.dw	0,(Ldebug_loc_start+140)
      002650 03                    5213 	.uleb128	3
      002651 05                    5214 	.db	5
      002652 03                    5215 	.db	3
      002653 00 00 00 C2           5216 	.dw	0,(_Program_APROM_u16IAPStartAddress_65536_179)
      002657 75 31 36 49 41 50 53  5217 	.ascii "u16IAPStartAddress"
             74 61 72 74 41 64 64
             72 65 73 73
      002669 00                    5218 	.db	0
      00266A 00 00 00 D1           5219 	.dw	0,209
      00266E 04                    5220 	.uleb128	4
      00266F 75 31 36 49 41 50 44  5221 	.ascii "u16IAPDataSize"
             61 74 61 53 69 7A 65
      00267D 00                    5222 	.db	0
      00267E 00 00 00 D1           5223 	.dw	0,209
      002682 08                    5224 	.uleb128	8
      002683 00 00 03 87           5225 	.dw	0,903
      002687 00 00 05 F4           5226 	.dw	0,(Siap$Program_APROM$132)
      00268B 00 00 06 33           5227 	.dw	0,(Siap$Program_APROM$140)
      00268F 05                    5228 	.uleb128	5
      002690 00 00 06 2E           5229 	.dw	0,(Siap$Program_APROM$137)
      002694 00 00 06 33           5230 	.dw	0,(Siap$Program_APROM$139)
      002698 00                    5231 	.uleb128	0
      002699 06                    5232 	.uleb128	6
      00269A 75 31 36 43 6F 75 6E  5233 	.ascii "u16Count"
             74
      0026A2 00                    5234 	.db	0
      0026A3 00 00 00 D1           5235 	.dw	0,209
      0026A7 00                    5236 	.uleb128	0
      0026A8 02                    5237 	.uleb128	2
      0026A9 00 00 04 15           5238 	.dw	0,1045
      0026AD 50 72 6F 67 72 61 6D  5239 	.ascii "Program_Verify_APROM"
             5F 56 65 72 69 66 79
             5F 41 50 52 4F 4D
      0026C1 00                    5240 	.db	0
      0026C2 00 00 06 61           5241 	.dw	0,(_Program_Verify_APROM)
      0026C6 00 00 06 F3           5242 	.dw	0,(XG$Program_Verify_APROM$0$0+1)
      0026CA 01                    5243 	.db	1
      0026CB 00 00 01 04           5244 	.dw	0,(Ldebug_loc_start+120)
      0026CF 03                    5245 	.uleb128	3
      0026D0 05                    5246 	.db	5
      0026D1 03                    5247 	.db	3
      0026D2 00 00 00 C6           5248 	.dw	0,(_Program_Verify_APROM_u16IAPStartAddress_65536_184)
      0026D6 75 31 36 49 41 50 53  5249 	.ascii "u16IAPStartAddress"
             74 61 72 74 41 64 64
             72 65 73 73
      0026E8 00                    5250 	.db	0
      0026E9 00 00 00 D1           5251 	.dw	0,209
      0026ED 04                    5252 	.uleb128	4
      0026EE 75 31 36 49 41 50 44  5253 	.ascii "u16IAPDataSize"
             61 74 61 53 69 7A 65
      0026FC 00                    5254 	.db	0
      0026FD 00 00 00 D1           5255 	.dw	0,209
      002701 08                    5256 	.uleb128	8
      002702 00 00 04 06           5257 	.dw	0,1030
      002706 00 00 06 A1           5258 	.dw	0,(Siap$Program_Verify_APROM$154)
      00270A 00 00 06 D8           5259 	.dw	0,(Siap$Program_Verify_APROM$164)
      00270E 05                    5260 	.uleb128	5
      00270F 00 00 06 D3           5261 	.dw	0,(Siap$Program_Verify_APROM$161)
      002713 00 00 06 D8           5262 	.dw	0,(Siap$Program_Verify_APROM$163)
      002717 00                    5263 	.uleb128	0
      002718 06                    5264 	.uleb128	6
      002719 75 31 36 43 6F 75 6E  5265 	.ascii "u16Count"
             74
      002721 00                    5266 	.db	0
      002722 00 00 00 D1           5267 	.dw	0,209
      002726 00                    5268 	.uleb128	0
      002727 02                    5269 	.uleb128	2
      002728 00 00 04 A0           5270 	.dw	0,1184
      00272C 4D 6F 64 69 66 79 5F  5271 	.ascii "Modify_CONFIG"
             43 4F 4E 46 49 47
      002739 00                    5272 	.db	0
      00273A 00 00 06 F3           5273 	.dw	0,(_Modify_CONFIG)
      00273E 00 00 0A 2E           5274 	.dw	0,(XG$Modify_CONFIG$0$0+1)
      002742 01                    5275 	.db	1
      002743 00 00 00 F0           5276 	.dw	0,(Ldebug_loc_start+100)
      002747 03                    5277 	.uleb128	3
      002748 05                    5278 	.db	5
      002749 03                    5279 	.db	3
      00274A 00 00 00 CC           5280 	.dw	0,(_Modify_CONFIG_u8CF0_65536_189)
      00274E 75 38 43 46 30        5281 	.ascii "u8CF0"
      002753 00                    5282 	.db	0
      002754 00 00 04 A0           5283 	.dw	0,1184
      002758 04                    5284 	.uleb128	4
      002759 75 38 43 46 31        5285 	.ascii "u8CF1"
      00275E 00                    5286 	.db	0
      00275F 00 00 04 A0           5287 	.dw	0,1184
      002763 04                    5288 	.uleb128	4
      002764 75 38 43 46 32        5289 	.ascii "u8CF2"
      002769 00                    5290 	.db	0
      00276A 00 00 04 A0           5291 	.dw	0,1184
      00276E 04                    5292 	.uleb128	4
      00276F 75 38 43 46 33        5293 	.ascii "u8CF3"
      002774 00                    5294 	.db	0
      002775 00 00 04 A0           5295 	.dw	0,1184
      002779 04                    5296 	.uleb128	4
      00277A 75 38 43 46 34        5297 	.ascii "u8CF4"
      00277F 00                    5298 	.db	0
      002780 00 00 04 A0           5299 	.dw	0,1184
      002784 08                    5300 	.uleb128	8
      002785 00 00 04 92           5301 	.dw	0,1170
      002789 00 00 07 01           5302 	.dw	0,(Siap$Modify_CONFIG$173)
      00278D 00 00 07 C6           5303 	.dw	0,(Siap$Modify_CONFIG$196)
      002791 05                    5304 	.uleb128	5
      002792 00 00 07 C8           5305 	.dw	0,(Siap$Modify_CONFIG$198)
      002796 00 00 07 EA           5306 	.dw	0,(Siap$Modify_CONFIG$202)
      00279A 05                    5307 	.uleb128	5
      00279B 00 00 09 C7           5308 	.dw	0,(Siap$Modify_CONFIG$242)
      00279F 00 00 09 FA           5309 	.dw	0,(Siap$Modify_CONFIG$246)
      0027A3 00                    5310 	.uleb128	0
      0027A4 06                    5311 	.uleb128	6
      0027A5 75 38 43 6F 75 6E 74  5312 	.ascii "u8Count"
      0027AC 00                    5313 	.db	0
      0027AD 00 00 04 A0           5314 	.dw	0,1184
      0027B1 00                    5315 	.uleb128	0
      0027B2 07                    5316 	.uleb128	7
      0027B3 75 6E 73 69 67 6E 65  5317 	.ascii "unsigned char"
             64 20 63 68 61 72
      0027C0 00                    5318 	.db	0
      0027C1 01                    5319 	.db	1
      0027C2 08                    5320 	.db	8
      0027C3 02                    5321 	.uleb128	2
      0027C4 00 00 04 E6           5322 	.dw	0,1254
      0027C8 52 65 61 64 5F 43 4F  5323 	.ascii "Read_CONFIG"
             4E 46 49 47
      0027D3 00                    5324 	.db	0
      0027D4 00 00 0A 2E           5325 	.dw	0,(_Read_CONFIG)
      0027D8 00 00 0A 96           5326 	.dw	0,(XG$Read_CONFIG$0$0+1)
      0027DC 01                    5327 	.db	1
      0027DD 00 00 00 DC           5328 	.dw	0,(Ldebug_loc_start+80)
      0027E1 05                    5329 	.uleb128	5
      0027E2 00 00 0A 49           5330 	.dw	0,(Siap$Read_CONFIG$262)
      0027E6 00 00 0A 7C           5331 	.dw	0,(Siap$Read_CONFIG$266)
      0027EA 06                    5332 	.uleb128	6
      0027EB 75 38 43 6F 75 6E 74  5333 	.ascii "u8Count"
      0027F2 00                    5334 	.db	0
      0027F3 00 00 04 A0           5335 	.dw	0,1184
      0027F7 00                    5336 	.uleb128	0
      0027F8 02                    5337 	.uleb128	2
      0027F9 00 00 05 18           5338 	.dw	0,1304
      0027FD 52 65 61 64 5F 55 49  5339 	.ascii "Read_UID"
             44
      002805 00                    5340 	.db	0
      002806 00 00 0A 96           5341 	.dw	0,(_Read_UID)
      00280A 00 00 0A F6           5342 	.dw	0,(XG$Read_UID$0$0+1)
      00280E 01                    5343 	.db	1
      00280F 00 00 00 C8           5344 	.dw	0,(Ldebug_loc_start+60)
      002813 05                    5345 	.uleb128	5
      002814 00 00 0A B4           5346 	.dw	0,(Siap$Read_UID$279)
      002818 00 00 0A DC           5347 	.dw	0,(Siap$Read_UID$284)
      00281C 06                    5348 	.uleb128	6
      00281D 75 38 43 6F 75 6E 74  5349 	.ascii "u8Count"
      002824 00                    5350 	.db	0
      002825 00 00 04 A0           5351 	.dw	0,1184
      002829 00                    5352 	.uleb128	0
      00282A 02                    5353 	.uleb128	2
      00282B 00 00 05 4B           5354 	.dw	0,1355
      00282F 52 65 61 64 5F 55 43  5355 	.ascii "Read_UCID"
             49 44
      002838 00                    5356 	.db	0
      002839 00 00 0A F6           5357 	.dw	0,(_Read_UCID)
      00283D 00 00 0B 56           5358 	.dw	0,(XG$Read_UCID$0$0+1)
      002841 01                    5359 	.db	1
      002842 00 00 00 B4           5360 	.dw	0,(Ldebug_loc_start+40)
      002846 05                    5361 	.uleb128	5
      002847 00 00 0B 14           5362 	.dw	0,(Siap$Read_UCID$297)
      00284B 00 00 0B 3C           5363 	.dw	0,(Siap$Read_UCID$302)
      00284F 06                    5364 	.uleb128	6
      002850 75 38 43 6F 75 6E 74  5365 	.ascii "u8Count"
      002857 00                    5366 	.db	0
      002858 00 00 04 A0           5367 	.dw	0,1184
      00285C 00                    5368 	.uleb128	0
      00285D 02                    5369 	.uleb128	2
      00285E 00 00 05 7D           5370 	.dw	0,1405
      002862 52 65 61 64 5F 44 49  5371 	.ascii "Read_DID"
             44
      00286A 00                    5372 	.db	0
      00286B 00 00 0B 56           5373 	.dw	0,(_Read_DID)
      00286F 00 00 0B B6           5374 	.dw	0,(XG$Read_DID$0$0+1)
      002873 01                    5375 	.db	1
      002874 00 00 00 A0           5376 	.dw	0,(Ldebug_loc_start+20)
      002878 05                    5377 	.uleb128	5
      002879 00 00 0B 74           5378 	.dw	0,(Siap$Read_DID$315)
      00287D 00 00 0B 9C           5379 	.dw	0,(Siap$Read_DID$320)
      002881 06                    5380 	.uleb128	6
      002882 75 38 43 6F 75 6E 74  5381 	.ascii "u8Count"
      002889 00                    5382 	.db	0
      00288A 00 00 04 A0           5383 	.dw	0,1184
      00288E 00                    5384 	.uleb128	0
      00288F 02                    5385 	.uleb128	2
      002890 00 00 05 AF           5386 	.dw	0,1455
      002894 52 65 61 64 5F 50 49  5387 	.ascii "Read_PID"
             44
      00289C 00                    5388 	.db	0
      00289D 00 00 0B B6           5389 	.dw	0,(_Read_PID)
      0028A1 00 00 0C 16           5390 	.dw	0,(XG$Read_PID$0$0+1)
      0028A5 01                    5391 	.db	1
      0028A6 00 00 00 8C           5392 	.dw	0,(Ldebug_loc_start)
      0028AA 05                    5393 	.uleb128	5
      0028AB 00 00 0B D4           5394 	.dw	0,(Siap$Read_PID$333)
      0028AF 00 00 0B FC           5395 	.dw	0,(Siap$Read_PID$338)
      0028B3 06                    5396 	.uleb128	6
      0028B4 75 38 43 6F 75 6E 74  5397 	.ascii "u8Count"
      0028BB 00                    5398 	.db	0
      0028BC 00 00 04 A0           5399 	.dw	0,1184
      0028C0 00                    5400 	.uleb128	0
      0028C1 07                    5401 	.uleb128	7
      0028C2 5F 62 69 74           5402 	.ascii "_bit"
      0028C6 00                    5403 	.db	0
      0028C7 01                    5404 	.db	1
      0028C8 08                    5405 	.db	8
      0028C9 09                    5406 	.uleb128	9
      0028CA 05                    5407 	.db	5
      0028CB 03                    5408 	.db	3
      0028CC 00 00 00 00           5409 	.dw	0,(_BIT_TMP)
      0028D0 42 49 54 5F 54 4D 50  5410 	.ascii "BIT_TMP"
      0028D7 00                    5411 	.db	0
      0028D8 01                    5412 	.db	1
      0028D9 01                    5413 	.db	1
      0028DA 00 00 05 AF           5414 	.dw	0,1455
      0028DE 0A                    5415 	.uleb128	10
      0028DF 05                    5416 	.db	5
      0028E0 03                    5417 	.db	3
      0028E1 00 00 00 01           5418 	.dw	0,(_ConfigModifyFlag)
      0028E5 43 6F 6E 66 69 67 4D  5419 	.ascii "ConfigModifyFlag"
             6F 64 69 66 79 46 6C
             61 67
      0028F5 00                    5420 	.db	0
      0028F6 01                    5421 	.db	1
      0028F7 00 00 05 AF           5422 	.dw	0,1455
      0028FB 0B                    5423 	.uleb128	11
      0028FC 00 00 04 A0           5424 	.dw	0,1184
      002900 0C                    5425 	.uleb128	12
      002901 00 00 05 FB           5426 	.dw	0,1531
      002905 02                    5427 	.db	2
      002906 00 00 05 E9           5428 	.dw	0,1513
      00290A 0D                    5429 	.uleb128	13
      00290B 01                    5430 	.db	1
      00290C 00                    5431 	.uleb128	0
      00290D 0A                    5432 	.uleb128	10
      00290E 05                    5433 	.db	5
      00290F 03                    5434 	.db	3
      002910 00 00 00 07           5435 	.dw	0,(_DIDBuffer)
      002914 44 49 44 42 75 66 66  5436 	.ascii "DIDBuffer"
             65 72
      00291D 00                    5437 	.db	0
      00291E 01                    5438 	.db	1
      00291F 00 00 05 EE           5439 	.dw	0,1518
      002923 0A                    5440 	.uleb128	10
      002924 05                    5441 	.db	5
      002925 03                    5442 	.db	3
      002926 00 00 00 09           5443 	.dw	0,(_PIDBuffer)
      00292A 50 49 44 42 75 66 66  5444 	.ascii "PIDBuffer"
             65 72
      002933 00                    5445 	.db	0
      002934 01                    5446 	.db	1
      002935 00 00 05 EE           5447 	.dw	0,1518
      002939 0C                    5448 	.uleb128	12
      00293A 00 00 06 34           5449 	.dw	0,1588
      00293E 0C                    5450 	.db	12
      00293F 00 00 05 E9           5451 	.dw	0,1513
      002943 0D                    5452 	.uleb128	13
      002944 0B                    5453 	.db	11
      002945 00                    5454 	.uleb128	0
      002946 0A                    5455 	.uleb128	10
      002947 05                    5456 	.db	5
      002948 03                    5457 	.db	3
      002949 00 00 00 0B           5458 	.dw	0,(_UIDBuffer)
      00294D 55 49 44 42 75 66 66  5459 	.ascii "UIDBuffer"
             65 72
      002956 00                    5460 	.db	0
      002957 01                    5461 	.db	1
      002958 00 00 06 27           5462 	.dw	0,1575
      00295C 0A                    5463 	.uleb128	10
      00295D 05                    5464 	.db	5
      00295E 03                    5465 	.db	3
      00295F 00 00 00 17           5466 	.dw	0,(_UCIDBuffer)
      002963 55 43 49 44 42 75 66  5467 	.ascii "UCIDBuffer"
             66 65 72
      00296D 00                    5468 	.db	0
      00296E 01                    5469 	.db	1
      00296F 00 00 06 27           5470 	.dw	0,1575
      002973 0C                    5471 	.uleb128	12
      002974 00 00 06 6E           5472 	.dw	0,1646
      002978 80                    5473 	.db	128
      002979 00 00 05 E9           5474 	.dw	0,1513
      00297D 0D                    5475 	.uleb128	13
      00297E 7F                    5476 	.db	127
      00297F 00                    5477 	.uleb128	0
      002980 0A                    5478 	.uleb128	10
      002981 05                    5479 	.db	5
      002982 03                    5480 	.db	3
      002983 00 00 00 23           5481 	.dw	0,(_IAPDataBuf)
      002987 49 41 50 44 61 74 61  5482 	.ascii "IAPDataBuf"
             42 75 66
      002991 00                    5483 	.db	0
      002992 01                    5484 	.db	1
      002993 00 00 06 61           5485 	.dw	0,1633
      002997 0C                    5486 	.uleb128	12
      002998 00 00 06 92           5487 	.dw	0,1682
      00299C 05                    5488 	.db	5
      00299D 00 00 05 E9           5489 	.dw	0,1513
      0029A1 0D                    5490 	.uleb128	13
      0029A2 04                    5491 	.db	4
      0029A3 00                    5492 	.uleb128	0
      0029A4 0A                    5493 	.uleb128	10
      0029A5 05                    5494 	.db	5
      0029A6 03                    5495 	.db	3
      0029A7 00 00 00 A3           5496 	.dw	0,(_IAPCFBuf)
      0029AB 49 41 50 43 46 42 75  5497 	.ascii "IAPCFBuf"
             66
      0029B3 00                    5498 	.db	0
      0029B4 01                    5499 	.db	1
      0029B5 00 00 06 85           5500 	.dw	0,1669
      0029B9 0A                    5501 	.uleb128	10
      0029BA 05                    5502 	.db	5
      0029BB 03                    5503 	.db	3
      0029BC 00 00 00 80           5504 	.dw	0,(_P0)
      0029C0 50 30                 5505 	.ascii "P0"
      0029C2 00                    5506 	.db	0
      0029C3 01                    5507 	.db	1
      0029C4 00 00 05 E9           5508 	.dw	0,1513
      0029C8 0A                    5509 	.uleb128	10
      0029C9 05                    5510 	.db	5
      0029CA 03                    5511 	.db	3
      0029CB 00 00 00 81           5512 	.dw	0,(_SP)
      0029CF 53 50                 5513 	.ascii "SP"
      0029D1 00                    5514 	.db	0
      0029D2 01                    5515 	.db	1
      0029D3 00 00 05 E9           5516 	.dw	0,1513
      0029D7 0A                    5517 	.uleb128	10
      0029D8 05                    5518 	.db	5
      0029D9 03                    5519 	.db	3
      0029DA 00 00 00 82           5520 	.dw	0,(_DPL)
      0029DE 44 50 4C              5521 	.ascii "DPL"
      0029E1 00                    5522 	.db	0
      0029E2 01                    5523 	.db	1
      0029E3 00 00 05 E9           5524 	.dw	0,1513
      0029E7 0A                    5525 	.uleb128	10
      0029E8 05                    5526 	.db	5
      0029E9 03                    5527 	.db	3
      0029EA 00 00 00 83           5528 	.dw	0,(_DPH)
      0029EE 44 50 48              5529 	.ascii "DPH"
      0029F1 00                    5530 	.db	0
      0029F2 01                    5531 	.db	1
      0029F3 00 00 05 E9           5532 	.dw	0,1513
      0029F7 0A                    5533 	.uleb128	10
      0029F8 05                    5534 	.db	5
      0029F9 03                    5535 	.db	3
      0029FA 00 00 00 84           5536 	.dw	0,(_RCTRIM0)
      0029FE 52 43 54 52 49 4D 30  5537 	.ascii "RCTRIM0"
      002A05 00                    5538 	.db	0
      002A06 01                    5539 	.db	1
      002A07 00 00 05 E9           5540 	.dw	0,1513
      002A0B 0A                    5541 	.uleb128	10
      002A0C 05                    5542 	.db	5
      002A0D 03                    5543 	.db	3
      002A0E 00 00 00 85           5544 	.dw	0,(_RCTRIM1)
      002A12 52 43 54 52 49 4D 31  5545 	.ascii "RCTRIM1"
      002A19 00                    5546 	.db	0
      002A1A 01                    5547 	.db	1
      002A1B 00 00 05 E9           5548 	.dw	0,1513
      002A1F 0A                    5549 	.uleb128	10
      002A20 05                    5550 	.db	5
      002A21 03                    5551 	.db	3
      002A22 00 00 00 86           5552 	.dw	0,(_RWK)
      002A26 52 57 4B              5553 	.ascii "RWK"
      002A29 00                    5554 	.db	0
      002A2A 01                    5555 	.db	1
      002A2B 00 00 05 E9           5556 	.dw	0,1513
      002A2F 0A                    5557 	.uleb128	10
      002A30 05                    5558 	.db	5
      002A31 03                    5559 	.db	3
      002A32 00 00 00 87           5560 	.dw	0,(_PCON)
      002A36 50 43 4F 4E           5561 	.ascii "PCON"
      002A3A 00                    5562 	.db	0
      002A3B 01                    5563 	.db	1
      002A3C 00 00 05 E9           5564 	.dw	0,1513
      002A40 0A                    5565 	.uleb128	10
      002A41 05                    5566 	.db	5
      002A42 03                    5567 	.db	3
      002A43 00 00 00 88           5568 	.dw	0,(_TCON)
      002A47 54 43 4F 4E           5569 	.ascii "TCON"
      002A4B 00                    5570 	.db	0
      002A4C 01                    5571 	.db	1
      002A4D 00 00 05 E9           5572 	.dw	0,1513
      002A51 0A                    5573 	.uleb128	10
      002A52 05                    5574 	.db	5
      002A53 03                    5575 	.db	3
      002A54 00 00 00 89           5576 	.dw	0,(_TMOD)
      002A58 54 4D 4F 44           5577 	.ascii "TMOD"
      002A5C 00                    5578 	.db	0
      002A5D 01                    5579 	.db	1
      002A5E 00 00 05 E9           5580 	.dw	0,1513
      002A62 0A                    5581 	.uleb128	10
      002A63 05                    5582 	.db	5
      002A64 03                    5583 	.db	3
      002A65 00 00 00 8A           5584 	.dw	0,(_TL0)
      002A69 54 4C 30              5585 	.ascii "TL0"
      002A6C 00                    5586 	.db	0
      002A6D 01                    5587 	.db	1
      002A6E 00 00 05 E9           5588 	.dw	0,1513
      002A72 0A                    5589 	.uleb128	10
      002A73 05                    5590 	.db	5
      002A74 03                    5591 	.db	3
      002A75 00 00 00 8B           5592 	.dw	0,(_TL1)
      002A79 54 4C 31              5593 	.ascii "TL1"
      002A7C 00                    5594 	.db	0
      002A7D 01                    5595 	.db	1
      002A7E 00 00 05 E9           5596 	.dw	0,1513
      002A82 0A                    5597 	.uleb128	10
      002A83 05                    5598 	.db	5
      002A84 03                    5599 	.db	3
      002A85 00 00 00 8C           5600 	.dw	0,(_TH0)
      002A89 54 48 30              5601 	.ascii "TH0"
      002A8C 00                    5602 	.db	0
      002A8D 01                    5603 	.db	1
      002A8E 00 00 05 E9           5604 	.dw	0,1513
      002A92 0A                    5605 	.uleb128	10
      002A93 05                    5606 	.db	5
      002A94 03                    5607 	.db	3
      002A95 00 00 00 8D           5608 	.dw	0,(_TH1)
      002A99 54 48 31              5609 	.ascii "TH1"
      002A9C 00                    5610 	.db	0
      002A9D 01                    5611 	.db	1
      002A9E 00 00 05 E9           5612 	.dw	0,1513
      002AA2 0A                    5613 	.uleb128	10
      002AA3 05                    5614 	.db	5
      002AA4 03                    5615 	.db	3
      002AA5 00 00 00 8E           5616 	.dw	0,(_CKCON)
      002AA9 43 4B 43 4F 4E        5617 	.ascii "CKCON"
      002AAE 00                    5618 	.db	0
      002AAF 01                    5619 	.db	1
      002AB0 00 00 05 E9           5620 	.dw	0,1513
      002AB4 0A                    5621 	.uleb128	10
      002AB5 05                    5622 	.db	5
      002AB6 03                    5623 	.db	3
      002AB7 00 00 00 8F           5624 	.dw	0,(_WKCON)
      002ABB 57 4B 43 4F 4E        5625 	.ascii "WKCON"
      002AC0 00                    5626 	.db	0
      002AC1 01                    5627 	.db	1
      002AC2 00 00 05 E9           5628 	.dw	0,1513
      002AC6 0A                    5629 	.uleb128	10
      002AC7 05                    5630 	.db	5
      002AC8 03                    5631 	.db	3
      002AC9 00 00 00 90           5632 	.dw	0,(_P1)
      002ACD 50 31                 5633 	.ascii "P1"
      002ACF 00                    5634 	.db	0
      002AD0 01                    5635 	.db	1
      002AD1 00 00 05 E9           5636 	.dw	0,1513
      002AD5 0A                    5637 	.uleb128	10
      002AD6 05                    5638 	.db	5
      002AD7 03                    5639 	.db	3
      002AD8 00 00 00 91           5640 	.dw	0,(_SFRS)
      002ADC 53 46 52 53           5641 	.ascii "SFRS"
      002AE0 00                    5642 	.db	0
      002AE1 01                    5643 	.db	1
      002AE2 00 00 05 E9           5644 	.dw	0,1513
      002AE6 0A                    5645 	.uleb128	10
      002AE7 05                    5646 	.db	5
      002AE8 03                    5647 	.db	3
      002AE9 00 00 00 92           5648 	.dw	0,(_CAPCON0)
      002AED 43 41 50 43 4F 4E 30  5649 	.ascii "CAPCON0"
      002AF4 00                    5650 	.db	0
      002AF5 01                    5651 	.db	1
      002AF6 00 00 05 E9           5652 	.dw	0,1513
      002AFA 0A                    5653 	.uleb128	10
      002AFB 05                    5654 	.db	5
      002AFC 03                    5655 	.db	3
      002AFD 00 00 00 93           5656 	.dw	0,(_CAPCON1)
      002B01 43 41 50 43 4F 4E 31  5657 	.ascii "CAPCON1"
      002B08 00                    5658 	.db	0
      002B09 01                    5659 	.db	1
      002B0A 00 00 05 E9           5660 	.dw	0,1513
      002B0E 0A                    5661 	.uleb128	10
      002B0F 05                    5662 	.db	5
      002B10 03                    5663 	.db	3
      002B11 00 00 00 94           5664 	.dw	0,(_CAPCON2)
      002B15 43 41 50 43 4F 4E 32  5665 	.ascii "CAPCON2"
      002B1C 00                    5666 	.db	0
      002B1D 01                    5667 	.db	1
      002B1E 00 00 05 E9           5668 	.dw	0,1513
      002B22 0A                    5669 	.uleb128	10
      002B23 05                    5670 	.db	5
      002B24 03                    5671 	.db	3
      002B25 00 00 00 95           5672 	.dw	0,(_CKDIV)
      002B29 43 4B 44 49 56        5673 	.ascii "CKDIV"
      002B2E 00                    5674 	.db	0
      002B2F 01                    5675 	.db	1
      002B30 00 00 05 E9           5676 	.dw	0,1513
      002B34 0A                    5677 	.uleb128	10
      002B35 05                    5678 	.db	5
      002B36 03                    5679 	.db	3
      002B37 00 00 00 96           5680 	.dw	0,(_CKSWT)
      002B3B 43 4B 53 57 54        5681 	.ascii "CKSWT"
      002B40 00                    5682 	.db	0
      002B41 01                    5683 	.db	1
      002B42 00 00 05 E9           5684 	.dw	0,1513
      002B46 0A                    5685 	.uleb128	10
      002B47 05                    5686 	.db	5
      002B48 03                    5687 	.db	3
      002B49 00 00 00 97           5688 	.dw	0,(_CKEN)
      002B4D 43 4B 45 4E           5689 	.ascii "CKEN"
      002B51 00                    5690 	.db	0
      002B52 01                    5691 	.db	1
      002B53 00 00 05 E9           5692 	.dw	0,1513
      002B57 0A                    5693 	.uleb128	10
      002B58 05                    5694 	.db	5
      002B59 03                    5695 	.db	3
      002B5A 00 00 00 98           5696 	.dw	0,(_SCON)
      002B5E 53 43 4F 4E           5697 	.ascii "SCON"
      002B62 00                    5698 	.db	0
      002B63 01                    5699 	.db	1
      002B64 00 00 05 E9           5700 	.dw	0,1513
      002B68 0A                    5701 	.uleb128	10
      002B69 05                    5702 	.db	5
      002B6A 03                    5703 	.db	3
      002B6B 00 00 00 99           5704 	.dw	0,(_SBUF)
      002B6F 53 42 55 46           5705 	.ascii "SBUF"
      002B73 00                    5706 	.db	0
      002B74 01                    5707 	.db	1
      002B75 00 00 05 E9           5708 	.dw	0,1513
      002B79 0A                    5709 	.uleb128	10
      002B7A 05                    5710 	.db	5
      002B7B 03                    5711 	.db	3
      002B7C 00 00 00 9A           5712 	.dw	0,(_SBUF_1)
      002B80 53 42 55 46 5F 31     5713 	.ascii "SBUF_1"
      002B86 00                    5714 	.db	0
      002B87 01                    5715 	.db	1
      002B88 00 00 05 E9           5716 	.dw	0,1513
      002B8C 0A                    5717 	.uleb128	10
      002B8D 05                    5718 	.db	5
      002B8E 03                    5719 	.db	3
      002B8F 00 00 00 9B           5720 	.dw	0,(_EIE)
      002B93 45 49 45              5721 	.ascii "EIE"
      002B96 00                    5722 	.db	0
      002B97 01                    5723 	.db	1
      002B98 00 00 05 E9           5724 	.dw	0,1513
      002B9C 0A                    5725 	.uleb128	10
      002B9D 05                    5726 	.db	5
      002B9E 03                    5727 	.db	3
      002B9F 00 00 00 9C           5728 	.dw	0,(_EIE1)
      002BA3 45 49 45 31           5729 	.ascii "EIE1"
      002BA7 00                    5730 	.db	0
      002BA8 01                    5731 	.db	1
      002BA9 00 00 05 E9           5732 	.dw	0,1513
      002BAD 0A                    5733 	.uleb128	10
      002BAE 05                    5734 	.db	5
      002BAF 03                    5735 	.db	3
      002BB0 00 00 00 9F           5736 	.dw	0,(_CHPCON)
      002BB4 43 48 50 43 4F 4E     5737 	.ascii "CHPCON"
      002BBA 00                    5738 	.db	0
      002BBB 01                    5739 	.db	1
      002BBC 00 00 05 E9           5740 	.dw	0,1513
      002BC0 0A                    5741 	.uleb128	10
      002BC1 05                    5742 	.db	5
      002BC2 03                    5743 	.db	3
      002BC3 00 00 00 A0           5744 	.dw	0,(_P2)
      002BC7 50 32                 5745 	.ascii "P2"
      002BC9 00                    5746 	.db	0
      002BCA 01                    5747 	.db	1
      002BCB 00 00 05 E9           5748 	.dw	0,1513
      002BCF 0A                    5749 	.uleb128	10
      002BD0 05                    5750 	.db	5
      002BD1 03                    5751 	.db	3
      002BD2 00 00 00 A2           5752 	.dw	0,(_AUXR1)
      002BD6 41 55 58 52 31        5753 	.ascii "AUXR1"
      002BDB 00                    5754 	.db	0
      002BDC 01                    5755 	.db	1
      002BDD 00 00 05 E9           5756 	.dw	0,1513
      002BE1 0A                    5757 	.uleb128	10
      002BE2 05                    5758 	.db	5
      002BE3 03                    5759 	.db	3
      002BE4 00 00 00 A3           5760 	.dw	0,(_BODCON0)
      002BE8 42 4F 44 43 4F 4E 30  5761 	.ascii "BODCON0"
      002BEF 00                    5762 	.db	0
      002BF0 01                    5763 	.db	1
      002BF1 00 00 05 E9           5764 	.dw	0,1513
      002BF5 0A                    5765 	.uleb128	10
      002BF6 05                    5766 	.db	5
      002BF7 03                    5767 	.db	3
      002BF8 00 00 00 A4           5768 	.dw	0,(_IAPTRG)
      002BFC 49 41 50 54 52 47     5769 	.ascii "IAPTRG"
      002C02 00                    5770 	.db	0
      002C03 01                    5771 	.db	1
      002C04 00 00 05 E9           5772 	.dw	0,1513
      002C08 0A                    5773 	.uleb128	10
      002C09 05                    5774 	.db	5
      002C0A 03                    5775 	.db	3
      002C0B 00 00 00 A5           5776 	.dw	0,(_IAPUEN)
      002C0F 49 41 50 55 45 4E     5777 	.ascii "IAPUEN"
      002C15 00                    5778 	.db	0
      002C16 01                    5779 	.db	1
      002C17 00 00 05 E9           5780 	.dw	0,1513
      002C1B 0A                    5781 	.uleb128	10
      002C1C 05                    5782 	.db	5
      002C1D 03                    5783 	.db	3
      002C1E 00 00 00 A6           5784 	.dw	0,(_IAPAL)
      002C22 49 41 50 41 4C        5785 	.ascii "IAPAL"
      002C27 00                    5786 	.db	0
      002C28 01                    5787 	.db	1
      002C29 00 00 05 E9           5788 	.dw	0,1513
      002C2D 0A                    5789 	.uleb128	10
      002C2E 05                    5790 	.db	5
      002C2F 03                    5791 	.db	3
      002C30 00 00 00 A7           5792 	.dw	0,(_IAPAH)
      002C34 49 41 50 41 48        5793 	.ascii "IAPAH"
      002C39 00                    5794 	.db	0
      002C3A 01                    5795 	.db	1
      002C3B 00 00 05 E9           5796 	.dw	0,1513
      002C3F 0A                    5797 	.uleb128	10
      002C40 05                    5798 	.db	5
      002C41 03                    5799 	.db	3
      002C42 00 00 00 A8           5800 	.dw	0,(_IE)
      002C46 49 45                 5801 	.ascii "IE"
      002C48 00                    5802 	.db	0
      002C49 01                    5803 	.db	1
      002C4A 00 00 05 E9           5804 	.dw	0,1513
      002C4E 0A                    5805 	.uleb128	10
      002C4F 05                    5806 	.db	5
      002C50 03                    5807 	.db	3
      002C51 00 00 00 A9           5808 	.dw	0,(_SADDR)
      002C55 53 41 44 44 52        5809 	.ascii "SADDR"
      002C5A 00                    5810 	.db	0
      002C5B 01                    5811 	.db	1
      002C5C 00 00 05 E9           5812 	.dw	0,1513
      002C60 0A                    5813 	.uleb128	10
      002C61 05                    5814 	.db	5
      002C62 03                    5815 	.db	3
      002C63 00 00 00 AA           5816 	.dw	0,(_WDCON)
      002C67 57 44 43 4F 4E        5817 	.ascii "WDCON"
      002C6C 00                    5818 	.db	0
      002C6D 01                    5819 	.db	1
      002C6E 00 00 05 E9           5820 	.dw	0,1513
      002C72 0A                    5821 	.uleb128	10
      002C73 05                    5822 	.db	5
      002C74 03                    5823 	.db	3
      002C75 00 00 00 AB           5824 	.dw	0,(_BODCON1)
      002C79 42 4F 44 43 4F 4E 31  5825 	.ascii "BODCON1"
      002C80 00                    5826 	.db	0
      002C81 01                    5827 	.db	1
      002C82 00 00 05 E9           5828 	.dw	0,1513
      002C86 0A                    5829 	.uleb128	10
      002C87 05                    5830 	.db	5
      002C88 03                    5831 	.db	3
      002C89 00 00 00 AC           5832 	.dw	0,(_P3M1)
      002C8D 50 33 4D 31           5833 	.ascii "P3M1"
      002C91 00                    5834 	.db	0
      002C92 01                    5835 	.db	1
      002C93 00 00 05 E9           5836 	.dw	0,1513
      002C97 0A                    5837 	.uleb128	10
      002C98 05                    5838 	.db	5
      002C99 03                    5839 	.db	3
      002C9A 00 00 00 AC           5840 	.dw	0,(_P3S)
      002C9E 50 33 53              5841 	.ascii "P3S"
      002CA1 00                    5842 	.db	0
      002CA2 01                    5843 	.db	1
      002CA3 00 00 05 E9           5844 	.dw	0,1513
      002CA7 0A                    5845 	.uleb128	10
      002CA8 05                    5846 	.db	5
      002CA9 03                    5847 	.db	3
      002CAA 00 00 00 AD           5848 	.dw	0,(_P3M2)
      002CAE 50 33 4D 32           5849 	.ascii "P3M2"
      002CB2 00                    5850 	.db	0
      002CB3 01                    5851 	.db	1
      002CB4 00 00 05 E9           5852 	.dw	0,1513
      002CB8 0A                    5853 	.uleb128	10
      002CB9 05                    5854 	.db	5
      002CBA 03                    5855 	.db	3
      002CBB 00 00 00 AD           5856 	.dw	0,(_P3SR)
      002CBF 50 33 53 52           5857 	.ascii "P3SR"
      002CC3 00                    5858 	.db	0
      002CC4 01                    5859 	.db	1
      002CC5 00 00 05 E9           5860 	.dw	0,1513
      002CC9 0A                    5861 	.uleb128	10
      002CCA 05                    5862 	.db	5
      002CCB 03                    5863 	.db	3
      002CCC 00 00 00 AE           5864 	.dw	0,(_IAPFD)
      002CD0 49 41 50 46 44        5865 	.ascii "IAPFD"
      002CD5 00                    5866 	.db	0
      002CD6 01                    5867 	.db	1
      002CD7 00 00 05 E9           5868 	.dw	0,1513
      002CDB 0A                    5869 	.uleb128	10
      002CDC 05                    5870 	.db	5
      002CDD 03                    5871 	.db	3
      002CDE 00 00 00 AF           5872 	.dw	0,(_IAPCN)
      002CE2 49 41 50 43 4E        5873 	.ascii "IAPCN"
      002CE7 00                    5874 	.db	0
      002CE8 01                    5875 	.db	1
      002CE9 00 00 05 E9           5876 	.dw	0,1513
      002CED 0A                    5877 	.uleb128	10
      002CEE 05                    5878 	.db	5
      002CEF 03                    5879 	.db	3
      002CF0 00 00 00 B0           5880 	.dw	0,(_P3)
      002CF4 50 33                 5881 	.ascii "P3"
      002CF6 00                    5882 	.db	0
      002CF7 01                    5883 	.db	1
      002CF8 00 00 05 E9           5884 	.dw	0,1513
      002CFC 0A                    5885 	.uleb128	10
      002CFD 05                    5886 	.db	5
      002CFE 03                    5887 	.db	3
      002CFF 00 00 00 B1           5888 	.dw	0,(_P0M1)
      002D03 50 30 4D 31           5889 	.ascii "P0M1"
      002D07 00                    5890 	.db	0
      002D08 01                    5891 	.db	1
      002D09 00 00 05 E9           5892 	.dw	0,1513
      002D0D 0A                    5893 	.uleb128	10
      002D0E 05                    5894 	.db	5
      002D0F 03                    5895 	.db	3
      002D10 00 00 00 B1           5896 	.dw	0,(_P0S)
      002D14 50 30 53              5897 	.ascii "P0S"
      002D17 00                    5898 	.db	0
      002D18 01                    5899 	.db	1
      002D19 00 00 05 E9           5900 	.dw	0,1513
      002D1D 0A                    5901 	.uleb128	10
      002D1E 05                    5902 	.db	5
      002D1F 03                    5903 	.db	3
      002D20 00 00 00 B2           5904 	.dw	0,(_P0M2)
      002D24 50 30 4D 32           5905 	.ascii "P0M2"
      002D28 00                    5906 	.db	0
      002D29 01                    5907 	.db	1
      002D2A 00 00 05 E9           5908 	.dw	0,1513
      002D2E 0A                    5909 	.uleb128	10
      002D2F 05                    5910 	.db	5
      002D30 03                    5911 	.db	3
      002D31 00 00 00 B2           5912 	.dw	0,(_P0SR)
      002D35 50 30 53 52           5913 	.ascii "P0SR"
      002D39 00                    5914 	.db	0
      002D3A 01                    5915 	.db	1
      002D3B 00 00 05 E9           5916 	.dw	0,1513
      002D3F 0A                    5917 	.uleb128	10
      002D40 05                    5918 	.db	5
      002D41 03                    5919 	.db	3
      002D42 00 00 00 B3           5920 	.dw	0,(_P1M1)
      002D46 50 31 4D 31           5921 	.ascii "P1M1"
      002D4A 00                    5922 	.db	0
      002D4B 01                    5923 	.db	1
      002D4C 00 00 05 E9           5924 	.dw	0,1513
      002D50 0A                    5925 	.uleb128	10
      002D51 05                    5926 	.db	5
      002D52 03                    5927 	.db	3
      002D53 00 00 00 B3           5928 	.dw	0,(_P1S)
      002D57 50 31 53              5929 	.ascii "P1S"
      002D5A 00                    5930 	.db	0
      002D5B 01                    5931 	.db	1
      002D5C 00 00 05 E9           5932 	.dw	0,1513
      002D60 0A                    5933 	.uleb128	10
      002D61 05                    5934 	.db	5
      002D62 03                    5935 	.db	3
      002D63 00 00 00 B4           5936 	.dw	0,(_P1M2)
      002D67 50 31 4D 32           5937 	.ascii "P1M2"
      002D6B 00                    5938 	.db	0
      002D6C 01                    5939 	.db	1
      002D6D 00 00 05 E9           5940 	.dw	0,1513
      002D71 0A                    5941 	.uleb128	10
      002D72 05                    5942 	.db	5
      002D73 03                    5943 	.db	3
      002D74 00 00 00 B4           5944 	.dw	0,(_P1SR)
      002D78 50 31 53 52           5945 	.ascii "P1SR"
      002D7C 00                    5946 	.db	0
      002D7D 01                    5947 	.db	1
      002D7E 00 00 05 E9           5948 	.dw	0,1513
      002D82 0A                    5949 	.uleb128	10
      002D83 05                    5950 	.db	5
      002D84 03                    5951 	.db	3
      002D85 00 00 00 B5           5952 	.dw	0,(_P2S)
      002D89 50 32 53              5953 	.ascii "P2S"
      002D8C 00                    5954 	.db	0
      002D8D 01                    5955 	.db	1
      002D8E 00 00 05 E9           5956 	.dw	0,1513
      002D92 0A                    5957 	.uleb128	10
      002D93 05                    5958 	.db	5
      002D94 03                    5959 	.db	3
      002D95 00 00 00 B7           5960 	.dw	0,(_IPH)
      002D99 49 50 48              5961 	.ascii "IPH"
      002D9C 00                    5962 	.db	0
      002D9D 01                    5963 	.db	1
      002D9E 00 00 05 E9           5964 	.dw	0,1513
      002DA2 0A                    5965 	.uleb128	10
      002DA3 05                    5966 	.db	5
      002DA4 03                    5967 	.db	3
      002DA5 00 00 00 B7           5968 	.dw	0,(_PWMINTC)
      002DA9 50 57 4D 49 4E 54 43  5969 	.ascii "PWMINTC"
      002DB0 00                    5970 	.db	0
      002DB1 01                    5971 	.db	1
      002DB2 00 00 05 E9           5972 	.dw	0,1513
      002DB6 0A                    5973 	.uleb128	10
      002DB7 05                    5974 	.db	5
      002DB8 03                    5975 	.db	3
      002DB9 00 00 00 B8           5976 	.dw	0,(_IP)
      002DBD 49 50                 5977 	.ascii "IP"
      002DBF 00                    5978 	.db	0
      002DC0 01                    5979 	.db	1
      002DC1 00 00 05 E9           5980 	.dw	0,1513
      002DC5 0A                    5981 	.uleb128	10
      002DC6 05                    5982 	.db	5
      002DC7 03                    5983 	.db	3
      002DC8 00 00 00 B9           5984 	.dw	0,(_SADEN)
      002DCC 53 41 44 45 4E        5985 	.ascii "SADEN"
      002DD1 00                    5986 	.db	0
      002DD2 01                    5987 	.db	1
      002DD3 00 00 05 E9           5988 	.dw	0,1513
      002DD7 0A                    5989 	.uleb128	10
      002DD8 05                    5990 	.db	5
      002DD9 03                    5991 	.db	3
      002DDA 00 00 00 BA           5992 	.dw	0,(_SADEN_1)
      002DDE 53 41 44 45 4E 5F 31  5993 	.ascii "SADEN_1"
      002DE5 00                    5994 	.db	0
      002DE6 01                    5995 	.db	1
      002DE7 00 00 05 E9           5996 	.dw	0,1513
      002DEB 0A                    5997 	.uleb128	10
      002DEC 05                    5998 	.db	5
      002DED 03                    5999 	.db	3
      002DEE 00 00 00 BB           6000 	.dw	0,(_SADDR_1)
      002DF2 53 41 44 44 52 5F 31  6001 	.ascii "SADDR_1"
      002DF9 00                    6002 	.db	0
      002DFA 01                    6003 	.db	1
      002DFB 00 00 05 E9           6004 	.dw	0,1513
      002DFF 0A                    6005 	.uleb128	10
      002E00 05                    6006 	.db	5
      002E01 03                    6007 	.db	3
      002E02 00 00 00 BC           6008 	.dw	0,(_I2DAT)
      002E06 49 32 44 41 54        6009 	.ascii "I2DAT"
      002E0B 00                    6010 	.db	0
      002E0C 01                    6011 	.db	1
      002E0D 00 00 05 E9           6012 	.dw	0,1513
      002E11 0A                    6013 	.uleb128	10
      002E12 05                    6014 	.db	5
      002E13 03                    6015 	.db	3
      002E14 00 00 00 BD           6016 	.dw	0,(_I2STAT)
      002E18 49 32 53 54 41 54     6017 	.ascii "I2STAT"
      002E1E 00                    6018 	.db	0
      002E1F 01                    6019 	.db	1
      002E20 00 00 05 E9           6020 	.dw	0,1513
      002E24 0A                    6021 	.uleb128	10
      002E25 05                    6022 	.db	5
      002E26 03                    6023 	.db	3
      002E27 00 00 00 BE           6024 	.dw	0,(_I2CLK)
      002E2B 49 32 43 4C 4B        6025 	.ascii "I2CLK"
      002E30 00                    6026 	.db	0
      002E31 01                    6027 	.db	1
      002E32 00 00 05 E9           6028 	.dw	0,1513
      002E36 0A                    6029 	.uleb128	10
      002E37 05                    6030 	.db	5
      002E38 03                    6031 	.db	3
      002E39 00 00 00 BF           6032 	.dw	0,(_I2TOC)
      002E3D 49 32 54 4F 43        6033 	.ascii "I2TOC"
      002E42 00                    6034 	.db	0
      002E43 01                    6035 	.db	1
      002E44 00 00 05 E9           6036 	.dw	0,1513
      002E48 0A                    6037 	.uleb128	10
      002E49 05                    6038 	.db	5
      002E4A 03                    6039 	.db	3
      002E4B 00 00 00 C0           6040 	.dw	0,(_I2CON)
      002E4F 49 32 43 4F 4E        6041 	.ascii "I2CON"
      002E54 00                    6042 	.db	0
      002E55 01                    6043 	.db	1
      002E56 00 00 05 E9           6044 	.dw	0,1513
      002E5A 0A                    6045 	.uleb128	10
      002E5B 05                    6046 	.db	5
      002E5C 03                    6047 	.db	3
      002E5D 00 00 00 C1           6048 	.dw	0,(_I2ADDR)
      002E61 49 32 41 44 44 52     6049 	.ascii "I2ADDR"
      002E67 00                    6050 	.db	0
      002E68 01                    6051 	.db	1
      002E69 00 00 05 E9           6052 	.dw	0,1513
      002E6D 0A                    6053 	.uleb128	10
      002E6E 05                    6054 	.db	5
      002E6F 03                    6055 	.db	3
      002E70 00 00 00 C2           6056 	.dw	0,(_ADCRL)
      002E74 41 44 43 52 4C        6057 	.ascii "ADCRL"
      002E79 00                    6058 	.db	0
      002E7A 01                    6059 	.db	1
      002E7B 00 00 05 E9           6060 	.dw	0,1513
      002E7F 0A                    6061 	.uleb128	10
      002E80 05                    6062 	.db	5
      002E81 03                    6063 	.db	3
      002E82 00 00 00 C3           6064 	.dw	0,(_ADCRH)
      002E86 41 44 43 52 48        6065 	.ascii "ADCRH"
      002E8B 00                    6066 	.db	0
      002E8C 01                    6067 	.db	1
      002E8D 00 00 05 E9           6068 	.dw	0,1513
      002E91 0A                    6069 	.uleb128	10
      002E92 05                    6070 	.db	5
      002E93 03                    6071 	.db	3
      002E94 00 00 00 C4           6072 	.dw	0,(_T3CON)
      002E98 54 33 43 4F 4E        6073 	.ascii "T3CON"
      002E9D 00                    6074 	.db	0
      002E9E 01                    6075 	.db	1
      002E9F 00 00 05 E9           6076 	.dw	0,1513
      002EA3 0A                    6077 	.uleb128	10
      002EA4 05                    6078 	.db	5
      002EA5 03                    6079 	.db	3
      002EA6 00 00 00 C4           6080 	.dw	0,(_PWM4H)
      002EAA 50 57 4D 34 48        6081 	.ascii "PWM4H"
      002EAF 00                    6082 	.db	0
      002EB0 01                    6083 	.db	1
      002EB1 00 00 05 E9           6084 	.dw	0,1513
      002EB5 0A                    6085 	.uleb128	10
      002EB6 05                    6086 	.db	5
      002EB7 03                    6087 	.db	3
      002EB8 00 00 00 C5           6088 	.dw	0,(_RL3)
      002EBC 52 4C 33              6089 	.ascii "RL3"
      002EBF 00                    6090 	.db	0
      002EC0 01                    6091 	.db	1
      002EC1 00 00 05 E9           6092 	.dw	0,1513
      002EC5 0A                    6093 	.uleb128	10
      002EC6 05                    6094 	.db	5
      002EC7 03                    6095 	.db	3
      002EC8 00 00 00 C5           6096 	.dw	0,(_PWM5H)
      002ECC 50 57 4D 35 48        6097 	.ascii "PWM5H"
      002ED1 00                    6098 	.db	0
      002ED2 01                    6099 	.db	1
      002ED3 00 00 05 E9           6100 	.dw	0,1513
      002ED7 0A                    6101 	.uleb128	10
      002ED8 05                    6102 	.db	5
      002ED9 03                    6103 	.db	3
      002EDA 00 00 00 C6           6104 	.dw	0,(_RH3)
      002EDE 52 48 33              6105 	.ascii "RH3"
      002EE1 00                    6106 	.db	0
      002EE2 01                    6107 	.db	1
      002EE3 00 00 05 E9           6108 	.dw	0,1513
      002EE7 0A                    6109 	.uleb128	10
      002EE8 05                    6110 	.db	5
      002EE9 03                    6111 	.db	3
      002EEA 00 00 00 C6           6112 	.dw	0,(_PIOCON1)
      002EEE 50 49 4F 43 4F 4E 31  6113 	.ascii "PIOCON1"
      002EF5 00                    6114 	.db	0
      002EF6 01                    6115 	.db	1
      002EF7 00 00 05 E9           6116 	.dw	0,1513
      002EFB 0A                    6117 	.uleb128	10
      002EFC 05                    6118 	.db	5
      002EFD 03                    6119 	.db	3
      002EFE 00 00 00 C7           6120 	.dw	0,(_TA)
      002F02 54 41                 6121 	.ascii "TA"
      002F04 00                    6122 	.db	0
      002F05 01                    6123 	.db	1
      002F06 00 00 05 E9           6124 	.dw	0,1513
      002F0A 0A                    6125 	.uleb128	10
      002F0B 05                    6126 	.db	5
      002F0C 03                    6127 	.db	3
      002F0D 00 00 00 C8           6128 	.dw	0,(_T2CON)
      002F11 54 32 43 4F 4E        6129 	.ascii "T2CON"
      002F16 00                    6130 	.db	0
      002F17 01                    6131 	.db	1
      002F18 00 00 05 E9           6132 	.dw	0,1513
      002F1C 0A                    6133 	.uleb128	10
      002F1D 05                    6134 	.db	5
      002F1E 03                    6135 	.db	3
      002F1F 00 00 00 C9           6136 	.dw	0,(_T2MOD)
      002F23 54 32 4D 4F 44        6137 	.ascii "T2MOD"
      002F28 00                    6138 	.db	0
      002F29 01                    6139 	.db	1
      002F2A 00 00 05 E9           6140 	.dw	0,1513
      002F2E 0A                    6141 	.uleb128	10
      002F2F 05                    6142 	.db	5
      002F30 03                    6143 	.db	3
      002F31 00 00 00 CA           6144 	.dw	0,(_RCMP2L)
      002F35 52 43 4D 50 32 4C     6145 	.ascii "RCMP2L"
      002F3B 00                    6146 	.db	0
      002F3C 01                    6147 	.db	1
      002F3D 00 00 05 E9           6148 	.dw	0,1513
      002F41 0A                    6149 	.uleb128	10
      002F42 05                    6150 	.db	5
      002F43 03                    6151 	.db	3
      002F44 00 00 00 CB           6152 	.dw	0,(_RCMP2H)
      002F48 52 43 4D 50 32 48     6153 	.ascii "RCMP2H"
      002F4E 00                    6154 	.db	0
      002F4F 01                    6155 	.db	1
      002F50 00 00 05 E9           6156 	.dw	0,1513
      002F54 0A                    6157 	.uleb128	10
      002F55 05                    6158 	.db	5
      002F56 03                    6159 	.db	3
      002F57 00 00 00 CC           6160 	.dw	0,(_TL2)
      002F5B 54 4C 32              6161 	.ascii "TL2"
      002F5E 00                    6162 	.db	0
      002F5F 01                    6163 	.db	1
      002F60 00 00 05 E9           6164 	.dw	0,1513
      002F64 0A                    6165 	.uleb128	10
      002F65 05                    6166 	.db	5
      002F66 03                    6167 	.db	3
      002F67 00 00 00 CC           6168 	.dw	0,(_PWM4L)
      002F6B 50 57 4D 34 4C        6169 	.ascii "PWM4L"
      002F70 00                    6170 	.db	0
      002F71 01                    6171 	.db	1
      002F72 00 00 05 E9           6172 	.dw	0,1513
      002F76 0A                    6173 	.uleb128	10
      002F77 05                    6174 	.db	5
      002F78 03                    6175 	.db	3
      002F79 00 00 00 CD           6176 	.dw	0,(_TH2)
      002F7D 54 48 32              6177 	.ascii "TH2"
      002F80 00                    6178 	.db	0
      002F81 01                    6179 	.db	1
      002F82 00 00 05 E9           6180 	.dw	0,1513
      002F86 0A                    6181 	.uleb128	10
      002F87 05                    6182 	.db	5
      002F88 03                    6183 	.db	3
      002F89 00 00 00 CD           6184 	.dw	0,(_PWM5L)
      002F8D 50 57 4D 35 4C        6185 	.ascii "PWM5L"
      002F92 00                    6186 	.db	0
      002F93 01                    6187 	.db	1
      002F94 00 00 05 E9           6188 	.dw	0,1513
      002F98 0A                    6189 	.uleb128	10
      002F99 05                    6190 	.db	5
      002F9A 03                    6191 	.db	3
      002F9B 00 00 00 CE           6192 	.dw	0,(_ADCMPL)
      002F9F 41 44 43 4D 50 4C     6193 	.ascii "ADCMPL"
      002FA5 00                    6194 	.db	0
      002FA6 01                    6195 	.db	1
      002FA7 00 00 05 E9           6196 	.dw	0,1513
      002FAB 0A                    6197 	.uleb128	10
      002FAC 05                    6198 	.db	5
      002FAD 03                    6199 	.db	3
      002FAE 00 00 00 CF           6200 	.dw	0,(_ADCMPH)
      002FB2 41 44 43 4D 50 48     6201 	.ascii "ADCMPH"
      002FB8 00                    6202 	.db	0
      002FB9 01                    6203 	.db	1
      002FBA 00 00 05 E9           6204 	.dw	0,1513
      002FBE 0A                    6205 	.uleb128	10
      002FBF 05                    6206 	.db	5
      002FC0 03                    6207 	.db	3
      002FC1 00 00 00 D0           6208 	.dw	0,(_PSW)
      002FC5 50 53 57              6209 	.ascii "PSW"
      002FC8 00                    6210 	.db	0
      002FC9 01                    6211 	.db	1
      002FCA 00 00 05 E9           6212 	.dw	0,1513
      002FCE 0A                    6213 	.uleb128	10
      002FCF 05                    6214 	.db	5
      002FD0 03                    6215 	.db	3
      002FD1 00 00 00 D1           6216 	.dw	0,(_PWMPH)
      002FD5 50 57 4D 50 48        6217 	.ascii "PWMPH"
      002FDA 00                    6218 	.db	0
      002FDB 01                    6219 	.db	1
      002FDC 00 00 05 E9           6220 	.dw	0,1513
      002FE0 0A                    6221 	.uleb128	10
      002FE1 05                    6222 	.db	5
      002FE2 03                    6223 	.db	3
      002FE3 00 00 00 D2           6224 	.dw	0,(_PWM0H)
      002FE7 50 57 4D 30 48        6225 	.ascii "PWM0H"
      002FEC 00                    6226 	.db	0
      002FED 01                    6227 	.db	1
      002FEE 00 00 05 E9           6228 	.dw	0,1513
      002FF2 0A                    6229 	.uleb128	10
      002FF3 05                    6230 	.db	5
      002FF4 03                    6231 	.db	3
      002FF5 00 00 00 D3           6232 	.dw	0,(_PWM1H)
      002FF9 50 57 4D 31 48        6233 	.ascii "PWM1H"
      002FFE 00                    6234 	.db	0
      002FFF 01                    6235 	.db	1
      003000 00 00 05 E9           6236 	.dw	0,1513
      003004 0A                    6237 	.uleb128	10
      003005 05                    6238 	.db	5
      003006 03                    6239 	.db	3
      003007 00 00 00 D4           6240 	.dw	0,(_PWM2H)
      00300B 50 57 4D 32 48        6241 	.ascii "PWM2H"
      003010 00                    6242 	.db	0
      003011 01                    6243 	.db	1
      003012 00 00 05 E9           6244 	.dw	0,1513
      003016 0A                    6245 	.uleb128	10
      003017 05                    6246 	.db	5
      003018 03                    6247 	.db	3
      003019 00 00 00 D5           6248 	.dw	0,(_PWM3H)
      00301D 50 57 4D 33 48        6249 	.ascii "PWM3H"
      003022 00                    6250 	.db	0
      003023 01                    6251 	.db	1
      003024 00 00 05 E9           6252 	.dw	0,1513
      003028 0A                    6253 	.uleb128	10
      003029 05                    6254 	.db	5
      00302A 03                    6255 	.db	3
      00302B 00 00 00 D6           6256 	.dw	0,(_PNP)
      00302F 50 4E 50              6257 	.ascii "PNP"
      003032 00                    6258 	.db	0
      003033 01                    6259 	.db	1
      003034 00 00 05 E9           6260 	.dw	0,1513
      003038 0A                    6261 	.uleb128	10
      003039 05                    6262 	.db	5
      00303A 03                    6263 	.db	3
      00303B 00 00 00 D7           6264 	.dw	0,(_FBD)
      00303F 46 42 44              6265 	.ascii "FBD"
      003042 00                    6266 	.db	0
      003043 01                    6267 	.db	1
      003044 00 00 05 E9           6268 	.dw	0,1513
      003048 0A                    6269 	.uleb128	10
      003049 05                    6270 	.db	5
      00304A 03                    6271 	.db	3
      00304B 00 00 00 D8           6272 	.dw	0,(_PWMCON0)
      00304F 50 57 4D 43 4F 4E 30  6273 	.ascii "PWMCON0"
      003056 00                    6274 	.db	0
      003057 01                    6275 	.db	1
      003058 00 00 05 E9           6276 	.dw	0,1513
      00305C 0A                    6277 	.uleb128	10
      00305D 05                    6278 	.db	5
      00305E 03                    6279 	.db	3
      00305F 00 00 00 D9           6280 	.dw	0,(_PWMPL)
      003063 50 57 4D 50 4C        6281 	.ascii "PWMPL"
      003068 00                    6282 	.db	0
      003069 01                    6283 	.db	1
      00306A 00 00 05 E9           6284 	.dw	0,1513
      00306E 0A                    6285 	.uleb128	10
      00306F 05                    6286 	.db	5
      003070 03                    6287 	.db	3
      003071 00 00 00 DA           6288 	.dw	0,(_PWM0L)
      003075 50 57 4D 30 4C        6289 	.ascii "PWM0L"
      00307A 00                    6290 	.db	0
      00307B 01                    6291 	.db	1
      00307C 00 00 05 E9           6292 	.dw	0,1513
      003080 0A                    6293 	.uleb128	10
      003081 05                    6294 	.db	5
      003082 03                    6295 	.db	3
      003083 00 00 00 DB           6296 	.dw	0,(_PWM1L)
      003087 50 57 4D 31 4C        6297 	.ascii "PWM1L"
      00308C 00                    6298 	.db	0
      00308D 01                    6299 	.db	1
      00308E 00 00 05 E9           6300 	.dw	0,1513
      003092 0A                    6301 	.uleb128	10
      003093 05                    6302 	.db	5
      003094 03                    6303 	.db	3
      003095 00 00 00 DC           6304 	.dw	0,(_PWM2L)
      003099 50 57 4D 32 4C        6305 	.ascii "PWM2L"
      00309E 00                    6306 	.db	0
      00309F 01                    6307 	.db	1
      0030A0 00 00 05 E9           6308 	.dw	0,1513
      0030A4 0A                    6309 	.uleb128	10
      0030A5 05                    6310 	.db	5
      0030A6 03                    6311 	.db	3
      0030A7 00 00 00 DD           6312 	.dw	0,(_PWM3L)
      0030AB 50 57 4D 33 4C        6313 	.ascii "PWM3L"
      0030B0 00                    6314 	.db	0
      0030B1 01                    6315 	.db	1
      0030B2 00 00 05 E9           6316 	.dw	0,1513
      0030B6 0A                    6317 	.uleb128	10
      0030B7 05                    6318 	.db	5
      0030B8 03                    6319 	.db	3
      0030B9 00 00 00 DE           6320 	.dw	0,(_PIOCON0)
      0030BD 50 49 4F 43 4F 4E 30  6321 	.ascii "PIOCON0"
      0030C4 00                    6322 	.db	0
      0030C5 01                    6323 	.db	1
      0030C6 00 00 05 E9           6324 	.dw	0,1513
      0030CA 0A                    6325 	.uleb128	10
      0030CB 05                    6326 	.db	5
      0030CC 03                    6327 	.db	3
      0030CD 00 00 00 DF           6328 	.dw	0,(_PWMCON1)
      0030D1 50 57 4D 43 4F 4E 31  6329 	.ascii "PWMCON1"
      0030D8 00                    6330 	.db	0
      0030D9 01                    6331 	.db	1
      0030DA 00 00 05 E9           6332 	.dw	0,1513
      0030DE 0A                    6333 	.uleb128	10
      0030DF 05                    6334 	.db	5
      0030E0 03                    6335 	.db	3
      0030E1 00 00 00 E0           6336 	.dw	0,(_ACC)
      0030E5 41 43 43              6337 	.ascii "ACC"
      0030E8 00                    6338 	.db	0
      0030E9 01                    6339 	.db	1
      0030EA 00 00 05 E9           6340 	.dw	0,1513
      0030EE 0A                    6341 	.uleb128	10
      0030EF 05                    6342 	.db	5
      0030F0 03                    6343 	.db	3
      0030F1 00 00 00 E1           6344 	.dw	0,(_ADCCON1)
      0030F5 41 44 43 43 4F 4E 31  6345 	.ascii "ADCCON1"
      0030FC 00                    6346 	.db	0
      0030FD 01                    6347 	.db	1
      0030FE 00 00 05 E9           6348 	.dw	0,1513
      003102 0A                    6349 	.uleb128	10
      003103 05                    6350 	.db	5
      003104 03                    6351 	.db	3
      003105 00 00 00 E2           6352 	.dw	0,(_ADCCON2)
      003109 41 44 43 43 4F 4E 32  6353 	.ascii "ADCCON2"
      003110 00                    6354 	.db	0
      003111 01                    6355 	.db	1
      003112 00 00 05 E9           6356 	.dw	0,1513
      003116 0A                    6357 	.uleb128	10
      003117 05                    6358 	.db	5
      003118 03                    6359 	.db	3
      003119 00 00 00 E3           6360 	.dw	0,(_ADCDLY)
      00311D 41 44 43 44 4C 59     6361 	.ascii "ADCDLY"
      003123 00                    6362 	.db	0
      003124 01                    6363 	.db	1
      003125 00 00 05 E9           6364 	.dw	0,1513
      003129 0A                    6365 	.uleb128	10
      00312A 05                    6366 	.db	5
      00312B 03                    6367 	.db	3
      00312C 00 00 00 E4           6368 	.dw	0,(_C0L)
      003130 43 30 4C              6369 	.ascii "C0L"
      003133 00                    6370 	.db	0
      003134 01                    6371 	.db	1
      003135 00 00 05 E9           6372 	.dw	0,1513
      003139 0A                    6373 	.uleb128	10
      00313A 05                    6374 	.db	5
      00313B 03                    6375 	.db	3
      00313C 00 00 00 E5           6376 	.dw	0,(_C0H)
      003140 43 30 48              6377 	.ascii "C0H"
      003143 00                    6378 	.db	0
      003144 01                    6379 	.db	1
      003145 00 00 05 E9           6380 	.dw	0,1513
      003149 0A                    6381 	.uleb128	10
      00314A 05                    6382 	.db	5
      00314B 03                    6383 	.db	3
      00314C 00 00 00 E6           6384 	.dw	0,(_C1L)
      003150 43 31 4C              6385 	.ascii "C1L"
      003153 00                    6386 	.db	0
      003154 01                    6387 	.db	1
      003155 00 00 05 E9           6388 	.dw	0,1513
      003159 0A                    6389 	.uleb128	10
      00315A 05                    6390 	.db	5
      00315B 03                    6391 	.db	3
      00315C 00 00 00 E7           6392 	.dw	0,(_C1H)
      003160 43 31 48              6393 	.ascii "C1H"
      003163 00                    6394 	.db	0
      003164 01                    6395 	.db	1
      003165 00 00 05 E9           6396 	.dw	0,1513
      003169 0A                    6397 	.uleb128	10
      00316A 05                    6398 	.db	5
      00316B 03                    6399 	.db	3
      00316C 00 00 00 E8           6400 	.dw	0,(_ADCCON0)
      003170 41 44 43 43 4F 4E 30  6401 	.ascii "ADCCON0"
      003177 00                    6402 	.db	0
      003178 01                    6403 	.db	1
      003179 00 00 05 E9           6404 	.dw	0,1513
      00317D 0A                    6405 	.uleb128	10
      00317E 05                    6406 	.db	5
      00317F 03                    6407 	.db	3
      003180 00 00 00 E9           6408 	.dw	0,(_PICON)
      003184 50 49 43 4F 4E        6409 	.ascii "PICON"
      003189 00                    6410 	.db	0
      00318A 01                    6411 	.db	1
      00318B 00 00 05 E9           6412 	.dw	0,1513
      00318F 0A                    6413 	.uleb128	10
      003190 05                    6414 	.db	5
      003191 03                    6415 	.db	3
      003192 00 00 00 EA           6416 	.dw	0,(_PINEN)
      003196 50 49 4E 45 4E        6417 	.ascii "PINEN"
      00319B 00                    6418 	.db	0
      00319C 01                    6419 	.db	1
      00319D 00 00 05 E9           6420 	.dw	0,1513
      0031A1 0A                    6421 	.uleb128	10
      0031A2 05                    6422 	.db	5
      0031A3 03                    6423 	.db	3
      0031A4 00 00 00 EB           6424 	.dw	0,(_PIPEN)
      0031A8 50 49 50 45 4E        6425 	.ascii "PIPEN"
      0031AD 00                    6426 	.db	0
      0031AE 01                    6427 	.db	1
      0031AF 00 00 05 E9           6428 	.dw	0,1513
      0031B3 0A                    6429 	.uleb128	10
      0031B4 05                    6430 	.db	5
      0031B5 03                    6431 	.db	3
      0031B6 00 00 00 EC           6432 	.dw	0,(_PIF)
      0031BA 50 49 46              6433 	.ascii "PIF"
      0031BD 00                    6434 	.db	0
      0031BE 01                    6435 	.db	1
      0031BF 00 00 05 E9           6436 	.dw	0,1513
      0031C3 0A                    6437 	.uleb128	10
      0031C4 05                    6438 	.db	5
      0031C5 03                    6439 	.db	3
      0031C6 00 00 00 ED           6440 	.dw	0,(_C2L)
      0031CA 43 32 4C              6441 	.ascii "C2L"
      0031CD 00                    6442 	.db	0
      0031CE 01                    6443 	.db	1
      0031CF 00 00 05 E9           6444 	.dw	0,1513
      0031D3 0A                    6445 	.uleb128	10
      0031D4 05                    6446 	.db	5
      0031D5 03                    6447 	.db	3
      0031D6 00 00 00 EE           6448 	.dw	0,(_C2H)
      0031DA 43 32 48              6449 	.ascii "C2H"
      0031DD 00                    6450 	.db	0
      0031DE 01                    6451 	.db	1
      0031DF 00 00 05 E9           6452 	.dw	0,1513
      0031E3 0A                    6453 	.uleb128	10
      0031E4 05                    6454 	.db	5
      0031E5 03                    6455 	.db	3
      0031E6 00 00 00 EF           6456 	.dw	0,(_EIP)
      0031EA 45 49 50              6457 	.ascii "EIP"
      0031ED 00                    6458 	.db	0
      0031EE 01                    6459 	.db	1
      0031EF 00 00 05 E9           6460 	.dw	0,1513
      0031F3 0A                    6461 	.uleb128	10
      0031F4 05                    6462 	.db	5
      0031F5 03                    6463 	.db	3
      0031F6 00 00 00 F0           6464 	.dw	0,(_B)
      0031FA 42                    6465 	.ascii "B"
      0031FB 00                    6466 	.db	0
      0031FC 01                    6467 	.db	1
      0031FD 00 00 05 E9           6468 	.dw	0,1513
      003201 0A                    6469 	.uleb128	10
      003202 05                    6470 	.db	5
      003203 03                    6471 	.db	3
      003204 00 00 00 F1           6472 	.dw	0,(_CAPCON3)
      003208 43 41 50 43 4F 4E 33  6473 	.ascii "CAPCON3"
      00320F 00                    6474 	.db	0
      003210 01                    6475 	.db	1
      003211 00 00 05 E9           6476 	.dw	0,1513
      003215 0A                    6477 	.uleb128	10
      003216 05                    6478 	.db	5
      003217 03                    6479 	.db	3
      003218 00 00 00 F2           6480 	.dw	0,(_CAPCON4)
      00321C 43 41 50 43 4F 4E 34  6481 	.ascii "CAPCON4"
      003223 00                    6482 	.db	0
      003224 01                    6483 	.db	1
      003225 00 00 05 E9           6484 	.dw	0,1513
      003229 0A                    6485 	.uleb128	10
      00322A 05                    6486 	.db	5
      00322B 03                    6487 	.db	3
      00322C 00 00 00 F3           6488 	.dw	0,(_SPCR)
      003230 53 50 43 52           6489 	.ascii "SPCR"
      003234 00                    6490 	.db	0
      003235 01                    6491 	.db	1
      003236 00 00 05 E9           6492 	.dw	0,1513
      00323A 0A                    6493 	.uleb128	10
      00323B 05                    6494 	.db	5
      00323C 03                    6495 	.db	3
      00323D 00 00 00 F3           6496 	.dw	0,(_SPCR2)
      003241 53 50 43 52 32        6497 	.ascii "SPCR2"
      003246 00                    6498 	.db	0
      003247 01                    6499 	.db	1
      003248 00 00 05 E9           6500 	.dw	0,1513
      00324C 0A                    6501 	.uleb128	10
      00324D 05                    6502 	.db	5
      00324E 03                    6503 	.db	3
      00324F 00 00 00 F4           6504 	.dw	0,(_SPSR)
      003253 53 50 53 52           6505 	.ascii "SPSR"
      003257 00                    6506 	.db	0
      003258 01                    6507 	.db	1
      003259 00 00 05 E9           6508 	.dw	0,1513
      00325D 0A                    6509 	.uleb128	10
      00325E 05                    6510 	.db	5
      00325F 03                    6511 	.db	3
      003260 00 00 00 F5           6512 	.dw	0,(_SPDR)
      003264 53 50 44 52           6513 	.ascii "SPDR"
      003268 00                    6514 	.db	0
      003269 01                    6515 	.db	1
      00326A 00 00 05 E9           6516 	.dw	0,1513
      00326E 0A                    6517 	.uleb128	10
      00326F 05                    6518 	.db	5
      003270 03                    6519 	.db	3
      003271 00 00 00 F6           6520 	.dw	0,(_AINDIDS)
      003275 41 49 4E 44 49 44 53  6521 	.ascii "AINDIDS"
      00327C 00                    6522 	.db	0
      00327D 01                    6523 	.db	1
      00327E 00 00 05 E9           6524 	.dw	0,1513
      003282 0A                    6525 	.uleb128	10
      003283 05                    6526 	.db	5
      003284 03                    6527 	.db	3
      003285 00 00 00 F7           6528 	.dw	0,(_EIPH)
      003289 45 49 50 48           6529 	.ascii "EIPH"
      00328D 00                    6530 	.db	0
      00328E 01                    6531 	.db	1
      00328F 00 00 05 E9           6532 	.dw	0,1513
      003293 0A                    6533 	.uleb128	10
      003294 05                    6534 	.db	5
      003295 03                    6535 	.db	3
      003296 00 00 00 F8           6536 	.dw	0,(_SCON_1)
      00329A 53 43 4F 4E 5F 31     6537 	.ascii "SCON_1"
      0032A0 00                    6538 	.db	0
      0032A1 01                    6539 	.db	1
      0032A2 00 00 05 E9           6540 	.dw	0,1513
      0032A6 0A                    6541 	.uleb128	10
      0032A7 05                    6542 	.db	5
      0032A8 03                    6543 	.db	3
      0032A9 00 00 00 F9           6544 	.dw	0,(_PDTEN)
      0032AD 50 44 54 45 4E        6545 	.ascii "PDTEN"
      0032B2 00                    6546 	.db	0
      0032B3 01                    6547 	.db	1
      0032B4 00 00 05 E9           6548 	.dw	0,1513
      0032B8 0A                    6549 	.uleb128	10
      0032B9 05                    6550 	.db	5
      0032BA 03                    6551 	.db	3
      0032BB 00 00 00 FA           6552 	.dw	0,(_PDTCNT)
      0032BF 50 44 54 43 4E 54     6553 	.ascii "PDTCNT"
      0032C5 00                    6554 	.db	0
      0032C6 01                    6555 	.db	1
      0032C7 00 00 05 E9           6556 	.dw	0,1513
      0032CB 0A                    6557 	.uleb128	10
      0032CC 05                    6558 	.db	5
      0032CD 03                    6559 	.db	3
      0032CE 00 00 00 FB           6560 	.dw	0,(_PMEN)
      0032D2 50 4D 45 4E           6561 	.ascii "PMEN"
      0032D6 00                    6562 	.db	0
      0032D7 01                    6563 	.db	1
      0032D8 00 00 05 E9           6564 	.dw	0,1513
      0032DC 0A                    6565 	.uleb128	10
      0032DD 05                    6566 	.db	5
      0032DE 03                    6567 	.db	3
      0032DF 00 00 00 FC           6568 	.dw	0,(_PMD)
      0032E3 50 4D 44              6569 	.ascii "PMD"
      0032E6 00                    6570 	.db	0
      0032E7 01                    6571 	.db	1
      0032E8 00 00 05 E9           6572 	.dw	0,1513
      0032EC 0A                    6573 	.uleb128	10
      0032ED 05                    6574 	.db	5
      0032EE 03                    6575 	.db	3
      0032EF 00 00 00 FE           6576 	.dw	0,(_EIP1)
      0032F3 45 49 50 31           6577 	.ascii "EIP1"
      0032F7 00                    6578 	.db	0
      0032F8 01                    6579 	.db	1
      0032F9 00 00 05 E9           6580 	.dw	0,1513
      0032FD 0A                    6581 	.uleb128	10
      0032FE 05                    6582 	.db	5
      0032FF 03                    6583 	.db	3
      003300 00 00 00 FF           6584 	.dw	0,(_EIPH1)
      003304 45 49 50 48 31        6585 	.ascii "EIPH1"
      003309 00                    6586 	.db	0
      00330A 01                    6587 	.db	1
      00330B 00 00 05 E9           6588 	.dw	0,1513
      00330F 07                    6589 	.uleb128	7
      003310 5F 73 62 69 74        6590 	.ascii "_sbit"
      003315 00                    6591 	.db	0
      003316 01                    6592 	.db	1
      003317 08                    6593 	.db	8
      003318 0B                    6594 	.uleb128	11
      003319 00 00 0F FD           6595 	.dw	0,4093
      00331D 0A                    6596 	.uleb128	10
      00331E 05                    6597 	.db	5
      00331F 03                    6598 	.db	3
      003320 00 00 00 FF           6599 	.dw	0,(_SM0_1)
      003324 53 4D 30 5F 31        6600 	.ascii "SM0_1"
      003329 00                    6601 	.db	0
      00332A 01                    6602 	.db	1
      00332B 00 00 10 06           6603 	.dw	0,4102
      00332F 0A                    6604 	.uleb128	10
      003330 05                    6605 	.db	5
      003331 03                    6606 	.db	3
      003332 00 00 00 FF           6607 	.dw	0,(_FE_1)
      003336 46 45 5F 31           6608 	.ascii "FE_1"
      00333A 00                    6609 	.db	0
      00333B 01                    6610 	.db	1
      00333C 00 00 10 06           6611 	.dw	0,4102
      003340 0A                    6612 	.uleb128	10
      003341 05                    6613 	.db	5
      003342 03                    6614 	.db	3
      003343 00 00 00 FE           6615 	.dw	0,(_SM1_1)
      003347 53 4D 31 5F 31        6616 	.ascii "SM1_1"
      00334C 00                    6617 	.db	0
      00334D 01                    6618 	.db	1
      00334E 00 00 10 06           6619 	.dw	0,4102
      003352 0A                    6620 	.uleb128	10
      003353 05                    6621 	.db	5
      003354 03                    6622 	.db	3
      003355 00 00 00 FD           6623 	.dw	0,(_SM2_1)
      003359 53 4D 32 5F 31        6624 	.ascii "SM2_1"
      00335E 00                    6625 	.db	0
      00335F 01                    6626 	.db	1
      003360 00 00 10 06           6627 	.dw	0,4102
      003364 0A                    6628 	.uleb128	10
      003365 05                    6629 	.db	5
      003366 03                    6630 	.db	3
      003367 00 00 00 FC           6631 	.dw	0,(_REN_1)
      00336B 52 45 4E 5F 31        6632 	.ascii "REN_1"
      003370 00                    6633 	.db	0
      003371 01                    6634 	.db	1
      003372 00 00 10 06           6635 	.dw	0,4102
      003376 0A                    6636 	.uleb128	10
      003377 05                    6637 	.db	5
      003378 03                    6638 	.db	3
      003379 00 00 00 FB           6639 	.dw	0,(_TB8_1)
      00337D 54 42 38 5F 31        6640 	.ascii "TB8_1"
      003382 00                    6641 	.db	0
      003383 01                    6642 	.db	1
      003384 00 00 10 06           6643 	.dw	0,4102
      003388 0A                    6644 	.uleb128	10
      003389 05                    6645 	.db	5
      00338A 03                    6646 	.db	3
      00338B 00 00 00 FA           6647 	.dw	0,(_RB8_1)
      00338F 52 42 38 5F 31        6648 	.ascii "RB8_1"
      003394 00                    6649 	.db	0
      003395 01                    6650 	.db	1
      003396 00 00 10 06           6651 	.dw	0,4102
      00339A 0A                    6652 	.uleb128	10
      00339B 05                    6653 	.db	5
      00339C 03                    6654 	.db	3
      00339D 00 00 00 F9           6655 	.dw	0,(_TI_1)
      0033A1 54 49 5F 31           6656 	.ascii "TI_1"
      0033A5 00                    6657 	.db	0
      0033A6 01                    6658 	.db	1
      0033A7 00 00 10 06           6659 	.dw	0,4102
      0033AB 0A                    6660 	.uleb128	10
      0033AC 05                    6661 	.db	5
      0033AD 03                    6662 	.db	3
      0033AE 00 00 00 F8           6663 	.dw	0,(_RI_1)
      0033B2 52 49 5F 31           6664 	.ascii "RI_1"
      0033B6 00                    6665 	.db	0
      0033B7 01                    6666 	.db	1
      0033B8 00 00 10 06           6667 	.dw	0,4102
      0033BC 0A                    6668 	.uleb128	10
      0033BD 05                    6669 	.db	5
      0033BE 03                    6670 	.db	3
      0033BF 00 00 00 EF           6671 	.dw	0,(_ADCF)
      0033C3 41 44 43 46           6672 	.ascii "ADCF"
      0033C7 00                    6673 	.db	0
      0033C8 01                    6674 	.db	1
      0033C9 00 00 10 06           6675 	.dw	0,4102
      0033CD 0A                    6676 	.uleb128	10
      0033CE 05                    6677 	.db	5
      0033CF 03                    6678 	.db	3
      0033D0 00 00 00 EE           6679 	.dw	0,(_ADCS)
      0033D4 41 44 43 53           6680 	.ascii "ADCS"
      0033D8 00                    6681 	.db	0
      0033D9 01                    6682 	.db	1
      0033DA 00 00 10 06           6683 	.dw	0,4102
      0033DE 0A                    6684 	.uleb128	10
      0033DF 05                    6685 	.db	5
      0033E0 03                    6686 	.db	3
      0033E1 00 00 00 ED           6687 	.dw	0,(_ETGSEL1)
      0033E5 45 54 47 53 45 4C 31  6688 	.ascii "ETGSEL1"
      0033EC 00                    6689 	.db	0
      0033ED 01                    6690 	.db	1
      0033EE 00 00 10 06           6691 	.dw	0,4102
      0033F2 0A                    6692 	.uleb128	10
      0033F3 05                    6693 	.db	5
      0033F4 03                    6694 	.db	3
      0033F5 00 00 00 EC           6695 	.dw	0,(_ETGSEL0)
      0033F9 45 54 47 53 45 4C 30  6696 	.ascii "ETGSEL0"
      003400 00                    6697 	.db	0
      003401 01                    6698 	.db	1
      003402 00 00 10 06           6699 	.dw	0,4102
      003406 0A                    6700 	.uleb128	10
      003407 05                    6701 	.db	5
      003408 03                    6702 	.db	3
      003409 00 00 00 EB           6703 	.dw	0,(_ADCHS3)
      00340D 41 44 43 48 53 33     6704 	.ascii "ADCHS3"
      003413 00                    6705 	.db	0
      003414 01                    6706 	.db	1
      003415 00 00 10 06           6707 	.dw	0,4102
      003419 0A                    6708 	.uleb128	10
      00341A 05                    6709 	.db	5
      00341B 03                    6710 	.db	3
      00341C 00 00 00 EA           6711 	.dw	0,(_ADCHS2)
      003420 41 44 43 48 53 32     6712 	.ascii "ADCHS2"
      003426 00                    6713 	.db	0
      003427 01                    6714 	.db	1
      003428 00 00 10 06           6715 	.dw	0,4102
      00342C 0A                    6716 	.uleb128	10
      00342D 05                    6717 	.db	5
      00342E 03                    6718 	.db	3
      00342F 00 00 00 E9           6719 	.dw	0,(_ADCHS1)
      003433 41 44 43 48 53 31     6720 	.ascii "ADCHS1"
      003439 00                    6721 	.db	0
      00343A 01                    6722 	.db	1
      00343B 00 00 10 06           6723 	.dw	0,4102
      00343F 0A                    6724 	.uleb128	10
      003440 05                    6725 	.db	5
      003441 03                    6726 	.db	3
      003442 00 00 00 E8           6727 	.dw	0,(_ADCHS0)
      003446 41 44 43 48 53 30     6728 	.ascii "ADCHS0"
      00344C 00                    6729 	.db	0
      00344D 01                    6730 	.db	1
      00344E 00 00 10 06           6731 	.dw	0,4102
      003452 0A                    6732 	.uleb128	10
      003453 05                    6733 	.db	5
      003454 03                    6734 	.db	3
      003455 00 00 00 DF           6735 	.dw	0,(_PWMRUN)
      003459 50 57 4D 52 55 4E     6736 	.ascii "PWMRUN"
      00345F 00                    6737 	.db	0
      003460 01                    6738 	.db	1
      003461 00 00 10 06           6739 	.dw	0,4102
      003465 0A                    6740 	.uleb128	10
      003466 05                    6741 	.db	5
      003467 03                    6742 	.db	3
      003468 00 00 00 DE           6743 	.dw	0,(_LOAD)
      00346C 4C 4F 41 44           6744 	.ascii "LOAD"
      003470 00                    6745 	.db	0
      003471 01                    6746 	.db	1
      003472 00 00 10 06           6747 	.dw	0,4102
      003476 0A                    6748 	.uleb128	10
      003477 05                    6749 	.db	5
      003478 03                    6750 	.db	3
      003479 00 00 00 DD           6751 	.dw	0,(_PWMF)
      00347D 50 57 4D 46           6752 	.ascii "PWMF"
      003481 00                    6753 	.db	0
      003482 01                    6754 	.db	1
      003483 00 00 10 06           6755 	.dw	0,4102
      003487 0A                    6756 	.uleb128	10
      003488 05                    6757 	.db	5
      003489 03                    6758 	.db	3
      00348A 00 00 00 DC           6759 	.dw	0,(_CLRPWM)
      00348E 43 4C 52 50 57 4D     6760 	.ascii "CLRPWM"
      003494 00                    6761 	.db	0
      003495 01                    6762 	.db	1
      003496 00 00 10 06           6763 	.dw	0,4102
      00349A 0A                    6764 	.uleb128	10
      00349B 05                    6765 	.db	5
      00349C 03                    6766 	.db	3
      00349D 00 00 00 D7           6767 	.dw	0,(_CY)
      0034A1 43 59                 6768 	.ascii "CY"
      0034A3 00                    6769 	.db	0
      0034A4 01                    6770 	.db	1
      0034A5 00 00 10 06           6771 	.dw	0,4102
      0034A9 0A                    6772 	.uleb128	10
      0034AA 05                    6773 	.db	5
      0034AB 03                    6774 	.db	3
      0034AC 00 00 00 D6           6775 	.dw	0,(_AC)
      0034B0 41 43                 6776 	.ascii "AC"
      0034B2 00                    6777 	.db	0
      0034B3 01                    6778 	.db	1
      0034B4 00 00 10 06           6779 	.dw	0,4102
      0034B8 0A                    6780 	.uleb128	10
      0034B9 05                    6781 	.db	5
      0034BA 03                    6782 	.db	3
      0034BB 00 00 00 D5           6783 	.dw	0,(_F0)
      0034BF 46 30                 6784 	.ascii "F0"
      0034C1 00                    6785 	.db	0
      0034C2 01                    6786 	.db	1
      0034C3 00 00 10 06           6787 	.dw	0,4102
      0034C7 0A                    6788 	.uleb128	10
      0034C8 05                    6789 	.db	5
      0034C9 03                    6790 	.db	3
      0034CA 00 00 00 D4           6791 	.dw	0,(_RS1)
      0034CE 52 53 31              6792 	.ascii "RS1"
      0034D1 00                    6793 	.db	0
      0034D2 01                    6794 	.db	1
      0034D3 00 00 10 06           6795 	.dw	0,4102
      0034D7 0A                    6796 	.uleb128	10
      0034D8 05                    6797 	.db	5
      0034D9 03                    6798 	.db	3
      0034DA 00 00 00 D3           6799 	.dw	0,(_RS0)
      0034DE 52 53 30              6800 	.ascii "RS0"
      0034E1 00                    6801 	.db	0
      0034E2 01                    6802 	.db	1
      0034E3 00 00 10 06           6803 	.dw	0,4102
      0034E7 0A                    6804 	.uleb128	10
      0034E8 05                    6805 	.db	5
      0034E9 03                    6806 	.db	3
      0034EA 00 00 00 D2           6807 	.dw	0,(_OV)
      0034EE 4F 56                 6808 	.ascii "OV"
      0034F0 00                    6809 	.db	0
      0034F1 01                    6810 	.db	1
      0034F2 00 00 10 06           6811 	.dw	0,4102
      0034F6 0A                    6812 	.uleb128	10
      0034F7 05                    6813 	.db	5
      0034F8 03                    6814 	.db	3
      0034F9 00 00 00 D0           6815 	.dw	0,(_P)
      0034FD 50                    6816 	.ascii "P"
      0034FE 00                    6817 	.db	0
      0034FF 01                    6818 	.db	1
      003500 00 00 10 06           6819 	.dw	0,4102
      003504 0A                    6820 	.uleb128	10
      003505 05                    6821 	.db	5
      003506 03                    6822 	.db	3
      003507 00 00 00 CF           6823 	.dw	0,(_TF2)
      00350B 54 46 32              6824 	.ascii "TF2"
      00350E 00                    6825 	.db	0
      00350F 01                    6826 	.db	1
      003510 00 00 10 06           6827 	.dw	0,4102
      003514 0A                    6828 	.uleb128	10
      003515 05                    6829 	.db	5
      003516 03                    6830 	.db	3
      003517 00 00 00 CA           6831 	.dw	0,(_TR2)
      00351B 54 52 32              6832 	.ascii "TR2"
      00351E 00                    6833 	.db	0
      00351F 01                    6834 	.db	1
      003520 00 00 10 06           6835 	.dw	0,4102
      003524 0A                    6836 	.uleb128	10
      003525 05                    6837 	.db	5
      003526 03                    6838 	.db	3
      003527 00 00 00 C8           6839 	.dw	0,(_CM_RL2)
      00352B 43 4D 5F 52 4C 32     6840 	.ascii "CM_RL2"
      003531 00                    6841 	.db	0
      003532 01                    6842 	.db	1
      003533 00 00 10 06           6843 	.dw	0,4102
      003537 0A                    6844 	.uleb128	10
      003538 05                    6845 	.db	5
      003539 03                    6846 	.db	3
      00353A 00 00 00 C6           6847 	.dw	0,(_I2CEN)
      00353E 49 32 43 45 4E        6848 	.ascii "I2CEN"
      003543 00                    6849 	.db	0
      003544 01                    6850 	.db	1
      003545 00 00 10 06           6851 	.dw	0,4102
      003549 0A                    6852 	.uleb128	10
      00354A 05                    6853 	.db	5
      00354B 03                    6854 	.db	3
      00354C 00 00 00 C5           6855 	.dw	0,(_STA)
      003550 53 54 41              6856 	.ascii "STA"
      003553 00                    6857 	.db	0
      003554 01                    6858 	.db	1
      003555 00 00 10 06           6859 	.dw	0,4102
      003559 0A                    6860 	.uleb128	10
      00355A 05                    6861 	.db	5
      00355B 03                    6862 	.db	3
      00355C 00 00 00 C4           6863 	.dw	0,(_STO)
      003560 53 54 4F              6864 	.ascii "STO"
      003563 00                    6865 	.db	0
      003564 01                    6866 	.db	1
      003565 00 00 10 06           6867 	.dw	0,4102
      003569 0A                    6868 	.uleb128	10
      00356A 05                    6869 	.db	5
      00356B 03                    6870 	.db	3
      00356C 00 00 00 C3           6871 	.dw	0,(_SI)
      003570 53 49                 6872 	.ascii "SI"
      003572 00                    6873 	.db	0
      003573 01                    6874 	.db	1
      003574 00 00 10 06           6875 	.dw	0,4102
      003578 0A                    6876 	.uleb128	10
      003579 05                    6877 	.db	5
      00357A 03                    6878 	.db	3
      00357B 00 00 00 C2           6879 	.dw	0,(_AA)
      00357F 41 41                 6880 	.ascii "AA"
      003581 00                    6881 	.db	0
      003582 01                    6882 	.db	1
      003583 00 00 10 06           6883 	.dw	0,4102
      003587 0A                    6884 	.uleb128	10
      003588 05                    6885 	.db	5
      003589 03                    6886 	.db	3
      00358A 00 00 00 C0           6887 	.dw	0,(_I2CPX)
      00358E 49 32 43 50 58        6888 	.ascii "I2CPX"
      003593 00                    6889 	.db	0
      003594 01                    6890 	.db	1
      003595 00 00 10 06           6891 	.dw	0,4102
      003599 0A                    6892 	.uleb128	10
      00359A 05                    6893 	.db	5
      00359B 03                    6894 	.db	3
      00359C 00 00 00 BE           6895 	.dw	0,(_PADC)
      0035A0 50 41 44 43           6896 	.ascii "PADC"
      0035A4 00                    6897 	.db	0
      0035A5 01                    6898 	.db	1
      0035A6 00 00 10 06           6899 	.dw	0,4102
      0035AA 0A                    6900 	.uleb128	10
      0035AB 05                    6901 	.db	5
      0035AC 03                    6902 	.db	3
      0035AD 00 00 00 BD           6903 	.dw	0,(_PBOD)
      0035B1 50 42 4F 44           6904 	.ascii "PBOD"
      0035B5 00                    6905 	.db	0
      0035B6 01                    6906 	.db	1
      0035B7 00 00 10 06           6907 	.dw	0,4102
      0035BB 0A                    6908 	.uleb128	10
      0035BC 05                    6909 	.db	5
      0035BD 03                    6910 	.db	3
      0035BE 00 00 00 BC           6911 	.dw	0,(_PS)
      0035C2 50 53                 6912 	.ascii "PS"
      0035C4 00                    6913 	.db	0
      0035C5 01                    6914 	.db	1
      0035C6 00 00 10 06           6915 	.dw	0,4102
      0035CA 0A                    6916 	.uleb128	10
      0035CB 05                    6917 	.db	5
      0035CC 03                    6918 	.db	3
      0035CD 00 00 00 BB           6919 	.dw	0,(_PT1)
      0035D1 50 54 31              6920 	.ascii "PT1"
      0035D4 00                    6921 	.db	0
      0035D5 01                    6922 	.db	1
      0035D6 00 00 10 06           6923 	.dw	0,4102
      0035DA 0A                    6924 	.uleb128	10
      0035DB 05                    6925 	.db	5
      0035DC 03                    6926 	.db	3
      0035DD 00 00 00 BA           6927 	.dw	0,(_PX1)
      0035E1 50 58 31              6928 	.ascii "PX1"
      0035E4 00                    6929 	.db	0
      0035E5 01                    6930 	.db	1
      0035E6 00 00 10 06           6931 	.dw	0,4102
      0035EA 0A                    6932 	.uleb128	10
      0035EB 05                    6933 	.db	5
      0035EC 03                    6934 	.db	3
      0035ED 00 00 00 B9           6935 	.dw	0,(_PT0)
      0035F1 50 54 30              6936 	.ascii "PT0"
      0035F4 00                    6937 	.db	0
      0035F5 01                    6938 	.db	1
      0035F6 00 00 10 06           6939 	.dw	0,4102
      0035FA 0A                    6940 	.uleb128	10
      0035FB 05                    6941 	.db	5
      0035FC 03                    6942 	.db	3
      0035FD 00 00 00 B8           6943 	.dw	0,(_PX0)
      003601 50 58 30              6944 	.ascii "PX0"
      003604 00                    6945 	.db	0
      003605 01                    6946 	.db	1
      003606 00 00 10 06           6947 	.dw	0,4102
      00360A 0A                    6948 	.uleb128	10
      00360B 05                    6949 	.db	5
      00360C 03                    6950 	.db	3
      00360D 00 00 00 B0           6951 	.dw	0,(_P30)
      003611 50 33 30              6952 	.ascii "P30"
      003614 00                    6953 	.db	0
      003615 01                    6954 	.db	1
      003616 00 00 10 06           6955 	.dw	0,4102
      00361A 0A                    6956 	.uleb128	10
      00361B 05                    6957 	.db	5
      00361C 03                    6958 	.db	3
      00361D 00 00 00 AF           6959 	.dw	0,(_EA)
      003621 45 41                 6960 	.ascii "EA"
      003623 00                    6961 	.db	0
      003624 01                    6962 	.db	1
      003625 00 00 10 06           6963 	.dw	0,4102
      003629 0A                    6964 	.uleb128	10
      00362A 05                    6965 	.db	5
      00362B 03                    6966 	.db	3
      00362C 00 00 00 AE           6967 	.dw	0,(_EADC)
      003630 45 41 44 43           6968 	.ascii "EADC"
      003634 00                    6969 	.db	0
      003635 01                    6970 	.db	1
      003636 00 00 10 06           6971 	.dw	0,4102
      00363A 0A                    6972 	.uleb128	10
      00363B 05                    6973 	.db	5
      00363C 03                    6974 	.db	3
      00363D 00 00 00 AD           6975 	.dw	0,(_EBOD)
      003641 45 42 4F 44           6976 	.ascii "EBOD"
      003645 00                    6977 	.db	0
      003646 01                    6978 	.db	1
      003647 00 00 10 06           6979 	.dw	0,4102
      00364B 0A                    6980 	.uleb128	10
      00364C 05                    6981 	.db	5
      00364D 03                    6982 	.db	3
      00364E 00 00 00 AC           6983 	.dw	0,(_ES)
      003652 45 53                 6984 	.ascii "ES"
      003654 00                    6985 	.db	0
      003655 01                    6986 	.db	1
      003656 00 00 10 06           6987 	.dw	0,4102
      00365A 0A                    6988 	.uleb128	10
      00365B 05                    6989 	.db	5
      00365C 03                    6990 	.db	3
      00365D 00 00 00 AB           6991 	.dw	0,(_ET1)
      003661 45 54 31              6992 	.ascii "ET1"
      003664 00                    6993 	.db	0
      003665 01                    6994 	.db	1
      003666 00 00 10 06           6995 	.dw	0,4102
      00366A 0A                    6996 	.uleb128	10
      00366B 05                    6997 	.db	5
      00366C 03                    6998 	.db	3
      00366D 00 00 00 AA           6999 	.dw	0,(_EX1)
      003671 45 58 31              7000 	.ascii "EX1"
      003674 00                    7001 	.db	0
      003675 01                    7002 	.db	1
      003676 00 00 10 06           7003 	.dw	0,4102
      00367A 0A                    7004 	.uleb128	10
      00367B 05                    7005 	.db	5
      00367C 03                    7006 	.db	3
      00367D 00 00 00 A9           7007 	.dw	0,(_ET0)
      003681 45 54 30              7008 	.ascii "ET0"
      003684 00                    7009 	.db	0
      003685 01                    7010 	.db	1
      003686 00 00 10 06           7011 	.dw	0,4102
      00368A 0A                    7012 	.uleb128	10
      00368B 05                    7013 	.db	5
      00368C 03                    7014 	.db	3
      00368D 00 00 00 A8           7015 	.dw	0,(_EX0)
      003691 45 58 30              7016 	.ascii "EX0"
      003694 00                    7017 	.db	0
      003695 01                    7018 	.db	1
      003696 00 00 10 06           7019 	.dw	0,4102
      00369A 0A                    7020 	.uleb128	10
      00369B 05                    7021 	.db	5
      00369C 03                    7022 	.db	3
      00369D 00 00 00 A0           7023 	.dw	0,(_P20)
      0036A1 50 32 30              7024 	.ascii "P20"
      0036A4 00                    7025 	.db	0
      0036A5 01                    7026 	.db	1
      0036A6 00 00 10 06           7027 	.dw	0,4102
      0036AA 0A                    7028 	.uleb128	10
      0036AB 05                    7029 	.db	5
      0036AC 03                    7030 	.db	3
      0036AD 00 00 00 9F           7031 	.dw	0,(_SM0)
      0036B1 53 4D 30              7032 	.ascii "SM0"
      0036B4 00                    7033 	.db	0
      0036B5 01                    7034 	.db	1
      0036B6 00 00 10 06           7035 	.dw	0,4102
      0036BA 0A                    7036 	.uleb128	10
      0036BB 05                    7037 	.db	5
      0036BC 03                    7038 	.db	3
      0036BD 00 00 00 9F           7039 	.dw	0,(_FE)
      0036C1 46 45                 7040 	.ascii "FE"
      0036C3 00                    7041 	.db	0
      0036C4 01                    7042 	.db	1
      0036C5 00 00 10 06           7043 	.dw	0,4102
      0036C9 0A                    7044 	.uleb128	10
      0036CA 05                    7045 	.db	5
      0036CB 03                    7046 	.db	3
      0036CC 00 00 00 9E           7047 	.dw	0,(_SM1)
      0036D0 53 4D 31              7048 	.ascii "SM1"
      0036D3 00                    7049 	.db	0
      0036D4 01                    7050 	.db	1
      0036D5 00 00 10 06           7051 	.dw	0,4102
      0036D9 0A                    7052 	.uleb128	10
      0036DA 05                    7053 	.db	5
      0036DB 03                    7054 	.db	3
      0036DC 00 00 00 9D           7055 	.dw	0,(_SM2)
      0036E0 53 4D 32              7056 	.ascii "SM2"
      0036E3 00                    7057 	.db	0
      0036E4 01                    7058 	.db	1
      0036E5 00 00 10 06           7059 	.dw	0,4102
      0036E9 0A                    7060 	.uleb128	10
      0036EA 05                    7061 	.db	5
      0036EB 03                    7062 	.db	3
      0036EC 00 00 00 9C           7063 	.dw	0,(_REN)
      0036F0 52 45 4E              7064 	.ascii "REN"
      0036F3 00                    7065 	.db	0
      0036F4 01                    7066 	.db	1
      0036F5 00 00 10 06           7067 	.dw	0,4102
      0036F9 0A                    7068 	.uleb128	10
      0036FA 05                    7069 	.db	5
      0036FB 03                    7070 	.db	3
      0036FC 00 00 00 9B           7071 	.dw	0,(_TB8)
      003700 54 42 38              7072 	.ascii "TB8"
      003703 00                    7073 	.db	0
      003704 01                    7074 	.db	1
      003705 00 00 10 06           7075 	.dw	0,4102
      003709 0A                    7076 	.uleb128	10
      00370A 05                    7077 	.db	5
      00370B 03                    7078 	.db	3
      00370C 00 00 00 9A           7079 	.dw	0,(_RB8)
      003710 52 42 38              7080 	.ascii "RB8"
      003713 00                    7081 	.db	0
      003714 01                    7082 	.db	1
      003715 00 00 10 06           7083 	.dw	0,4102
      003719 0A                    7084 	.uleb128	10
      00371A 05                    7085 	.db	5
      00371B 03                    7086 	.db	3
      00371C 00 00 00 99           7087 	.dw	0,(_TI)
      003720 54 49                 7088 	.ascii "TI"
      003722 00                    7089 	.db	0
      003723 01                    7090 	.db	1
      003724 00 00 10 06           7091 	.dw	0,4102
      003728 0A                    7092 	.uleb128	10
      003729 05                    7093 	.db	5
      00372A 03                    7094 	.db	3
      00372B 00 00 00 98           7095 	.dw	0,(_RI)
      00372F 52 49                 7096 	.ascii "RI"
      003731 00                    7097 	.db	0
      003732 01                    7098 	.db	1
      003733 00 00 10 06           7099 	.dw	0,4102
      003737 0A                    7100 	.uleb128	10
      003738 05                    7101 	.db	5
      003739 03                    7102 	.db	3
      00373A 00 00 00 97           7103 	.dw	0,(_P17)
      00373E 50 31 37              7104 	.ascii "P17"
      003741 00                    7105 	.db	0
      003742 01                    7106 	.db	1
      003743 00 00 10 06           7107 	.dw	0,4102
      003747 0A                    7108 	.uleb128	10
      003748 05                    7109 	.db	5
      003749 03                    7110 	.db	3
      00374A 00 00 00 96           7111 	.dw	0,(_P16)
      00374E 50 31 36              7112 	.ascii "P16"
      003751 00                    7113 	.db	0
      003752 01                    7114 	.db	1
      003753 00 00 10 06           7115 	.dw	0,4102
      003757 0A                    7116 	.uleb128	10
      003758 05                    7117 	.db	5
      003759 03                    7118 	.db	3
      00375A 00 00 00 96           7119 	.dw	0,(_TXD_1)
      00375E 54 58 44 5F 31        7120 	.ascii "TXD_1"
      003763 00                    7121 	.db	0
      003764 01                    7122 	.db	1
      003765 00 00 10 06           7123 	.dw	0,4102
      003769 0A                    7124 	.uleb128	10
      00376A 05                    7125 	.db	5
      00376B 03                    7126 	.db	3
      00376C 00 00 00 95           7127 	.dw	0,(_P15)
      003770 50 31 35              7128 	.ascii "P15"
      003773 00                    7129 	.db	0
      003774 01                    7130 	.db	1
      003775 00 00 10 06           7131 	.dw	0,4102
      003779 0A                    7132 	.uleb128	10
      00377A 05                    7133 	.db	5
      00377B 03                    7134 	.db	3
      00377C 00 00 00 94           7135 	.dw	0,(_P14)
      003780 50 31 34              7136 	.ascii "P14"
      003783 00                    7137 	.db	0
      003784 01                    7138 	.db	1
      003785 00 00 10 06           7139 	.dw	0,4102
      003789 0A                    7140 	.uleb128	10
      00378A 05                    7141 	.db	5
      00378B 03                    7142 	.db	3
      00378C 00 00 00 94           7143 	.dw	0,(_SDA)
      003790 53 44 41              7144 	.ascii "SDA"
      003793 00                    7145 	.db	0
      003794 01                    7146 	.db	1
      003795 00 00 10 06           7147 	.dw	0,4102
      003799 0A                    7148 	.uleb128	10
      00379A 05                    7149 	.db	5
      00379B 03                    7150 	.db	3
      00379C 00 00 00 93           7151 	.dw	0,(_P13)
      0037A0 50 31 33              7152 	.ascii "P13"
      0037A3 00                    7153 	.db	0
      0037A4 01                    7154 	.db	1
      0037A5 00 00 10 06           7155 	.dw	0,4102
      0037A9 0A                    7156 	.uleb128	10
      0037AA 05                    7157 	.db	5
      0037AB 03                    7158 	.db	3
      0037AC 00 00 00 93           7159 	.dw	0,(_SCL)
      0037B0 53 43 4C              7160 	.ascii "SCL"
      0037B3 00                    7161 	.db	0
      0037B4 01                    7162 	.db	1
      0037B5 00 00 10 06           7163 	.dw	0,4102
      0037B9 0A                    7164 	.uleb128	10
      0037BA 05                    7165 	.db	5
      0037BB 03                    7166 	.db	3
      0037BC 00 00 00 92           7167 	.dw	0,(_P12)
      0037C0 50 31 32              7168 	.ascii "P12"
      0037C3 00                    7169 	.db	0
      0037C4 01                    7170 	.db	1
      0037C5 00 00 10 06           7171 	.dw	0,4102
      0037C9 0A                    7172 	.uleb128	10
      0037CA 05                    7173 	.db	5
      0037CB 03                    7174 	.db	3
      0037CC 00 00 00 91           7175 	.dw	0,(_P11)
      0037D0 50 31 31              7176 	.ascii "P11"
      0037D3 00                    7177 	.db	0
      0037D4 01                    7178 	.db	1
      0037D5 00 00 10 06           7179 	.dw	0,4102
      0037D9 0A                    7180 	.uleb128	10
      0037DA 05                    7181 	.db	5
      0037DB 03                    7182 	.db	3
      0037DC 00 00 00 90           7183 	.dw	0,(_P10)
      0037E0 50 31 30              7184 	.ascii "P10"
      0037E3 00                    7185 	.db	0
      0037E4 01                    7186 	.db	1
      0037E5 00 00 10 06           7187 	.dw	0,4102
      0037E9 0A                    7188 	.uleb128	10
      0037EA 05                    7189 	.db	5
      0037EB 03                    7190 	.db	3
      0037EC 00 00 00 8F           7191 	.dw	0,(_TF1)
      0037F0 54 46 31              7192 	.ascii "TF1"
      0037F3 00                    7193 	.db	0
      0037F4 01                    7194 	.db	1
      0037F5 00 00 10 06           7195 	.dw	0,4102
      0037F9 0A                    7196 	.uleb128	10
      0037FA 05                    7197 	.db	5
      0037FB 03                    7198 	.db	3
      0037FC 00 00 00 8E           7199 	.dw	0,(_TR1)
      003800 54 52 31              7200 	.ascii "TR1"
      003803 00                    7201 	.db	0
      003804 01                    7202 	.db	1
      003805 00 00 10 06           7203 	.dw	0,4102
      003809 0A                    7204 	.uleb128	10
      00380A 05                    7205 	.db	5
      00380B 03                    7206 	.db	3
      00380C 00 00 00 8D           7207 	.dw	0,(_TF0)
      003810 54 46 30              7208 	.ascii "TF0"
      003813 00                    7209 	.db	0
      003814 01                    7210 	.db	1
      003815 00 00 10 06           7211 	.dw	0,4102
      003819 0A                    7212 	.uleb128	10
      00381A 05                    7213 	.db	5
      00381B 03                    7214 	.db	3
      00381C 00 00 00 8C           7215 	.dw	0,(_TR0)
      003820 54 52 30              7216 	.ascii "TR0"
      003823 00                    7217 	.db	0
      003824 01                    7218 	.db	1
      003825 00 00 10 06           7219 	.dw	0,4102
      003829 0A                    7220 	.uleb128	10
      00382A 05                    7221 	.db	5
      00382B 03                    7222 	.db	3
      00382C 00 00 00 8B           7223 	.dw	0,(_IE1)
      003830 49 45 31              7224 	.ascii "IE1"
      003833 00                    7225 	.db	0
      003834 01                    7226 	.db	1
      003835 00 00 10 06           7227 	.dw	0,4102
      003839 0A                    7228 	.uleb128	10
      00383A 05                    7229 	.db	5
      00383B 03                    7230 	.db	3
      00383C 00 00 00 8A           7231 	.dw	0,(_IT1)
      003840 49 54 31              7232 	.ascii "IT1"
      003843 00                    7233 	.db	0
      003844 01                    7234 	.db	1
      003845 00 00 10 06           7235 	.dw	0,4102
      003849 0A                    7236 	.uleb128	10
      00384A 05                    7237 	.db	5
      00384B 03                    7238 	.db	3
      00384C 00 00 00 89           7239 	.dw	0,(_IE0)
      003850 49 45 30              7240 	.ascii "IE0"
      003853 00                    7241 	.db	0
      003854 01                    7242 	.db	1
      003855 00 00 10 06           7243 	.dw	0,4102
      003859 0A                    7244 	.uleb128	10
      00385A 05                    7245 	.db	5
      00385B 03                    7246 	.db	3
      00385C 00 00 00 88           7247 	.dw	0,(_IT0)
      003860 49 54 30              7248 	.ascii "IT0"
      003863 00                    7249 	.db	0
      003864 01                    7250 	.db	1
      003865 00 00 10 06           7251 	.dw	0,4102
      003869 0A                    7252 	.uleb128	10
      00386A 05                    7253 	.db	5
      00386B 03                    7254 	.db	3
      00386C 00 00 00 87           7255 	.dw	0,(_P07)
      003870 50 30 37              7256 	.ascii "P07"
      003873 00                    7257 	.db	0
      003874 01                    7258 	.db	1
      003875 00 00 10 06           7259 	.dw	0,4102
      003879 0A                    7260 	.uleb128	10
      00387A 05                    7261 	.db	5
      00387B 03                    7262 	.db	3
      00387C 00 00 00 87           7263 	.dw	0,(_RXD)
      003880 52 58 44              7264 	.ascii "RXD"
      003883 00                    7265 	.db	0
      003884 01                    7266 	.db	1
      003885 00 00 10 06           7267 	.dw	0,4102
      003889 0A                    7268 	.uleb128	10
      00388A 05                    7269 	.db	5
      00388B 03                    7270 	.db	3
      00388C 00 00 00 86           7271 	.dw	0,(_P06)
      003890 50 30 36              7272 	.ascii "P06"
      003893 00                    7273 	.db	0
      003894 01                    7274 	.db	1
      003895 00 00 10 06           7275 	.dw	0,4102
      003899 0A                    7276 	.uleb128	10
      00389A 05                    7277 	.db	5
      00389B 03                    7278 	.db	3
      00389C 00 00 00 86           7279 	.dw	0,(_TXD)
      0038A0 54 58 44              7280 	.ascii "TXD"
      0038A3 00                    7281 	.db	0
      0038A4 01                    7282 	.db	1
      0038A5 00 00 10 06           7283 	.dw	0,4102
      0038A9 0A                    7284 	.uleb128	10
      0038AA 05                    7285 	.db	5
      0038AB 03                    7286 	.db	3
      0038AC 00 00 00 85           7287 	.dw	0,(_P05)
      0038B0 50 30 35              7288 	.ascii "P05"
      0038B3 00                    7289 	.db	0
      0038B4 01                    7290 	.db	1
      0038B5 00 00 10 06           7291 	.dw	0,4102
      0038B9 0A                    7292 	.uleb128	10
      0038BA 05                    7293 	.db	5
      0038BB 03                    7294 	.db	3
      0038BC 00 00 00 84           7295 	.dw	0,(_P04)
      0038C0 50 30 34              7296 	.ascii "P04"
      0038C3 00                    7297 	.db	0
      0038C4 01                    7298 	.db	1
      0038C5 00 00 10 06           7299 	.dw	0,4102
      0038C9 0A                    7300 	.uleb128	10
      0038CA 05                    7301 	.db	5
      0038CB 03                    7302 	.db	3
      0038CC 00 00 00 84           7303 	.dw	0,(_STADC)
      0038D0 53 54 41 44 43        7304 	.ascii "STADC"
      0038D5 00                    7305 	.db	0
      0038D6 01                    7306 	.db	1
      0038D7 00 00 10 06           7307 	.dw	0,4102
      0038DB 0A                    7308 	.uleb128	10
      0038DC 05                    7309 	.db	5
      0038DD 03                    7310 	.db	3
      0038DE 00 00 00 83           7311 	.dw	0,(_P03)
      0038E2 50 30 33              7312 	.ascii "P03"
      0038E5 00                    7313 	.db	0
      0038E6 01                    7314 	.db	1
      0038E7 00 00 10 06           7315 	.dw	0,4102
      0038EB 0A                    7316 	.uleb128	10
      0038EC 05                    7317 	.db	5
      0038ED 03                    7318 	.db	3
      0038EE 00 00 00 82           7319 	.dw	0,(_P02)
      0038F2 50 30 32              7320 	.ascii "P02"
      0038F5 00                    7321 	.db	0
      0038F6 01                    7322 	.db	1
      0038F7 00 00 10 06           7323 	.dw	0,4102
      0038FB 0A                    7324 	.uleb128	10
      0038FC 05                    7325 	.db	5
      0038FD 03                    7326 	.db	3
      0038FE 00 00 00 82           7327 	.dw	0,(_RXD_1)
      003902 52 58 44 5F 31        7328 	.ascii "RXD_1"
      003907 00                    7329 	.db	0
      003908 01                    7330 	.db	1
      003909 00 00 10 06           7331 	.dw	0,4102
      00390D 0A                    7332 	.uleb128	10
      00390E 05                    7333 	.db	5
      00390F 03                    7334 	.db	3
      003910 00 00 00 81           7335 	.dw	0,(_P01)
      003914 50 30 31              7336 	.ascii "P01"
      003917 00                    7337 	.db	0
      003918 01                    7338 	.db	1
      003919 00 00 10 06           7339 	.dw	0,4102
      00391D 0A                    7340 	.uleb128	10
      00391E 05                    7341 	.db	5
      00391F 03                    7342 	.db	3
      003920 00 00 00 81           7343 	.dw	0,(_MISO)
      003924 4D 49 53 4F           7344 	.ascii "MISO"
      003928 00                    7345 	.db	0
      003929 01                    7346 	.db	1
      00392A 00 00 10 06           7347 	.dw	0,4102
      00392E 0A                    7348 	.uleb128	10
      00392F 05                    7349 	.db	5
      003930 03                    7350 	.db	3
      003931 00 00 00 80           7351 	.dw	0,(_P00)
      003935 50 30 30              7352 	.ascii "P00"
      003938 00                    7353 	.db	0
      003939 01                    7354 	.db	1
      00393A 00 00 10 06           7355 	.dw	0,4102
      00393E 0A                    7356 	.uleb128	10
      00393F 05                    7357 	.db	5
      003940 03                    7358 	.db	3
      003941 00 00 00 80           7359 	.dw	0,(_MOSI)
      003945 4D 4F 53 49           7360 	.ascii "MOSI"
      003949 00                    7361 	.db	0
      00394A 01                    7362 	.db	1
      00394B 00 00 10 06           7363 	.dw	0,4102
      00394F 00                    7364 	.uleb128	0
      003950                       7365 Ldebug_info_end:
                                   7366 
                                   7367 	.area .debug_pubnames (NOLOAD)
      00116A 00 00 09 C7           7368 	.dw	0,Ldebug_pubnames_end-Ldebug_pubnames_start
      00116E                       7369 Ldebug_pubnames_start:
      00116E 00 02                 7370 	.dw	2
      001170 00 00 23 12           7371 	.dw	0,(Ldebug_info_start-4)
      001174 00 00 16 3E           7372 	.dw	0,4+Ldebug_info_end-Ldebug_info_start
      001178 00 00 00 69           7373 	.dw	0,105
      00117C 45 72 61 73 65 5F 4C  7374 	.ascii "Erase_LDROM"
             44 52 4F 4D
      001187 00                    7375 	.db	0
      001188 00 00 00 E1           7376 	.dw	0,225
      00118C 45 72 61 73 65 5F 56  7377 	.ascii "Erase_Verify_LDROM"
             65 72 69 66 79 5F 4C
             44 52 4F 4D
      00119E 00                    7378 	.db	0
      00119F 00 00 01 50           7379 	.dw	0,336
      0011A3 50 72 6F 67 72 61 6D  7380 	.ascii "Program_LDROM"
             5F 4C 44 52 4F 4D
      0011B0 00                    7381 	.db	0
      0011B1 00 00 01 C8           7382 	.dw	0,456
      0011B5 50 72 6F 67 72 61 6D  7383 	.ascii "Program_Verify_LDROM"
             5F 56 65 72 69 66 79
             5F 4C 44 52 4F 4D
      0011C9 00                    7384 	.db	0
      0011CA 00 00 02 47           7385 	.dw	0,583
      0011CE 45 72 61 73 65 5F 41  7386 	.ascii "Erase_APROM"
             50 52 4F 4D
      0011D9 00                    7387 	.db	0
      0011DA 00 00 02 AF           7388 	.dw	0,687
      0011DE 45 72 61 73 65 5F 56  7389 	.ascii "Erase_Verify_APROM"
             65 72 69 66 79 5F 41
             50 52 4F 4D
      0011F0 00                    7390 	.db	0
      0011F1 00 00 03 1E           7391 	.dw	0,798
      0011F5 50 72 6F 67 72 61 6D  7392 	.ascii "Program_APROM"
             5F 41 50 52 4F 4D
      001202 00                    7393 	.db	0
      001203 00 00 03 96           7394 	.dw	0,918
      001207 50 72 6F 67 72 61 6D  7395 	.ascii "Program_Verify_APROM"
             5F 56 65 72 69 66 79
             5F 41 50 52 4F 4D
      00121B 00                    7396 	.db	0
      00121C 00 00 04 15           7397 	.dw	0,1045
      001220 4D 6F 64 69 66 79 5F  7398 	.ascii "Modify_CONFIG"
             43 4F 4E 46 49 47
      00122D 00                    7399 	.db	0
      00122E 00 00 04 B1           7400 	.dw	0,1201
      001232 52 65 61 64 5F 43 4F  7401 	.ascii "Read_CONFIG"
             4E 46 49 47
      00123D 00                    7402 	.db	0
      00123E 00 00 04 E6           7403 	.dw	0,1254
      001242 52 65 61 64 5F 55 49  7404 	.ascii "Read_UID"
             44
      00124A 00                    7405 	.db	0
      00124B 00 00 05 18           7406 	.dw	0,1304
      00124F 52 65 61 64 5F 55 43  7407 	.ascii "Read_UCID"
             49 44
      001258 00                    7408 	.db	0
      001259 00 00 05 4B           7409 	.dw	0,1355
      00125D 52 65 61 64 5F 44 49  7410 	.ascii "Read_DID"
             44
      001265 00                    7411 	.db	0
      001266 00 00 05 7D           7412 	.dw	0,1405
      00126A 52 65 61 64 5F 50 49  7413 	.ascii "Read_PID"
             44
      001272 00                    7414 	.db	0
      001273 00 00 05 B7           7415 	.dw	0,1463
      001277 42 49 54 5F 54 4D 50  7416 	.ascii "BIT_TMP"
      00127E 00                    7417 	.db	0
      00127F 00 00 05 CC           7418 	.dw	0,1484
      001283 43 6F 6E 66 69 67 4D  7419 	.ascii "ConfigModifyFlag"
             6F 64 69 66 79 46 6C
             61 67
      001293 00                    7420 	.db	0
      001294 00 00 05 FB           7421 	.dw	0,1531
      001298 44 49 44 42 75 66 66  7422 	.ascii "DIDBuffer"
             65 72
      0012A1 00                    7423 	.db	0
      0012A2 00 00 06 11           7424 	.dw	0,1553
      0012A6 50 49 44 42 75 66 66  7425 	.ascii "PIDBuffer"
             65 72
      0012AF 00                    7426 	.db	0
      0012B0 00 00 06 34           7427 	.dw	0,1588
      0012B4 55 49 44 42 75 66 66  7428 	.ascii "UIDBuffer"
             65 72
      0012BD 00                    7429 	.db	0
      0012BE 00 00 06 4A           7430 	.dw	0,1610
      0012C2 55 43 49 44 42 75 66  7431 	.ascii "UCIDBuffer"
             66 65 72
      0012CC 00                    7432 	.db	0
      0012CD 00 00 06 6E           7433 	.dw	0,1646
      0012D1 49 41 50 44 61 74 61  7434 	.ascii "IAPDataBuf"
             42 75 66
      0012DB 00                    7435 	.db	0
      0012DC 00 00 06 92           7436 	.dw	0,1682
      0012E0 49 41 50 43 46 42 75  7437 	.ascii "IAPCFBuf"
             66
      0012E8 00                    7438 	.db	0
      0012E9 00 00 06 A7           7439 	.dw	0,1703
      0012ED 50 30                 7440 	.ascii "P0"
      0012EF 00                    7441 	.db	0
      0012F0 00 00 06 B6           7442 	.dw	0,1718
      0012F4 53 50                 7443 	.ascii "SP"
      0012F6 00                    7444 	.db	0
      0012F7 00 00 06 C5           7445 	.dw	0,1733
      0012FB 44 50 4C              7446 	.ascii "DPL"
      0012FE 00                    7447 	.db	0
      0012FF 00 00 06 D5           7448 	.dw	0,1749
      001303 44 50 48              7449 	.ascii "DPH"
      001306 00                    7450 	.db	0
      001307 00 00 06 E5           7451 	.dw	0,1765
      00130B 52 43 54 52 49 4D 30  7452 	.ascii "RCTRIM0"
      001312 00                    7453 	.db	0
      001313 00 00 06 F9           7454 	.dw	0,1785
      001317 52 43 54 52 49 4D 31  7455 	.ascii "RCTRIM1"
      00131E 00                    7456 	.db	0
      00131F 00 00 07 0D           7457 	.dw	0,1805
      001323 52 57 4B              7458 	.ascii "RWK"
      001326 00                    7459 	.db	0
      001327 00 00 07 1D           7460 	.dw	0,1821
      00132B 50 43 4F 4E           7461 	.ascii "PCON"
      00132F 00                    7462 	.db	0
      001330 00 00 07 2E           7463 	.dw	0,1838
      001334 54 43 4F 4E           7464 	.ascii "TCON"
      001338 00                    7465 	.db	0
      001339 00 00 07 3F           7466 	.dw	0,1855
      00133D 54 4D 4F 44           7467 	.ascii "TMOD"
      001341 00                    7468 	.db	0
      001342 00 00 07 50           7469 	.dw	0,1872
      001346 54 4C 30              7470 	.ascii "TL0"
      001349 00                    7471 	.db	0
      00134A 00 00 07 60           7472 	.dw	0,1888
      00134E 54 4C 31              7473 	.ascii "TL1"
      001351 00                    7474 	.db	0
      001352 00 00 07 70           7475 	.dw	0,1904
      001356 54 48 30              7476 	.ascii "TH0"
      001359 00                    7477 	.db	0
      00135A 00 00 07 80           7478 	.dw	0,1920
      00135E 54 48 31              7479 	.ascii "TH1"
      001361 00                    7480 	.db	0
      001362 00 00 07 90           7481 	.dw	0,1936
      001366 43 4B 43 4F 4E        7482 	.ascii "CKCON"
      00136B 00                    7483 	.db	0
      00136C 00 00 07 A2           7484 	.dw	0,1954
      001370 57 4B 43 4F 4E        7485 	.ascii "WKCON"
      001375 00                    7486 	.db	0
      001376 00 00 07 B4           7487 	.dw	0,1972
      00137A 50 31                 7488 	.ascii "P1"
      00137C 00                    7489 	.db	0
      00137D 00 00 07 C3           7490 	.dw	0,1987
      001381 53 46 52 53           7491 	.ascii "SFRS"
      001385 00                    7492 	.db	0
      001386 00 00 07 D4           7493 	.dw	0,2004
      00138A 43 41 50 43 4F 4E 30  7494 	.ascii "CAPCON0"
      001391 00                    7495 	.db	0
      001392 00 00 07 E8           7496 	.dw	0,2024
      001396 43 41 50 43 4F 4E 31  7497 	.ascii "CAPCON1"
      00139D 00                    7498 	.db	0
      00139E 00 00 07 FC           7499 	.dw	0,2044
      0013A2 43 41 50 43 4F 4E 32  7500 	.ascii "CAPCON2"
      0013A9 00                    7501 	.db	0
      0013AA 00 00 08 10           7502 	.dw	0,2064
      0013AE 43 4B 44 49 56        7503 	.ascii "CKDIV"
      0013B3 00                    7504 	.db	0
      0013B4 00 00 08 22           7505 	.dw	0,2082
      0013B8 43 4B 53 57 54        7506 	.ascii "CKSWT"
      0013BD 00                    7507 	.db	0
      0013BE 00 00 08 34           7508 	.dw	0,2100
      0013C2 43 4B 45 4E           7509 	.ascii "CKEN"
      0013C6 00                    7510 	.db	0
      0013C7 00 00 08 45           7511 	.dw	0,2117
      0013CB 53 43 4F 4E           7512 	.ascii "SCON"
      0013CF 00                    7513 	.db	0
      0013D0 00 00 08 56           7514 	.dw	0,2134
      0013D4 53 42 55 46           7515 	.ascii "SBUF"
      0013D8 00                    7516 	.db	0
      0013D9 00 00 08 67           7517 	.dw	0,2151
      0013DD 53 42 55 46 5F 31     7518 	.ascii "SBUF_1"
      0013E3 00                    7519 	.db	0
      0013E4 00 00 08 7A           7520 	.dw	0,2170
      0013E8 45 49 45              7521 	.ascii "EIE"
      0013EB 00                    7522 	.db	0
      0013EC 00 00 08 8A           7523 	.dw	0,2186
      0013F0 45 49 45 31           7524 	.ascii "EIE1"
      0013F4 00                    7525 	.db	0
      0013F5 00 00 08 9B           7526 	.dw	0,2203
      0013F9 43 48 50 43 4F 4E     7527 	.ascii "CHPCON"
      0013FF 00                    7528 	.db	0
      001400 00 00 08 AE           7529 	.dw	0,2222
      001404 50 32                 7530 	.ascii "P2"
      001406 00                    7531 	.db	0
      001407 00 00 08 BD           7532 	.dw	0,2237
      00140B 41 55 58 52 31        7533 	.ascii "AUXR1"
      001410 00                    7534 	.db	0
      001411 00 00 08 CF           7535 	.dw	0,2255
      001415 42 4F 44 43 4F 4E 30  7536 	.ascii "BODCON0"
      00141C 00                    7537 	.db	0
      00141D 00 00 08 E3           7538 	.dw	0,2275
      001421 49 41 50 54 52 47     7539 	.ascii "IAPTRG"
      001427 00                    7540 	.db	0
      001428 00 00 08 F6           7541 	.dw	0,2294
      00142C 49 41 50 55 45 4E     7542 	.ascii "IAPUEN"
      001432 00                    7543 	.db	0
      001433 00 00 09 09           7544 	.dw	0,2313
      001437 49 41 50 41 4C        7545 	.ascii "IAPAL"
      00143C 00                    7546 	.db	0
      00143D 00 00 09 1B           7547 	.dw	0,2331
      001441 49 41 50 41 48        7548 	.ascii "IAPAH"
      001446 00                    7549 	.db	0
      001447 00 00 09 2D           7550 	.dw	0,2349
      00144B 49 45                 7551 	.ascii "IE"
      00144D 00                    7552 	.db	0
      00144E 00 00 09 3C           7553 	.dw	0,2364
      001452 53 41 44 44 52        7554 	.ascii "SADDR"
      001457 00                    7555 	.db	0
      001458 00 00 09 4E           7556 	.dw	0,2382
      00145C 57 44 43 4F 4E        7557 	.ascii "WDCON"
      001461 00                    7558 	.db	0
      001462 00 00 09 60           7559 	.dw	0,2400
      001466 42 4F 44 43 4F 4E 31  7560 	.ascii "BODCON1"
      00146D 00                    7561 	.db	0
      00146E 00 00 09 74           7562 	.dw	0,2420
      001472 50 33 4D 31           7563 	.ascii "P3M1"
      001476 00                    7564 	.db	0
      001477 00 00 09 85           7565 	.dw	0,2437
      00147B 50 33 53              7566 	.ascii "P3S"
      00147E 00                    7567 	.db	0
      00147F 00 00 09 95           7568 	.dw	0,2453
      001483 50 33 4D 32           7569 	.ascii "P3M2"
      001487 00                    7570 	.db	0
      001488 00 00 09 A6           7571 	.dw	0,2470
      00148C 50 33 53 52           7572 	.ascii "P3SR"
      001490 00                    7573 	.db	0
      001491 00 00 09 B7           7574 	.dw	0,2487
      001495 49 41 50 46 44        7575 	.ascii "IAPFD"
      00149A 00                    7576 	.db	0
      00149B 00 00 09 C9           7577 	.dw	0,2505
      00149F 49 41 50 43 4E        7578 	.ascii "IAPCN"
      0014A4 00                    7579 	.db	0
      0014A5 00 00 09 DB           7580 	.dw	0,2523
      0014A9 50 33                 7581 	.ascii "P3"
      0014AB 00                    7582 	.db	0
      0014AC 00 00 09 EA           7583 	.dw	0,2538
      0014B0 50 30 4D 31           7584 	.ascii "P0M1"
      0014B4 00                    7585 	.db	0
      0014B5 00 00 09 FB           7586 	.dw	0,2555
      0014B9 50 30 53              7587 	.ascii "P0S"
      0014BC 00                    7588 	.db	0
      0014BD 00 00 0A 0B           7589 	.dw	0,2571
      0014C1 50 30 4D 32           7590 	.ascii "P0M2"
      0014C5 00                    7591 	.db	0
      0014C6 00 00 0A 1C           7592 	.dw	0,2588
      0014CA 50 30 53 52           7593 	.ascii "P0SR"
      0014CE 00                    7594 	.db	0
      0014CF 00 00 0A 2D           7595 	.dw	0,2605
      0014D3 50 31 4D 31           7596 	.ascii "P1M1"
      0014D7 00                    7597 	.db	0
      0014D8 00 00 0A 3E           7598 	.dw	0,2622
      0014DC 50 31 53              7599 	.ascii "P1S"
      0014DF 00                    7600 	.db	0
      0014E0 00 00 0A 4E           7601 	.dw	0,2638
      0014E4 50 31 4D 32           7602 	.ascii "P1M2"
      0014E8 00                    7603 	.db	0
      0014E9 00 00 0A 5F           7604 	.dw	0,2655
      0014ED 50 31 53 52           7605 	.ascii "P1SR"
      0014F1 00                    7606 	.db	0
      0014F2 00 00 0A 70           7607 	.dw	0,2672
      0014F6 50 32 53              7608 	.ascii "P2S"
      0014F9 00                    7609 	.db	0
      0014FA 00 00 0A 80           7610 	.dw	0,2688
      0014FE 49 50 48              7611 	.ascii "IPH"
      001501 00                    7612 	.db	0
      001502 00 00 0A 90           7613 	.dw	0,2704
      001506 50 57 4D 49 4E 54 43  7614 	.ascii "PWMINTC"
      00150D 00                    7615 	.db	0
      00150E 00 00 0A A4           7616 	.dw	0,2724
      001512 49 50                 7617 	.ascii "IP"
      001514 00                    7618 	.db	0
      001515 00 00 0A B3           7619 	.dw	0,2739
      001519 53 41 44 45 4E        7620 	.ascii "SADEN"
      00151E 00                    7621 	.db	0
      00151F 00 00 0A C5           7622 	.dw	0,2757
      001523 53 41 44 45 4E 5F 31  7623 	.ascii "SADEN_1"
      00152A 00                    7624 	.db	0
      00152B 00 00 0A D9           7625 	.dw	0,2777
      00152F 53 41 44 44 52 5F 31  7626 	.ascii "SADDR_1"
      001536 00                    7627 	.db	0
      001537 00 00 0A ED           7628 	.dw	0,2797
      00153B 49 32 44 41 54        7629 	.ascii "I2DAT"
      001540 00                    7630 	.db	0
      001541 00 00 0A FF           7631 	.dw	0,2815
      001545 49 32 53 54 41 54     7632 	.ascii "I2STAT"
      00154B 00                    7633 	.db	0
      00154C 00 00 0B 12           7634 	.dw	0,2834
      001550 49 32 43 4C 4B        7635 	.ascii "I2CLK"
      001555 00                    7636 	.db	0
      001556 00 00 0B 24           7637 	.dw	0,2852
      00155A 49 32 54 4F 43        7638 	.ascii "I2TOC"
      00155F 00                    7639 	.db	0
      001560 00 00 0B 36           7640 	.dw	0,2870
      001564 49 32 43 4F 4E        7641 	.ascii "I2CON"
      001569 00                    7642 	.db	0
      00156A 00 00 0B 48           7643 	.dw	0,2888
      00156E 49 32 41 44 44 52     7644 	.ascii "I2ADDR"
      001574 00                    7645 	.db	0
      001575 00 00 0B 5B           7646 	.dw	0,2907
      001579 41 44 43 52 4C        7647 	.ascii "ADCRL"
      00157E 00                    7648 	.db	0
      00157F 00 00 0B 6D           7649 	.dw	0,2925
      001583 41 44 43 52 48        7650 	.ascii "ADCRH"
      001588 00                    7651 	.db	0
      001589 00 00 0B 7F           7652 	.dw	0,2943
      00158D 54 33 43 4F 4E        7653 	.ascii "T3CON"
      001592 00                    7654 	.db	0
      001593 00 00 0B 91           7655 	.dw	0,2961
      001597 50 57 4D 34 48        7656 	.ascii "PWM4H"
      00159C 00                    7657 	.db	0
      00159D 00 00 0B A3           7658 	.dw	0,2979
      0015A1 52 4C 33              7659 	.ascii "RL3"
      0015A4 00                    7660 	.db	0
      0015A5 00 00 0B B3           7661 	.dw	0,2995
      0015A9 50 57 4D 35 48        7662 	.ascii "PWM5H"
      0015AE 00                    7663 	.db	0
      0015AF 00 00 0B C5           7664 	.dw	0,3013
      0015B3 52 48 33              7665 	.ascii "RH3"
      0015B6 00                    7666 	.db	0
      0015B7 00 00 0B D5           7667 	.dw	0,3029
      0015BB 50 49 4F 43 4F 4E 31  7668 	.ascii "PIOCON1"
      0015C2 00                    7669 	.db	0
      0015C3 00 00 0B E9           7670 	.dw	0,3049
      0015C7 54 41                 7671 	.ascii "TA"
      0015C9 00                    7672 	.db	0
      0015CA 00 00 0B F8           7673 	.dw	0,3064
      0015CE 54 32 43 4F 4E        7674 	.ascii "T2CON"
      0015D3 00                    7675 	.db	0
      0015D4 00 00 0C 0A           7676 	.dw	0,3082
      0015D8 54 32 4D 4F 44        7677 	.ascii "T2MOD"
      0015DD 00                    7678 	.db	0
      0015DE 00 00 0C 1C           7679 	.dw	0,3100
      0015E2 52 43 4D 50 32 4C     7680 	.ascii "RCMP2L"
      0015E8 00                    7681 	.db	0
      0015E9 00 00 0C 2F           7682 	.dw	0,3119
      0015ED 52 43 4D 50 32 48     7683 	.ascii "RCMP2H"
      0015F3 00                    7684 	.db	0
      0015F4 00 00 0C 42           7685 	.dw	0,3138
      0015F8 54 4C 32              7686 	.ascii "TL2"
      0015FB 00                    7687 	.db	0
      0015FC 00 00 0C 52           7688 	.dw	0,3154
      001600 50 57 4D 34 4C        7689 	.ascii "PWM4L"
      001605 00                    7690 	.db	0
      001606 00 00 0C 64           7691 	.dw	0,3172
      00160A 54 48 32              7692 	.ascii "TH2"
      00160D 00                    7693 	.db	0
      00160E 00 00 0C 74           7694 	.dw	0,3188
      001612 50 57 4D 35 4C        7695 	.ascii "PWM5L"
      001617 00                    7696 	.db	0
      001618 00 00 0C 86           7697 	.dw	0,3206
      00161C 41 44 43 4D 50 4C     7698 	.ascii "ADCMPL"
      001622 00                    7699 	.db	0
      001623 00 00 0C 99           7700 	.dw	0,3225
      001627 41 44 43 4D 50 48     7701 	.ascii "ADCMPH"
      00162D 00                    7702 	.db	0
      00162E 00 00 0C AC           7703 	.dw	0,3244
      001632 50 53 57              7704 	.ascii "PSW"
      001635 00                    7705 	.db	0
      001636 00 00 0C BC           7706 	.dw	0,3260
      00163A 50 57 4D 50 48        7707 	.ascii "PWMPH"
      00163F 00                    7708 	.db	0
      001640 00 00 0C CE           7709 	.dw	0,3278
      001644 50 57 4D 30 48        7710 	.ascii "PWM0H"
      001649 00                    7711 	.db	0
      00164A 00 00 0C E0           7712 	.dw	0,3296
      00164E 50 57 4D 31 48        7713 	.ascii "PWM1H"
      001653 00                    7714 	.db	0
      001654 00 00 0C F2           7715 	.dw	0,3314
      001658 50 57 4D 32 48        7716 	.ascii "PWM2H"
      00165D 00                    7717 	.db	0
      00165E 00 00 0D 04           7718 	.dw	0,3332
      001662 50 57 4D 33 48        7719 	.ascii "PWM3H"
      001667 00                    7720 	.db	0
      001668 00 00 0D 16           7721 	.dw	0,3350
      00166C 50 4E 50              7722 	.ascii "PNP"
      00166F 00                    7723 	.db	0
      001670 00 00 0D 26           7724 	.dw	0,3366
      001674 46 42 44              7725 	.ascii "FBD"
      001677 00                    7726 	.db	0
      001678 00 00 0D 36           7727 	.dw	0,3382
      00167C 50 57 4D 43 4F 4E 30  7728 	.ascii "PWMCON0"
      001683 00                    7729 	.db	0
      001684 00 00 0D 4A           7730 	.dw	0,3402
      001688 50 57 4D 50 4C        7731 	.ascii "PWMPL"
      00168D 00                    7732 	.db	0
      00168E 00 00 0D 5C           7733 	.dw	0,3420
      001692 50 57 4D 30 4C        7734 	.ascii "PWM0L"
      001697 00                    7735 	.db	0
      001698 00 00 0D 6E           7736 	.dw	0,3438
      00169C 50 57 4D 31 4C        7737 	.ascii "PWM1L"
      0016A1 00                    7738 	.db	0
      0016A2 00 00 0D 80           7739 	.dw	0,3456
      0016A6 50 57 4D 32 4C        7740 	.ascii "PWM2L"
      0016AB 00                    7741 	.db	0
      0016AC 00 00 0D 92           7742 	.dw	0,3474
      0016B0 50 57 4D 33 4C        7743 	.ascii "PWM3L"
      0016B5 00                    7744 	.db	0
      0016B6 00 00 0D A4           7745 	.dw	0,3492
      0016BA 50 49 4F 43 4F 4E 30  7746 	.ascii "PIOCON0"
      0016C1 00                    7747 	.db	0
      0016C2 00 00 0D B8           7748 	.dw	0,3512
      0016C6 50 57 4D 43 4F 4E 31  7749 	.ascii "PWMCON1"
      0016CD 00                    7750 	.db	0
      0016CE 00 00 0D CC           7751 	.dw	0,3532
      0016D2 41 43 43              7752 	.ascii "ACC"
      0016D5 00                    7753 	.db	0
      0016D6 00 00 0D DC           7754 	.dw	0,3548
      0016DA 41 44 43 43 4F 4E 31  7755 	.ascii "ADCCON1"
      0016E1 00                    7756 	.db	0
      0016E2 00 00 0D F0           7757 	.dw	0,3568
      0016E6 41 44 43 43 4F 4E 32  7758 	.ascii "ADCCON2"
      0016ED 00                    7759 	.db	0
      0016EE 00 00 0E 04           7760 	.dw	0,3588
      0016F2 41 44 43 44 4C 59     7761 	.ascii "ADCDLY"
      0016F8 00                    7762 	.db	0
      0016F9 00 00 0E 17           7763 	.dw	0,3607
      0016FD 43 30 4C              7764 	.ascii "C0L"
      001700 00                    7765 	.db	0
      001701 00 00 0E 27           7766 	.dw	0,3623
      001705 43 30 48              7767 	.ascii "C0H"
      001708 00                    7768 	.db	0
      001709 00 00 0E 37           7769 	.dw	0,3639
      00170D 43 31 4C              7770 	.ascii "C1L"
      001710 00                    7771 	.db	0
      001711 00 00 0E 47           7772 	.dw	0,3655
      001715 43 31 48              7773 	.ascii "C1H"
      001718 00                    7774 	.db	0
      001719 00 00 0E 57           7775 	.dw	0,3671
      00171D 41 44 43 43 4F 4E 30  7776 	.ascii "ADCCON0"
      001724 00                    7777 	.db	0
      001725 00 00 0E 6B           7778 	.dw	0,3691
      001729 50 49 43 4F 4E        7779 	.ascii "PICON"
      00172E 00                    7780 	.db	0
      00172F 00 00 0E 7D           7781 	.dw	0,3709
      001733 50 49 4E 45 4E        7782 	.ascii "PINEN"
      001738 00                    7783 	.db	0
      001739 00 00 0E 8F           7784 	.dw	0,3727
      00173D 50 49 50 45 4E        7785 	.ascii "PIPEN"
      001742 00                    7786 	.db	0
      001743 00 00 0E A1           7787 	.dw	0,3745
      001747 50 49 46              7788 	.ascii "PIF"
      00174A 00                    7789 	.db	0
      00174B 00 00 0E B1           7790 	.dw	0,3761
      00174F 43 32 4C              7791 	.ascii "C2L"
      001752 00                    7792 	.db	0
      001753 00 00 0E C1           7793 	.dw	0,3777
      001757 43 32 48              7794 	.ascii "C2H"
      00175A 00                    7795 	.db	0
      00175B 00 00 0E D1           7796 	.dw	0,3793
      00175F 45 49 50              7797 	.ascii "EIP"
      001762 00                    7798 	.db	0
      001763 00 00 0E E1           7799 	.dw	0,3809
      001767 42                    7800 	.ascii "B"
      001768 00                    7801 	.db	0
      001769 00 00 0E EF           7802 	.dw	0,3823
      00176D 43 41 50 43 4F 4E 33  7803 	.ascii "CAPCON3"
      001774 00                    7804 	.db	0
      001775 00 00 0F 03           7805 	.dw	0,3843
      001779 43 41 50 43 4F 4E 34  7806 	.ascii "CAPCON4"
      001780 00                    7807 	.db	0
      001781 00 00 0F 17           7808 	.dw	0,3863
      001785 53 50 43 52           7809 	.ascii "SPCR"
      001789 00                    7810 	.db	0
      00178A 00 00 0F 28           7811 	.dw	0,3880
      00178E 53 50 43 52 32        7812 	.ascii "SPCR2"
      001793 00                    7813 	.db	0
      001794 00 00 0F 3A           7814 	.dw	0,3898
      001798 53 50 53 52           7815 	.ascii "SPSR"
      00179C 00                    7816 	.db	0
      00179D 00 00 0F 4B           7817 	.dw	0,3915
      0017A1 53 50 44 52           7818 	.ascii "SPDR"
      0017A5 00                    7819 	.db	0
      0017A6 00 00 0F 5C           7820 	.dw	0,3932
      0017AA 41 49 4E 44 49 44 53  7821 	.ascii "AINDIDS"
      0017B1 00                    7822 	.db	0
      0017B2 00 00 0F 70           7823 	.dw	0,3952
      0017B6 45 49 50 48           7824 	.ascii "EIPH"
      0017BA 00                    7825 	.db	0
      0017BB 00 00 0F 81           7826 	.dw	0,3969
      0017BF 53 43 4F 4E 5F 31     7827 	.ascii "SCON_1"
      0017C5 00                    7828 	.db	0
      0017C6 00 00 0F 94           7829 	.dw	0,3988
      0017CA 50 44 54 45 4E        7830 	.ascii "PDTEN"
      0017CF 00                    7831 	.db	0
      0017D0 00 00 0F A6           7832 	.dw	0,4006
      0017D4 50 44 54 43 4E 54     7833 	.ascii "PDTCNT"
      0017DA 00                    7834 	.db	0
      0017DB 00 00 0F B9           7835 	.dw	0,4025
      0017DF 50 4D 45 4E           7836 	.ascii "PMEN"
      0017E3 00                    7837 	.db	0
      0017E4 00 00 0F CA           7838 	.dw	0,4042
      0017E8 50 4D 44              7839 	.ascii "PMD"
      0017EB 00                    7840 	.db	0
      0017EC 00 00 0F DA           7841 	.dw	0,4058
      0017F0 45 49 50 31           7842 	.ascii "EIP1"
      0017F4 00                    7843 	.db	0
      0017F5 00 00 0F EB           7844 	.dw	0,4075
      0017F9 45 49 50 48 31        7845 	.ascii "EIPH1"
      0017FE 00                    7846 	.db	0
      0017FF 00 00 10 0B           7847 	.dw	0,4107
      001803 53 4D 30 5F 31        7848 	.ascii "SM0_1"
      001808 00                    7849 	.db	0
      001809 00 00 10 1D           7850 	.dw	0,4125
      00180D 46 45 5F 31           7851 	.ascii "FE_1"
      001811 00                    7852 	.db	0
      001812 00 00 10 2E           7853 	.dw	0,4142
      001816 53 4D 31 5F 31        7854 	.ascii "SM1_1"
      00181B 00                    7855 	.db	0
      00181C 00 00 10 40           7856 	.dw	0,4160
      001820 53 4D 32 5F 31        7857 	.ascii "SM2_1"
      001825 00                    7858 	.db	0
      001826 00 00 10 52           7859 	.dw	0,4178
      00182A 52 45 4E 5F 31        7860 	.ascii "REN_1"
      00182F 00                    7861 	.db	0
      001830 00 00 10 64           7862 	.dw	0,4196
      001834 54 42 38 5F 31        7863 	.ascii "TB8_1"
      001839 00                    7864 	.db	0
      00183A 00 00 10 76           7865 	.dw	0,4214
      00183E 52 42 38 5F 31        7866 	.ascii "RB8_1"
      001843 00                    7867 	.db	0
      001844 00 00 10 88           7868 	.dw	0,4232
      001848 54 49 5F 31           7869 	.ascii "TI_1"
      00184C 00                    7870 	.db	0
      00184D 00 00 10 99           7871 	.dw	0,4249
      001851 52 49 5F 31           7872 	.ascii "RI_1"
      001855 00                    7873 	.db	0
      001856 00 00 10 AA           7874 	.dw	0,4266
      00185A 41 44 43 46           7875 	.ascii "ADCF"
      00185E 00                    7876 	.db	0
      00185F 00 00 10 BB           7877 	.dw	0,4283
      001863 41 44 43 53           7878 	.ascii "ADCS"
      001867 00                    7879 	.db	0
      001868 00 00 10 CC           7880 	.dw	0,4300
      00186C 45 54 47 53 45 4C 31  7881 	.ascii "ETGSEL1"
      001873 00                    7882 	.db	0
      001874 00 00 10 E0           7883 	.dw	0,4320
      001878 45 54 47 53 45 4C 30  7884 	.ascii "ETGSEL0"
      00187F 00                    7885 	.db	0
      001880 00 00 10 F4           7886 	.dw	0,4340
      001884 41 44 43 48 53 33     7887 	.ascii "ADCHS3"
      00188A 00                    7888 	.db	0
      00188B 00 00 11 07           7889 	.dw	0,4359
      00188F 41 44 43 48 53 32     7890 	.ascii "ADCHS2"
      001895 00                    7891 	.db	0
      001896 00 00 11 1A           7892 	.dw	0,4378
      00189A 41 44 43 48 53 31     7893 	.ascii "ADCHS1"
      0018A0 00                    7894 	.db	0
      0018A1 00 00 11 2D           7895 	.dw	0,4397
      0018A5 41 44 43 48 53 30     7896 	.ascii "ADCHS0"
      0018AB 00                    7897 	.db	0
      0018AC 00 00 11 40           7898 	.dw	0,4416
      0018B0 50 57 4D 52 55 4E     7899 	.ascii "PWMRUN"
      0018B6 00                    7900 	.db	0
      0018B7 00 00 11 53           7901 	.dw	0,4435
      0018BB 4C 4F 41 44           7902 	.ascii "LOAD"
      0018BF 00                    7903 	.db	0
      0018C0 00 00 11 64           7904 	.dw	0,4452
      0018C4 50 57 4D 46           7905 	.ascii "PWMF"
      0018C8 00                    7906 	.db	0
      0018C9 00 00 11 75           7907 	.dw	0,4469
      0018CD 43 4C 52 50 57 4D     7908 	.ascii "CLRPWM"
      0018D3 00                    7909 	.db	0
      0018D4 00 00 11 88           7910 	.dw	0,4488
      0018D8 43 59                 7911 	.ascii "CY"
      0018DA 00                    7912 	.db	0
      0018DB 00 00 11 97           7913 	.dw	0,4503
      0018DF 41 43                 7914 	.ascii "AC"
      0018E1 00                    7915 	.db	0
      0018E2 00 00 11 A6           7916 	.dw	0,4518
      0018E6 46 30                 7917 	.ascii "F0"
      0018E8 00                    7918 	.db	0
      0018E9 00 00 11 B5           7919 	.dw	0,4533
      0018ED 52 53 31              7920 	.ascii "RS1"
      0018F0 00                    7921 	.db	0
      0018F1 00 00 11 C5           7922 	.dw	0,4549
      0018F5 52 53 30              7923 	.ascii "RS0"
      0018F8 00                    7924 	.db	0
      0018F9 00 00 11 D5           7925 	.dw	0,4565
      0018FD 4F 56                 7926 	.ascii "OV"
      0018FF 00                    7927 	.db	0
      001900 00 00 11 E4           7928 	.dw	0,4580
      001904 50                    7929 	.ascii "P"
      001905 00                    7930 	.db	0
      001906 00 00 11 F2           7931 	.dw	0,4594
      00190A 54 46 32              7932 	.ascii "TF2"
      00190D 00                    7933 	.db	0
      00190E 00 00 12 02           7934 	.dw	0,4610
      001912 54 52 32              7935 	.ascii "TR2"
      001915 00                    7936 	.db	0
      001916 00 00 12 12           7937 	.dw	0,4626
      00191A 43 4D 5F 52 4C 32     7938 	.ascii "CM_RL2"
      001920 00                    7939 	.db	0
      001921 00 00 12 25           7940 	.dw	0,4645
      001925 49 32 43 45 4E        7941 	.ascii "I2CEN"
      00192A 00                    7942 	.db	0
      00192B 00 00 12 37           7943 	.dw	0,4663
      00192F 53 54 41              7944 	.ascii "STA"
      001932 00                    7945 	.db	0
      001933 00 00 12 47           7946 	.dw	0,4679
      001937 53 54 4F              7947 	.ascii "STO"
      00193A 00                    7948 	.db	0
      00193B 00 00 12 57           7949 	.dw	0,4695
      00193F 53 49                 7950 	.ascii "SI"
      001941 00                    7951 	.db	0
      001942 00 00 12 66           7952 	.dw	0,4710
      001946 41 41                 7953 	.ascii "AA"
      001948 00                    7954 	.db	0
      001949 00 00 12 75           7955 	.dw	0,4725
      00194D 49 32 43 50 58        7956 	.ascii "I2CPX"
      001952 00                    7957 	.db	0
      001953 00 00 12 87           7958 	.dw	0,4743
      001957 50 41 44 43           7959 	.ascii "PADC"
      00195B 00                    7960 	.db	0
      00195C 00 00 12 98           7961 	.dw	0,4760
      001960 50 42 4F 44           7962 	.ascii "PBOD"
      001964 00                    7963 	.db	0
      001965 00 00 12 A9           7964 	.dw	0,4777
      001969 50 53                 7965 	.ascii "PS"
      00196B 00                    7966 	.db	0
      00196C 00 00 12 B8           7967 	.dw	0,4792
      001970 50 54 31              7968 	.ascii "PT1"
      001973 00                    7969 	.db	0
      001974 00 00 12 C8           7970 	.dw	0,4808
      001978 50 58 31              7971 	.ascii "PX1"
      00197B 00                    7972 	.db	0
      00197C 00 00 12 D8           7973 	.dw	0,4824
      001980 50 54 30              7974 	.ascii "PT0"
      001983 00                    7975 	.db	0
      001984 00 00 12 E8           7976 	.dw	0,4840
      001988 50 58 30              7977 	.ascii "PX0"
      00198B 00                    7978 	.db	0
      00198C 00 00 12 F8           7979 	.dw	0,4856
      001990 50 33 30              7980 	.ascii "P30"
      001993 00                    7981 	.db	0
      001994 00 00 13 08           7982 	.dw	0,4872
      001998 45 41                 7983 	.ascii "EA"
      00199A 00                    7984 	.db	0
      00199B 00 00 13 17           7985 	.dw	0,4887
      00199F 45 41 44 43           7986 	.ascii "EADC"
      0019A3 00                    7987 	.db	0
      0019A4 00 00 13 28           7988 	.dw	0,4904
      0019A8 45 42 4F 44           7989 	.ascii "EBOD"
      0019AC 00                    7990 	.db	0
      0019AD 00 00 13 39           7991 	.dw	0,4921
      0019B1 45 53                 7992 	.ascii "ES"
      0019B3 00                    7993 	.db	0
      0019B4 00 00 13 48           7994 	.dw	0,4936
      0019B8 45 54 31              7995 	.ascii "ET1"
      0019BB 00                    7996 	.db	0
      0019BC 00 00 13 58           7997 	.dw	0,4952
      0019C0 45 58 31              7998 	.ascii "EX1"
      0019C3 00                    7999 	.db	0
      0019C4 00 00 13 68           8000 	.dw	0,4968
      0019C8 45 54 30              8001 	.ascii "ET0"
      0019CB 00                    8002 	.db	0
      0019CC 00 00 13 78           8003 	.dw	0,4984
      0019D0 45 58 30              8004 	.ascii "EX0"
      0019D3 00                    8005 	.db	0
      0019D4 00 00 13 88           8006 	.dw	0,5000
      0019D8 50 32 30              8007 	.ascii "P20"
      0019DB 00                    8008 	.db	0
      0019DC 00 00 13 98           8009 	.dw	0,5016
      0019E0 53 4D 30              8010 	.ascii "SM0"
      0019E3 00                    8011 	.db	0
      0019E4 00 00 13 A8           8012 	.dw	0,5032
      0019E8 46 45                 8013 	.ascii "FE"
      0019EA 00                    8014 	.db	0
      0019EB 00 00 13 B7           8015 	.dw	0,5047
      0019EF 53 4D 31              8016 	.ascii "SM1"
      0019F2 00                    8017 	.db	0
      0019F3 00 00 13 C7           8018 	.dw	0,5063
      0019F7 53 4D 32              8019 	.ascii "SM2"
      0019FA 00                    8020 	.db	0
      0019FB 00 00 13 D7           8021 	.dw	0,5079
      0019FF 52 45 4E              8022 	.ascii "REN"
      001A02 00                    8023 	.db	0
      001A03 00 00 13 E7           8024 	.dw	0,5095
      001A07 54 42 38              8025 	.ascii "TB8"
      001A0A 00                    8026 	.db	0
      001A0B 00 00 13 F7           8027 	.dw	0,5111
      001A0F 52 42 38              8028 	.ascii "RB8"
      001A12 00                    8029 	.db	0
      001A13 00 00 14 07           8030 	.dw	0,5127
      001A17 54 49                 8031 	.ascii "TI"
      001A19 00                    8032 	.db	0
      001A1A 00 00 14 16           8033 	.dw	0,5142
      001A1E 52 49                 8034 	.ascii "RI"
      001A20 00                    8035 	.db	0
      001A21 00 00 14 25           8036 	.dw	0,5157
      001A25 50 31 37              8037 	.ascii "P17"
      001A28 00                    8038 	.db	0
      001A29 00 00 14 35           8039 	.dw	0,5173
      001A2D 50 31 36              8040 	.ascii "P16"
      001A30 00                    8041 	.db	0
      001A31 00 00 14 45           8042 	.dw	0,5189
      001A35 54 58 44 5F 31        8043 	.ascii "TXD_1"
      001A3A 00                    8044 	.db	0
      001A3B 00 00 14 57           8045 	.dw	0,5207
      001A3F 50 31 35              8046 	.ascii "P15"
      001A42 00                    8047 	.db	0
      001A43 00 00 14 67           8048 	.dw	0,5223
      001A47 50 31 34              8049 	.ascii "P14"
      001A4A 00                    8050 	.db	0
      001A4B 00 00 14 77           8051 	.dw	0,5239
      001A4F 53 44 41              8052 	.ascii "SDA"
      001A52 00                    8053 	.db	0
      001A53 00 00 14 87           8054 	.dw	0,5255
      001A57 50 31 33              8055 	.ascii "P13"
      001A5A 00                    8056 	.db	0
      001A5B 00 00 14 97           8057 	.dw	0,5271
      001A5F 53 43 4C              8058 	.ascii "SCL"
      001A62 00                    8059 	.db	0
      001A63 00 00 14 A7           8060 	.dw	0,5287
      001A67 50 31 32              8061 	.ascii "P12"
      001A6A 00                    8062 	.db	0
      001A6B 00 00 14 B7           8063 	.dw	0,5303
      001A6F 50 31 31              8064 	.ascii "P11"
      001A72 00                    8065 	.db	0
      001A73 00 00 14 C7           8066 	.dw	0,5319
      001A77 50 31 30              8067 	.ascii "P10"
      001A7A 00                    8068 	.db	0
      001A7B 00 00 14 D7           8069 	.dw	0,5335
      001A7F 54 46 31              8070 	.ascii "TF1"
      001A82 00                    8071 	.db	0
      001A83 00 00 14 E7           8072 	.dw	0,5351
      001A87 54 52 31              8073 	.ascii "TR1"
      001A8A 00                    8074 	.db	0
      001A8B 00 00 14 F7           8075 	.dw	0,5367
      001A8F 54 46 30              8076 	.ascii "TF0"
      001A92 00                    8077 	.db	0
      001A93 00 00 15 07           8078 	.dw	0,5383
      001A97 54 52 30              8079 	.ascii "TR0"
      001A9A 00                    8080 	.db	0
      001A9B 00 00 15 17           8081 	.dw	0,5399
      001A9F 49 45 31              8082 	.ascii "IE1"
      001AA2 00                    8083 	.db	0
      001AA3 00 00 15 27           8084 	.dw	0,5415
      001AA7 49 54 31              8085 	.ascii "IT1"
      001AAA 00                    8086 	.db	0
      001AAB 00 00 15 37           8087 	.dw	0,5431
      001AAF 49 45 30              8088 	.ascii "IE0"
      001AB2 00                    8089 	.db	0
      001AB3 00 00 15 47           8090 	.dw	0,5447
      001AB7 49 54 30              8091 	.ascii "IT0"
      001ABA 00                    8092 	.db	0
      001ABB 00 00 15 57           8093 	.dw	0,5463
      001ABF 50 30 37              8094 	.ascii "P07"
      001AC2 00                    8095 	.db	0
      001AC3 00 00 15 67           8096 	.dw	0,5479
      001AC7 52 58 44              8097 	.ascii "RXD"
      001ACA 00                    8098 	.db	0
      001ACB 00 00 15 77           8099 	.dw	0,5495
      001ACF 50 30 36              8100 	.ascii "P06"
      001AD2 00                    8101 	.db	0
      001AD3 00 00 15 87           8102 	.dw	0,5511
      001AD7 54 58 44              8103 	.ascii "TXD"
      001ADA 00                    8104 	.db	0
      001ADB 00 00 15 97           8105 	.dw	0,5527
      001ADF 50 30 35              8106 	.ascii "P05"
      001AE2 00                    8107 	.db	0
      001AE3 00 00 15 A7           8108 	.dw	0,5543
      001AE7 50 30 34              8109 	.ascii "P04"
      001AEA 00                    8110 	.db	0
      001AEB 00 00 15 B7           8111 	.dw	0,5559
      001AEF 53 54 41 44 43        8112 	.ascii "STADC"
      001AF4 00                    8113 	.db	0
      001AF5 00 00 15 C9           8114 	.dw	0,5577
      001AF9 50 30 33              8115 	.ascii "P03"
      001AFC 00                    8116 	.db	0
      001AFD 00 00 15 D9           8117 	.dw	0,5593
      001B01 50 30 32              8118 	.ascii "P02"
      001B04 00                    8119 	.db	0
      001B05 00 00 15 E9           8120 	.dw	0,5609
      001B09 52 58 44 5F 31        8121 	.ascii "RXD_1"
      001B0E 00                    8122 	.db	0
      001B0F 00 00 15 FB           8123 	.dw	0,5627
      001B13 50 30 31              8124 	.ascii "P01"
      001B16 00                    8125 	.db	0
      001B17 00 00 16 0B           8126 	.dw	0,5643
      001B1B 4D 49 53 4F           8127 	.ascii "MISO"
      001B1F 00                    8128 	.db	0
      001B20 00 00 16 1C           8129 	.dw	0,5660
      001B24 50 30 30              8130 	.ascii "P00"
      001B27 00                    8131 	.db	0
      001B28 00 00 16 2C           8132 	.dw	0,5676
      001B2C 4D 4F 53 49           8133 	.ascii "MOSI"
      001B30 00                    8134 	.db	0
      001B31 00 00 00 00           8135 	.dw	0,0
      001B35                       8136 Ldebug_pubnames_end:
                                   8137 
                                   8138 	.area .debug_frame (NOLOAD)
      000134 00 00                 8139 	.dw	0
      000136 00 10                 8140 	.dw	Ldebug_CIE0_end-Ldebug_CIE0_start
      000138                       8141 Ldebug_CIE0_start:
      000138 FF FF                 8142 	.dw	0xffff
      00013A FF FF                 8143 	.dw	0xffff
      00013C 01                    8144 	.db	1
      00013D 00                    8145 	.db	0
      00013E 01                    8146 	.uleb128	1
      00013F 01                    8147 	.sleb128	1
      000140 09                    8148 	.db	9
      000141 0C                    8149 	.db	12
      000142 16                    8150 	.uleb128	22
      000143 02                    8151 	.uleb128	2
      000144 89                    8152 	.db	137
      000145 01                    8153 	.uleb128	1
      000146 00                    8154 	.db	0
      000147 00                    8155 	.db	0
      000148                       8156 Ldebug_CIE0_end:
      000148 00 00 00 14           8157 	.dw	0,20
      00014C 00 00 01 34           8158 	.dw	0,(Ldebug_CIE0_start-4)
      000150 00 00 0B B6           8159 	.dw	0,(Siap$Read_PID$327)	;initial loc
      000154 00 00 00 60           8160 	.dw	0,Siap$Read_PID$343-Siap$Read_PID$327
      000158 01                    8161 	.db	1
      000159 00 00 0B B6           8162 	.dw	0,(Siap$Read_PID$327)
      00015D 0E                    8163 	.db	14
      00015E 02                    8164 	.uleb128	2
      00015F 00                    8165 	.db	0
                                   8166 
                                   8167 	.area .debug_frame (NOLOAD)
      000160 00 00                 8168 	.dw	0
      000162 00 10                 8169 	.dw	Ldebug_CIE1_end-Ldebug_CIE1_start
      000164                       8170 Ldebug_CIE1_start:
      000164 FF FF                 8171 	.dw	0xffff
      000166 FF FF                 8172 	.dw	0xffff
      000168 01                    8173 	.db	1
      000169 00                    8174 	.db	0
      00016A 01                    8175 	.uleb128	1
      00016B 01                    8176 	.sleb128	1
      00016C 09                    8177 	.db	9
      00016D 0C                    8178 	.db	12
      00016E 16                    8179 	.uleb128	22
      00016F 02                    8180 	.uleb128	2
      000170 89                    8181 	.db	137
      000171 01                    8182 	.uleb128	1
      000172 00                    8183 	.db	0
      000173 00                    8184 	.db	0
      000174                       8185 Ldebug_CIE1_end:
      000174 00 00 00 14           8186 	.dw	0,20
      000178 00 00 01 60           8187 	.dw	0,(Ldebug_CIE1_start-4)
      00017C 00 00 0B 56           8188 	.dw	0,(Siap$Read_DID$309)	;initial loc
      000180 00 00 00 60           8189 	.dw	0,Siap$Read_DID$325-Siap$Read_DID$309
      000184 01                    8190 	.db	1
      000185 00 00 0B 56           8191 	.dw	0,(Siap$Read_DID$309)
      000189 0E                    8192 	.db	14
      00018A 02                    8193 	.uleb128	2
      00018B 00                    8194 	.db	0
                                   8195 
                                   8196 	.area .debug_frame (NOLOAD)
      00018C 00 00                 8197 	.dw	0
      00018E 00 10                 8198 	.dw	Ldebug_CIE2_end-Ldebug_CIE2_start
      000190                       8199 Ldebug_CIE2_start:
      000190 FF FF                 8200 	.dw	0xffff
      000192 FF FF                 8201 	.dw	0xffff
      000194 01                    8202 	.db	1
      000195 00                    8203 	.db	0
      000196 01                    8204 	.uleb128	1
      000197 01                    8205 	.sleb128	1
      000198 09                    8206 	.db	9
      000199 0C                    8207 	.db	12
      00019A 16                    8208 	.uleb128	22
      00019B 02                    8209 	.uleb128	2
      00019C 89                    8210 	.db	137
      00019D 01                    8211 	.uleb128	1
      00019E 00                    8212 	.db	0
      00019F 00                    8213 	.db	0
      0001A0                       8214 Ldebug_CIE2_end:
      0001A0 00 00 00 14           8215 	.dw	0,20
      0001A4 00 00 01 8C           8216 	.dw	0,(Ldebug_CIE2_start-4)
      0001A8 00 00 0A F6           8217 	.dw	0,(Siap$Read_UCID$291)	;initial loc
      0001AC 00 00 00 60           8218 	.dw	0,Siap$Read_UCID$307-Siap$Read_UCID$291
      0001B0 01                    8219 	.db	1
      0001B1 00 00 0A F6           8220 	.dw	0,(Siap$Read_UCID$291)
      0001B5 0E                    8221 	.db	14
      0001B6 02                    8222 	.uleb128	2
      0001B7 00                    8223 	.db	0
                                   8224 
                                   8225 	.area .debug_frame (NOLOAD)
      0001B8 00 00                 8226 	.dw	0
      0001BA 00 10                 8227 	.dw	Ldebug_CIE3_end-Ldebug_CIE3_start
      0001BC                       8228 Ldebug_CIE3_start:
      0001BC FF FF                 8229 	.dw	0xffff
      0001BE FF FF                 8230 	.dw	0xffff
      0001C0 01                    8231 	.db	1
      0001C1 00                    8232 	.db	0
      0001C2 01                    8233 	.uleb128	1
      0001C3 01                    8234 	.sleb128	1
      0001C4 09                    8235 	.db	9
      0001C5 0C                    8236 	.db	12
      0001C6 16                    8237 	.uleb128	22
      0001C7 02                    8238 	.uleb128	2
      0001C8 89                    8239 	.db	137
      0001C9 01                    8240 	.uleb128	1
      0001CA 00                    8241 	.db	0
      0001CB 00                    8242 	.db	0
      0001CC                       8243 Ldebug_CIE3_end:
      0001CC 00 00 00 14           8244 	.dw	0,20
      0001D0 00 00 01 B8           8245 	.dw	0,(Ldebug_CIE3_start-4)
      0001D4 00 00 0A 96           8246 	.dw	0,(Siap$Read_UID$273)	;initial loc
      0001D8 00 00 00 60           8247 	.dw	0,Siap$Read_UID$289-Siap$Read_UID$273
      0001DC 01                    8248 	.db	1
      0001DD 00 00 0A 96           8249 	.dw	0,(Siap$Read_UID$273)
      0001E1 0E                    8250 	.db	14
      0001E2 02                    8251 	.uleb128	2
      0001E3 00                    8252 	.db	0
                                   8253 
                                   8254 	.area .debug_frame (NOLOAD)
      0001E4 00 00                 8255 	.dw	0
      0001E6 00 10                 8256 	.dw	Ldebug_CIE4_end-Ldebug_CIE4_start
      0001E8                       8257 Ldebug_CIE4_start:
      0001E8 FF FF                 8258 	.dw	0xffff
      0001EA FF FF                 8259 	.dw	0xffff
      0001EC 01                    8260 	.db	1
      0001ED 00                    8261 	.db	0
      0001EE 01                    8262 	.uleb128	1
      0001EF 01                    8263 	.sleb128	1
      0001F0 09                    8264 	.db	9
      0001F1 0C                    8265 	.db	12
      0001F2 16                    8266 	.uleb128	22
      0001F3 02                    8267 	.uleb128	2
      0001F4 89                    8268 	.db	137
      0001F5 01                    8269 	.uleb128	1
      0001F6 00                    8270 	.db	0
      0001F7 00                    8271 	.db	0
      0001F8                       8272 Ldebug_CIE4_end:
      0001F8 00 00 00 14           8273 	.dw	0,20
      0001FC 00 00 01 E4           8274 	.dw	0,(Ldebug_CIE4_start-4)
      000200 00 00 0A 2E           8275 	.dw	0,(Siap$Read_CONFIG$257)	;initial loc
      000204 00 00 00 68           8276 	.dw	0,Siap$Read_CONFIG$271-Siap$Read_CONFIG$257
      000208 01                    8277 	.db	1
      000209 00 00 0A 2E           8278 	.dw	0,(Siap$Read_CONFIG$257)
      00020D 0E                    8279 	.db	14
      00020E 02                    8280 	.uleb128	2
      00020F 00                    8281 	.db	0
                                   8282 
                                   8283 	.area .debug_frame (NOLOAD)
      000210 00 00                 8284 	.dw	0
      000212 00 10                 8285 	.dw	Ldebug_CIE5_end-Ldebug_CIE5_start
      000214                       8286 Ldebug_CIE5_start:
      000214 FF FF                 8287 	.dw	0xffff
      000216 FF FF                 8288 	.dw	0xffff
      000218 01                    8289 	.db	1
      000219 00                    8290 	.db	0
      00021A 01                    8291 	.uleb128	1
      00021B 01                    8292 	.sleb128	1
      00021C 09                    8293 	.db	9
      00021D 0C                    8294 	.db	12
      00021E 16                    8295 	.uleb128	22
      00021F 02                    8296 	.uleb128	2
      000220 89                    8297 	.db	137
      000221 01                    8298 	.uleb128	1
      000222 00                    8299 	.db	0
      000223 00                    8300 	.db	0
      000224                       8301 Ldebug_CIE5_end:
      000224 00 00 00 14           8302 	.dw	0,20
      000228 00 00 02 10           8303 	.dw	0,(Ldebug_CIE5_start-4)
      00022C 00 00 06 F3           8304 	.dw	0,(Siap$Modify_CONFIG$171)	;initial loc
      000230 00 00 03 3B           8305 	.dw	0,Siap$Modify_CONFIG$255-Siap$Modify_CONFIG$171
      000234 01                    8306 	.db	1
      000235 00 00 06 F3           8307 	.dw	0,(Siap$Modify_CONFIG$171)
      000239 0E                    8308 	.db	14
      00023A 02                    8309 	.uleb128	2
      00023B 00                    8310 	.db	0
                                   8311 
                                   8312 	.area .debug_frame (NOLOAD)
      00023C 00 00                 8313 	.dw	0
      00023E 00 10                 8314 	.dw	Ldebug_CIE6_end-Ldebug_CIE6_start
      000240                       8315 Ldebug_CIE6_start:
      000240 FF FF                 8316 	.dw	0xffff
      000242 FF FF                 8317 	.dw	0xffff
      000244 01                    8318 	.db	1
      000245 00                    8319 	.db	0
      000246 01                    8320 	.uleb128	1
      000247 01                    8321 	.sleb128	1
      000248 09                    8322 	.db	9
      000249 0C                    8323 	.db	12
      00024A 16                    8324 	.uleb128	22
      00024B 02                    8325 	.uleb128	2
      00024C 89                    8326 	.db	137
      00024D 01                    8327 	.uleb128	1
      00024E 00                    8328 	.db	0
      00024F 00                    8329 	.db	0
      000250                       8330 Ldebug_CIE6_end:
      000250 00 00 00 14           8331 	.dw	0,20
      000254 00 00 02 3C           8332 	.dw	0,(Ldebug_CIE6_start-4)
      000258 00 00 06 61           8333 	.dw	0,(Siap$Program_Verify_APROM$148)	;initial loc
      00025C 00 00 00 92           8334 	.dw	0,Siap$Program_Verify_APROM$169-Siap$Program_Verify_APROM$148
      000260 01                    8335 	.db	1
      000261 00 00 06 61           8336 	.dw	0,(Siap$Program_Verify_APROM$148)
      000265 0E                    8337 	.db	14
      000266 02                    8338 	.uleb128	2
      000267 00                    8339 	.db	0
                                   8340 
                                   8341 	.area .debug_frame (NOLOAD)
      000268 00 00                 8342 	.dw	0
      00026A 00 10                 8343 	.dw	Ldebug_CIE7_end-Ldebug_CIE7_start
      00026C                       8344 Ldebug_CIE7_start:
      00026C FF FF                 8345 	.dw	0xffff
      00026E FF FF                 8346 	.dw	0xffff
      000270 01                    8347 	.db	1
      000271 00                    8348 	.db	0
      000272 01                    8349 	.uleb128	1
      000273 01                    8350 	.sleb128	1
      000274 09                    8351 	.db	9
      000275 0C                    8352 	.db	12
      000276 16                    8353 	.uleb128	22
      000277 02                    8354 	.uleb128	2
      000278 89                    8355 	.db	137
      000279 01                    8356 	.uleb128	1
      00027A 00                    8357 	.db	0
      00027B 00                    8358 	.db	0
      00027C                       8359 Ldebug_CIE7_end:
      00027C 00 00 00 14           8360 	.dw	0,20
      000280 00 00 02 68           8361 	.dw	0,(Ldebug_CIE7_start-4)
      000284 00 00 05 A1           8362 	.dw	0,(Siap$Program_APROM$125)	;initial loc
      000288 00 00 00 C0           8363 	.dw	0,Siap$Program_APROM$146-Siap$Program_APROM$125
      00028C 01                    8364 	.db	1
      00028D 00 00 05 A1           8365 	.dw	0,(Siap$Program_APROM$125)
      000291 0E                    8366 	.db	14
      000292 02                    8367 	.uleb128	2
      000293 00                    8368 	.db	0
                                   8369 
                                   8370 	.area .debug_frame (NOLOAD)
      000294 00 00                 8371 	.dw	0
      000296 00 10                 8372 	.dw	Ldebug_CIE8_end-Ldebug_CIE8_start
      000298                       8373 Ldebug_CIE8_start:
      000298 FF FF                 8374 	.dw	0xffff
      00029A FF FF                 8375 	.dw	0xffff
      00029C 01                    8376 	.db	1
      00029D 00                    8377 	.db	0
      00029E 01                    8378 	.uleb128	1
      00029F 01                    8379 	.sleb128	1
      0002A0 09                    8380 	.db	9
      0002A1 0C                    8381 	.db	12
      0002A2 16                    8382 	.uleb128	22
      0002A3 02                    8383 	.uleb128	2
      0002A4 89                    8384 	.db	137
      0002A5 01                    8385 	.uleb128	1
      0002A6 00                    8386 	.db	0
      0002A7 00                    8387 	.db	0
      0002A8                       8388 Ldebug_CIE8_end:
      0002A8 00 00 00 14           8389 	.dw	0,20
      0002AC 00 00 02 94           8390 	.dw	0,(Ldebug_CIE8_start-4)
      0002B0 00 00 05 19           8391 	.dw	0,(Siap$Erase_Verify_APROM$104)	;initial loc
      0002B4 00 00 00 88           8392 	.dw	0,Siap$Erase_Verify_APROM$123-Siap$Erase_Verify_APROM$104
      0002B8 01                    8393 	.db	1
      0002B9 00 00 05 19           8394 	.dw	0,(Siap$Erase_Verify_APROM$104)
      0002BD 0E                    8395 	.db	14
      0002BE 02                    8396 	.uleb128	2
      0002BF 00                    8397 	.db	0
                                   8398 
                                   8399 	.area .debug_frame (NOLOAD)
      0002C0 00 00                 8400 	.dw	0
      0002C2 00 10                 8401 	.dw	Ldebug_CIE9_end-Ldebug_CIE9_start
      0002C4                       8402 Ldebug_CIE9_start:
      0002C4 FF FF                 8403 	.dw	0xffff
      0002C6 FF FF                 8404 	.dw	0xffff
      0002C8 01                    8405 	.db	1
      0002C9 00                    8406 	.db	0
      0002CA 01                    8407 	.uleb128	1
      0002CB 01                    8408 	.sleb128	1
      0002CC 09                    8409 	.db	9
      0002CD 0C                    8410 	.db	12
      0002CE 16                    8411 	.uleb128	22
      0002CF 02                    8412 	.uleb128	2
      0002D0 89                    8413 	.db	137
      0002D1 01                    8414 	.uleb128	1
      0002D2 00                    8415 	.db	0
      0002D3 00                    8416 	.db	0
      0002D4                       8417 Ldebug_CIE9_end:
      0002D4 00 00 00 14           8418 	.dw	0,20
      0002D8 00 00 02 C0           8419 	.dw	0,(Ldebug_CIE9_start-4)
      0002DC 00 00 04 3C           8420 	.dw	0,(Siap$Erase_APROM$86)	;initial loc
      0002E0 00 00 00 DD           8421 	.dw	0,Siap$Erase_APROM$102-Siap$Erase_APROM$86
      0002E4 01                    8422 	.db	1
      0002E5 00 00 04 3C           8423 	.dw	0,(Siap$Erase_APROM$86)
      0002E9 0E                    8424 	.db	14
      0002EA 02                    8425 	.uleb128	2
      0002EB 00                    8426 	.db	0
                                   8427 
                                   8428 	.area .debug_frame (NOLOAD)
      0002EC 00 00                 8429 	.dw	0
      0002EE 00 10                 8430 	.dw	Ldebug_CIE10_end-Ldebug_CIE10_start
      0002F0                       8431 Ldebug_CIE10_start:
      0002F0 FF FF                 8432 	.dw	0xffff
      0002F2 FF FF                 8433 	.dw	0xffff
      0002F4 01                    8434 	.db	1
      0002F5 00                    8435 	.db	0
      0002F6 01                    8436 	.uleb128	1
      0002F7 01                    8437 	.sleb128	1
      0002F8 09                    8438 	.db	9
      0002F9 0C                    8439 	.db	12
      0002FA 16                    8440 	.uleb128	22
      0002FB 02                    8441 	.uleb128	2
      0002FC 89                    8442 	.db	137
      0002FD 01                    8443 	.uleb128	1
      0002FE 00                    8444 	.db	0
      0002FF 00                    8445 	.db	0
      000300                       8446 Ldebug_CIE10_end:
      000300 00 00 00 14           8447 	.dw	0,20
      000304 00 00 02 EC           8448 	.dw	0,(Ldebug_CIE10_start-4)
      000308 00 00 03 AA           8449 	.dw	0,(Siap$Program_Verify_LDROM$63)	;initial loc
      00030C 00 00 00 92           8450 	.dw	0,Siap$Program_Verify_LDROM$84-Siap$Program_Verify_LDROM$63
      000310 01                    8451 	.db	1
      000311 00 00 03 AA           8452 	.dw	0,(Siap$Program_Verify_LDROM$63)
      000315 0E                    8453 	.db	14
      000316 02                    8454 	.uleb128	2
      000317 00                    8455 	.db	0
                                   8456 
                                   8457 	.area .debug_frame (NOLOAD)
      000318 00 00                 8458 	.dw	0
      00031A 00 10                 8459 	.dw	Ldebug_CIE11_end-Ldebug_CIE11_start
      00031C                       8460 Ldebug_CIE11_start:
      00031C FF FF                 8461 	.dw	0xffff
      00031E FF FF                 8462 	.dw	0xffff
      000320 01                    8463 	.db	1
      000321 00                    8464 	.db	0
      000322 01                    8465 	.uleb128	1
      000323 01                    8466 	.sleb128	1
      000324 09                    8467 	.db	9
      000325 0C                    8468 	.db	12
      000326 16                    8469 	.uleb128	22
      000327 02                    8470 	.uleb128	2
      000328 89                    8471 	.db	137
      000329 01                    8472 	.uleb128	1
      00032A 00                    8473 	.db	0
      00032B 00                    8474 	.db	0
      00032C                       8475 Ldebug_CIE11_end:
      00032C 00 00 00 14           8476 	.dw	0,20
      000330 00 00 03 18           8477 	.dw	0,(Ldebug_CIE11_start-4)
      000334 00 00 02 EA           8478 	.dw	0,(Siap$Program_LDROM$40)	;initial loc
      000338 00 00 00 C0           8479 	.dw	0,Siap$Program_LDROM$61-Siap$Program_LDROM$40
      00033C 01                    8480 	.db	1
      00033D 00 00 02 EA           8481 	.dw	0,(Siap$Program_LDROM$40)
      000341 0E                    8482 	.db	14
      000342 02                    8483 	.uleb128	2
      000343 00                    8484 	.db	0
                                   8485 
                                   8486 	.area .debug_frame (NOLOAD)
      000344 00 00                 8487 	.dw	0
      000346 00 10                 8488 	.dw	Ldebug_CIE12_end-Ldebug_CIE12_start
      000348                       8489 Ldebug_CIE12_start:
      000348 FF FF                 8490 	.dw	0xffff
      00034A FF FF                 8491 	.dw	0xffff
      00034C 01                    8492 	.db	1
      00034D 00                    8493 	.db	0
      00034E 01                    8494 	.uleb128	1
      00034F 01                    8495 	.sleb128	1
      000350 09                    8496 	.db	9
      000351 0C                    8497 	.db	12
      000352 16                    8498 	.uleb128	22
      000353 02                    8499 	.uleb128	2
      000354 89                    8500 	.db	137
      000355 01                    8501 	.uleb128	1
      000356 00                    8502 	.db	0
      000357 00                    8503 	.db	0
      000358                       8504 Ldebug_CIE12_end:
      000358 00 00 00 14           8505 	.dw	0,20
      00035C 00 00 03 44           8506 	.dw	0,(Ldebug_CIE12_start-4)
      000360 00 00 02 62           8507 	.dw	0,(Siap$Erase_Verify_LDROM$19)	;initial loc
      000364 00 00 00 88           8508 	.dw	0,Siap$Erase_Verify_LDROM$38-Siap$Erase_Verify_LDROM$19
      000368 01                    8509 	.db	1
      000369 00 00 02 62           8510 	.dw	0,(Siap$Erase_Verify_LDROM$19)
      00036D 0E                    8511 	.db	14
      00036E 02                    8512 	.uleb128	2
      00036F 00                    8513 	.db	0
                                   8514 
                                   8515 	.area .debug_frame (NOLOAD)
      000370 00 00                 8516 	.dw	0
      000372 00 10                 8517 	.dw	Ldebug_CIE13_end-Ldebug_CIE13_start
      000374                       8518 Ldebug_CIE13_start:
      000374 FF FF                 8519 	.dw	0xffff
      000376 FF FF                 8520 	.dw	0xffff
      000378 01                    8521 	.db	1
      000379 00                    8522 	.db	0
      00037A 01                    8523 	.uleb128	1
      00037B 01                    8524 	.sleb128	1
      00037C 09                    8525 	.db	9
      00037D 0C                    8526 	.db	12
      00037E 16                    8527 	.uleb128	22
      00037F 02                    8528 	.uleb128	2
      000380 89                    8529 	.db	137
      000381 01                    8530 	.uleb128	1
      000382 00                    8531 	.db	0
      000383 00                    8532 	.db	0
      000384                       8533 Ldebug_CIE13_end:
      000384 00 00 00 14           8534 	.dw	0,20
      000388 00 00 03 70           8535 	.dw	0,(Ldebug_CIE13_start-4)
      00038C 00 00 01 85           8536 	.dw	0,(Siap$Erase_LDROM$1)	;initial loc
      000390 00 00 00 DD           8537 	.dw	0,Siap$Erase_LDROM$17-Siap$Erase_LDROM$1
      000394 01                    8538 	.db	1
      000395 00 00 01 85           8539 	.dw	0,(Siap$Erase_LDROM$1)
      000399 0E                    8540 	.db	14
      00039A 02                    8541 	.uleb128	2
      00039B 00                    8542 	.db	0
